libopenvino.so.2420:_ZN2ov10AxisVectorC1ERKS0_
libopenvino.so.2420:_ZN2ov10AxisVectorC1ERKSt16initializer_listImE
libopenvino.so.2420:_ZN2ov10AxisVectorC1ERKSt6vectorImSaImEE
libopenvino.so.2420:_ZN2ov10AxisVectorC1Em
libopenvino.so.2420:_ZN2ov10AxisVectorC1Ev
libopenvino.so.2420:_ZN2ov10AxisVectorC2ERKS0_
libopenvino.so.2420:_ZN2ov10AxisVectorC2ERKSt16initializer_listImE
libopenvino.so.2420:_ZN2ov10AxisVectorC2ERKSt6vectorImSaImEE
libopenvino.so.2420:_ZN2ov10AxisVectorC2Em
libopenvino.so.2420:_ZN2ov10AxisVectorC2Ev
libopenvino.so.2420:_ZN2ov10AxisVectorD1Ev
libopenvino.so.2420:_ZN2ov10AxisVectorD2Ev
libopenvino.so.2420:_ZN2ov10AxisVectoraSEOS0_
libopenvino.so.2420:_ZN2ov10AxisVectoraSERKS0_
libopenvino.so.2420:_ZN2ov10ConvertNF410dequantizeEh
libopenvino.so.2420:_ZN2ov10ConvertNF48quantizeEf
libopenvino.so.2420:_ZN2ov10CoordinateC1ERKNS_5ShapeE
libopenvino.so.2420:_ZN2ov10CoordinateC1ERKS0_
libopenvino.so.2420:_ZN2ov10CoordinateC1ERKSt16initializer_listImE
libopenvino.so.2420:_ZN2ov10CoordinateC1ERKSt6vectorImSaImEE
libopenvino.so.2420:_ZN2ov10CoordinateC1Emm
libopenvino.so.2420:_ZN2ov10CoordinateC1Ev
libopenvino.so.2420:_ZN2ov10CoordinateC2ERKNS_5ShapeE
libopenvino.so.2420:_ZN2ov10CoordinateC2ERKS0_
libopenvino.so.2420:_ZN2ov10CoordinateC2ERKSt16initializer_listImE
libopenvino.so.2420:_ZN2ov10CoordinateC2ERKSt6vectorImSaImEE
libopenvino.so.2420:_ZN2ov10CoordinateC2Emm
libopenvino.so.2420:_ZN2ov10CoordinateC2Ev
libopenvino.so.2420:_ZN2ov10CoordinateD1Ev
libopenvino.so.2420:_ZN2ov10CoordinateD2Ev
libopenvino.so.2420:_ZN2ov10CoordinateaSEOS0_
libopenvino.so.2420:_ZN2ov10CoordinateaSERKS0_
libopenvino.so.2420:_ZN2ov10FusedNames16visit_attributesERNS_16AttributeVisitorE
libopenvino.so.2420:_ZN2ov10FusedNames8fuseWithERKS0_
libopenvino.so.2420:_ZN2ov10ModelCache12compute_hashERKNSt7__cxx1112basic_stringIcSt11char_traitsIcESaIcEEERKNS_6TensorERKSt3mapIS6_NS_3AnyESt4lessIS6_ESaISt4pairIS7_SD_EEE
libopenvino.so.2420:_ZN2ov10ModelCache12compute_hashERKNSt7__cxx1112basic_stringIcSt11char_traitsIcESaIcEEERKSt3mapIS6_NS_3AnyESt4lessIS6_ESaISt4pairIS7_SA_EEE
libopenvino.so.2420:_ZN2ov10ModelCache12compute_hashERKSt10shared_ptrIKNS_5ModelEERKSt3mapINSt7__cxx1112basic_stringIcSt11char_traitsIcESaIcEEENS_3AnyESt4lessISD_ESaISt4pairIKSD_SE_EEE
libopenvino.so.2420:_ZN2ov10ModelCache19calculate_file_infoERKNSt7__cxx1112basic_stringIcSt11char_traitsIcESaIcEEE
libopenvino.so.2420:_ZN2ov10descriptor25get_ov_tensor_legacy_nameB5cxx11ERKNS0_6TensorE
libopenvino.so.2420:_ZN2ov10descriptor25set_ov_tensor_legacy_nameERNS0_6TensorERKNSt7__cxx1112basic_stringIcSt11char_traitsIcESaIcEEE
libopenvino.so.2420:_ZN2ov10descriptor5Input10get_tensorEv
libopenvino.so.2420:_ZN2ov10descriptor5Input13remove_outputEv
libopenvino.so.2420:_ZN2ov10descriptor5Input14get_tensor_ptrEv
libopenvino.so.2420:_ZN2ov10descriptor5Input14replace_outputERKSt10shared_ptrINS_4NodeEEm
libopenvino.so.2420:_ZN2ov10descriptor5Input14replace_outputERNS0_6OutputE
libopenvino.so.2420:_ZN2ov10descriptor5InputC1EPNS_4NodeEm
libopenvino.so.2420:_ZN2ov10descriptor5InputC1EPNS_4NodeEmRNS0_6OutputE
libopenvino.so.2420:_ZN2ov10descriptor5InputC2EPNS_4NodeEm
libopenvino.so.2420:_ZN2ov10descriptor5InputC2EPNS_4NodeEmRNS0_6OutputE
libopenvino.so.2420:_ZN2ov10descriptor5InputD1Ev
libopenvino.so.2420:_ZN2ov10descriptor5InputD2Ev
libopenvino.so.2420:_ZN2ov10descriptor6Output12remove_inputEPNS0_5InputE
libopenvino.so.2420:_ZN2ov10descriptor6Output9add_inputEPNS0_5InputE
libopenvino.so.2420:_ZN2ov10descriptor6OutputC1EPNS_4NodeEmRKSt10shared_ptrINS0_6TensorEE
libopenvino.so.2420:_ZN2ov10descriptor6OutputC2EPNS_4NodeEmRKSt10shared_ptrINS0_6TensorEE
libopenvino.so.2420:_ZN2ov10descriptor6Tensor10clone_fromERKS1_
libopenvino.so.2420:_ZN2ov10descriptor6Tensor15set_lower_valueERKNS_6TensorE
libopenvino.so.2420:_ZN2ov10descriptor6Tensor15set_upper_valueERKNS_6TensorE
libopenvino.so.2420:_ZN2ov10descriptor6Tensor16set_value_symbolERKSt6vectorISt10shared_ptrINS_6SymbolEESaIS5_EE
libopenvino.so.2420:_ZN2ov10descriptor6Tensor17invalidate_valuesEv
libopenvino.so.2420:_ZN2ov10descriptor6Tensor9add_namesERKSt13unordered_setINSt7__cxx1112basic_stringIcSt11char_traitsIcESaIcEEESt4hashIS8_ESt8equal_toIS8_ESaIS8_EE
libopenvino.so.2420:_ZN2ov10descriptor6Tensor9set_namesERKSt13unordered_setINSt7__cxx1112basic_stringIcSt11char_traitsIcESaIcEEESt4hashIS8_ESt8equal_toIS8_ESaIS8_EE
libopenvino.so.2420:_ZN2ov10descriptor6TensorC1ERKNS_7element4TypeERKNS_12PartialShapeEPNS_4NodeEm
libopenvino.so.2420:_ZN2ov10descriptor6TensorC1ERKNS_7element4TypeERKNS_12PartialShapeERKSt13unordered_setINSt7__cxx1112basic_stringIcSt11char_traitsIcESaIcEEESt4hashISF_ESt8equal_toISF_ESaISF_EE
libopenvino.so.2420:_ZN2ov10descriptor6TensorC2ERKNS_7element4TypeERKNS_12PartialShapeEPNS_4NodeEm
libopenvino.so.2420:_ZN2ov10descriptor6TensorC2ERKNS_7element4TypeERKNS_12PartialShapeERKSt13unordered_setINSt7__cxx1112basic_stringIcSt11char_traitsIcESaIcEEESt4hashISF_ESt8equal_toISF_ESaISF_EE
libopenvino.so.2420:_ZN2ov10descriptorlsERSoRKNS0_6TensorE
libopenvino.so.2420:_ZN2ov10get_opset1Ev
libopenvino.so.2420:_ZN2ov10get_opset2Ev
libopenvino.so.2420:_ZN2ov10get_opset3Ev
libopenvino.so.2420:_ZN2ov10get_opset4Ev
libopenvino.so.2420:_ZN2ov10get_opset5Ev
libopenvino.so.2420:_ZN2ov10get_opset6Ev
libopenvino.so.2420:_ZN2ov10get_opset7Ev
libopenvino.so.2420:_ZN2ov10get_opset8Ev
libopenvino.so.2420:_ZN2ov10get_opset9Ev
libopenvino.so.2420:_ZN2ov10preprocess10OutputInfo11postprocessEv
libopenvino.so.2420:_ZN2ov10preprocess10OutputInfo14OutputInfoImpl5buildERSt6vectorISt10shared_ptrINS_2op2v06ResultEESaIS8_EE
libopenvino.so.2420:_ZN2ov10preprocess10OutputInfo5modelEv
libopenvino.so.2420:_ZN2ov10preprocess10OutputInfo6tensorEv
libopenvino.so.2420:_ZN2ov10preprocess10OutputInfoC1EOS1_
libopenvino.so.2420:_ZN2ov10preprocess10OutputInfoC1Ev
libopenvino.so.2420:_ZN2ov10preprocess10OutputInfoC2EOS1_
libopenvino.so.2420:_ZN2ov10preprocess10OutputInfoC2Ev
libopenvino.so.2420:_ZN2ov10preprocess10OutputInfoD1Ev
libopenvino.so.2420:_ZN2ov10preprocess10OutputInfoD2Ev
libopenvino.so.2420:_ZN2ov10preprocess10OutputInfoaSEOS1_
libopenvino.so.2420:_ZN2ov10preprocess14InputModelInfo10set_layoutERKNS_6LayoutE
libopenvino.so.2420:_ZN2ov10preprocess14InputModelInfoC1Ev
libopenvino.so.2420:_ZN2ov10preprocess14InputModelInfoC2Ev
libopenvino.so.2420:_ZN2ov10preprocess14InputModelInfoD1Ev
libopenvino.so.2420:_ZN2ov10preprocess14InputModelInfoD2Ev
libopenvino.so.2420:_ZN2ov10preprocess15InputTensorInfo10set_layoutERKNS_6LayoutE
libopenvino.so.2420:_ZN2ov10preprocess15InputTensorInfo15set_memory_typeERKNSt7__cxx1112basic_stringIcSt11char_traitsIcESaIcEEE
libopenvino.so.2420:_ZN2ov10preprocess15InputTensorInfo16set_color_formatERKNS0_11ColorFormatERKSt6vectorINSt7__cxx1112basic_stringIcSt11char_traitsIcESaIcEEESaISB_EE
libopenvino.so.2420:_ZN2ov10preprocess15InputTensorInfo16set_element_typeERKNS_7element4TypeE
libopenvino.so.2420:_ZN2ov10preprocess15InputTensorInfo24set_spatial_static_shapeEmm
libopenvino.so.2420:_ZN2ov10preprocess15InputTensorInfo25set_spatial_dynamic_shapeEv
libopenvino.so.2420:_ZN2ov10preprocess15InputTensorInfo8set_fromERKNS_6TensorE
libopenvino.so.2420:_ZN2ov10preprocess15InputTensorInfo9set_shapeERKNS_12PartialShapeE
libopenvino.so.2420:_ZN2ov10preprocess15InputTensorInfoC1Ev
libopenvino.so.2420:_ZN2ov10preprocess15InputTensorInfoC2Ev
libopenvino.so.2420:_ZN2ov10preprocess15InputTensorInfoD1Ev
libopenvino.so.2420:_ZN2ov10preprocess15InputTensorInfoD2Ev
libopenvino.so.2420:_ZN2ov10preprocess15OutputModelInfo10set_layoutERKNS_6LayoutE
libopenvino.so.2420:_ZN2ov10preprocess15OutputModelInfo16set_color_formatERKNS0_11ColorFormatERKSt6vectorINSt7__cxx1112basic_stringIcSt11char_traitsIcESaIcEEESaISB_EE
libopenvino.so.2420:_ZN2ov10preprocess15OutputModelInfoC1Ev
libopenvino.so.2420:_ZN2ov10preprocess15OutputModelInfoC2Ev
libopenvino.so.2420:_ZN2ov10preprocess15OutputModelInfoD1Ev
libopenvino.so.2420:_ZN2ov10preprocess15OutputModelInfoD2Ev
libopenvino.so.2420:_ZN2ov10preprocess15PreProcessSteps13convert_colorERKNS0_11ColorFormatE
libopenvino.so.2420:_ZN2ov10preprocess15PreProcessSteps14convert_layoutERKNS_6LayoutE
libopenvino.so.2420:_ZN2ov10preprocess15PreProcessSteps14convert_layoutERKSt6vectorImSaImEE
libopenvino.so.2420:_ZN2ov10preprocess15PreProcessSteps16reverse_channelsEv
libopenvino.so.2420:_ZN2ov10preprocess15PreProcessSteps20convert_element_typeERKNS_7element4TypeE
libopenvino.so.2420:_ZN2ov10preprocess15PreProcessSteps3padERKSt6vectorIiSaIiEES6_RKS2_IfSaIfEENS_2op7PadModeE
libopenvino.so.2420:_ZN2ov10preprocess15PreProcessSteps3padERKSt6vectorIiSaIiEES6_fNS_2op7PadModeE
libopenvino.so.2420:_ZN2ov10preprocess15PreProcessSteps4cropERKSt6vectorIiSaIiEES6_
libopenvino.so.2420:_ZN2ov10preprocess15PreProcessSteps4meanERKSt6vectorIfSaIfEE
libopenvino.so.2420:_ZN2ov10preprocess15PreProcessSteps4meanEf
libopenvino.so.2420:_ZN2ov10preprocess15PreProcessSteps5scaleERKSt6vectorIfSaIfEE
libopenvino.so.2420:_ZN2ov10preprocess15PreProcessSteps5scaleEf
libopenvino.so.2420:_ZN2ov10preprocess15PreProcessSteps6customERKSt8functionIFNS_6OutputINS_4NodeEEERKS5_EE
libopenvino.so.2420:_ZN2ov10preprocess15PreProcessSteps6resizeENS0_15ResizeAlgorithmE
libopenvino.so.2420:_ZN2ov10preprocess15PreProcessSteps6resizeENS0_15ResizeAlgorithmEmm
libopenvino.so.2420:_ZN2ov10preprocess15PreProcessStepsC1Ev
libopenvino.so.2420:_ZN2ov10preprocess15PreProcessStepsC2Ev
libopenvino.so.2420:_ZN2ov10preprocess15PreProcessStepsD1Ev
libopenvino.so.2420:_ZN2ov10preprocess15PreProcessStepsD2Ev
libopenvino.so.2420:_ZN2ov10preprocess16OutputTensorInfo10set_layoutERKNS_6LayoutE
libopenvino.so.2420:_ZN2ov10preprocess16OutputTensorInfo16set_element_typeERKNS_7element4TypeE
libopenvino.so.2420:_ZN2ov10preprocess16OutputTensorInfoC1Ev
libopenvino.so.2420:_ZN2ov10preprocess16OutputTensorInfoC2Ev
libopenvino.so.2420:_ZN2ov10preprocess16OutputTensorInfoD1Ev
libopenvino.so.2420:_ZN2ov10preprocess16OutputTensorInfoD2Ev
libopenvino.so.2420:_ZN2ov10preprocess16PostProcessSteps13convert_colorERKNS0_11ColorFormatE
libopenvino.so.2420:_ZN2ov10preprocess16PostProcessSteps14convert_layoutERKNS_6LayoutE
libopenvino.so.2420:_ZN2ov10preprocess16PostProcessSteps14convert_layoutERKSt6vectorImSaImEE
libopenvino.so.2420:_ZN2ov10preprocess16PostProcessSteps20convert_element_typeERKNS_7element4TypeE
libopenvino.so.2420:_ZN2ov10preprocess16PostProcessSteps6customERKSt8functionIFNS_6OutputINS_4NodeEEERKS5_EE
libopenvino.so.2420:_ZN2ov10preprocess16PostProcessStepsC1Ev
libopenvino.so.2420:_ZN2ov10preprocess16PostProcessStepsC2Ev
libopenvino.so.2420:_ZN2ov10preprocess16PostProcessStepsD1Ev
libopenvino.so.2420:_ZN2ov10preprocess16PostProcessStepsD2Ev
libopenvino.so.2420:_ZN2ov10preprocess16PrePostProcessor5buildEv
libopenvino.so.2420:_ZN2ov10preprocess16PrePostProcessor5inputERKNSt7__cxx1112basic_stringIcSt11char_traitsIcESaIcEEE
libopenvino.so.2420:_ZN2ov10preprocess16PrePostProcessor5inputEm
libopenvino.so.2420:_ZN2ov10preprocess16PrePostProcessor5inputEv
libopenvino.so.2420:_ZN2ov10preprocess16PrePostProcessor6outputERKNSt7__cxx1112basic_stringIcSt11char_traitsIcESaIcEEE
libopenvino.so.2420:_ZN2ov10preprocess16PrePostProcessor6outputEm
libopenvino.so.2420:_ZN2ov10preprocess16PrePostProcessor6outputEv
libopenvino.so.2420:_ZN2ov10preprocess16PrePostProcessorC1EOS1_
libopenvino.so.2420:_ZN2ov10preprocess16PrePostProcessorC1ERKSt10shared_ptrINS_5ModelEE
libopenvino.so.2420:_ZN2ov10preprocess16PrePostProcessorC2EOS1_
libopenvino.so.2420:_ZN2ov10preprocess16PrePostProcessorC2ERKSt10shared_ptrINS_5ModelEE
libopenvino.so.2420:_ZN2ov10preprocess16PrePostProcessorD1Ev
libopenvino.so.2420:_ZN2ov10preprocess16PrePostProcessorD2Ev
libopenvino.so.2420:_ZN2ov10preprocess16PrePostProcessoraSEOS1_
libopenvino.so.2420:_ZN2ov10preprocess9InputInfo10preprocessEv
libopenvino.so.2420:_ZN2ov10preprocess9InputInfo13InputInfoImpl21create_implicit_stepsERKNS0_20PreprocessingContextENS_7element4TypeE
libopenvino.so.2420:_ZN2ov10preprocess9InputInfo13InputInfoImpl5buildERKSt10shared_ptrINS_5ModelEERSt5tupleIJSt13unordered_setINSt7__cxx1112basic_stringIcSt11char_traitsIcESaIcEEESt4hashISF_ESt8equal_toISF_ESaISF_EEbEERNSA_4listIS3_INS_2op2v09ParameterEESaISS_EEE
libopenvino.so.2420:_ZN2ov10preprocess9InputInfo5modelEv
libopenvino.so.2420:_ZN2ov10preprocess9InputInfo6tensorEv
libopenvino.so.2420:_ZN2ov10preprocess9InputInfoC1EOS1_
libopenvino.so.2420:_ZN2ov10preprocess9InputInfoC1Ev
libopenvino.so.2420:_ZN2ov10preprocess9InputInfoC2EOS1_
libopenvino.so.2420:_ZN2ov10preprocess9InputInfoC2Ev
libopenvino.so.2420:_ZN2ov10preprocess9InputInfoD1Ev
libopenvino.so.2420:_ZN2ov10preprocess9InputInfoD2Ev
libopenvino.so.2420:_ZN2ov10preprocess9InputInfoaSEOS1_
libopenvino.so.2420:_ZN2ov10preprocesslsERSoRKNS0_16PrePostProcessorE
libopenvino.so.2420:_ZN2ov10save_modelERKSt10shared_ptrIKNS_5ModelEERKNSt7__cxx1112basic_stringIcSt11char_traitsIcESaIcEEEb
libopenvino.so.2420:_ZN2ov11float8_e4m3C1Ef
libopenvino.so.2420:_ZN2ov11float8_e4m3C1Ejjj
libopenvino.so.2420:_ZN2ov11float8_e4m3C2Ef
libopenvino.so.2420:_ZN2ov11float8_e4m3C2Ejjj
libopenvino.so.2420:_ZN2ov11float8_e5m2C1Ef
libopenvino.so.2420:_ZN2ov11float8_e5m2C1Ejjj
libopenvino.so.2420:_ZN2ov11float8_e5m2C2Ef
libopenvino.so.2420:_ZN2ov11float8_e5m2C2Ejjj
libopenvino.so.2420:_ZN2ov11get_opset10Ev
libopenvino.so.2420:_ZN2ov11get_opset11Ev
libopenvino.so.2420:_ZN2ov11get_opset12Ev
libopenvino.so.2420:_ZN2ov11get_opset13Ev
libopenvino.so.2420:_ZN2ov11get_opset14Ev
libopenvino.so.2420:_ZN2ov11get_opset15Ev
libopenvino.so.2420:_ZN2ov11make_tensorENS_7element4TypeERKNS_5ShapeEPvRKNS_7StridesE
libopenvino.so.2420:_ZN2ov11make_tensorENS_7element4TypeERKNS_5ShapeERKNS_9AllocatorE
libopenvino.so.2420:_ZN2ov11make_tensorERKNS_5SoPtrINS_7ITensorEEE
libopenvino.so.2420:_ZN2ov11make_tensorERKSt10shared_ptrINS_7ITensorEERKNS_10CoordinateES7_
libopenvino.so.2420:_ZN2ov12InferRequest10get_tensorERKNS_6OutputIKNS_4NodeEEE
libopenvino.so.2420:_ZN2ov12InferRequest10get_tensorERKNS_6OutputINS_4NodeEEE
libopenvino.so.2420:_ZN2ov12InferRequest10get_tensorERKNSt7__cxx1112basic_stringIcSt11char_traitsIcESaIcEEE
libopenvino.so.2420:_ZN2ov12InferRequest10set_tensorERKNS_6OutputIKNS_4NodeEEERKNS_6TensorE
libopenvino.so.2420:_ZN2ov12InferRequest10set_tensorERKNS_6OutputINS_4NodeEEERKNS_6TensorE
libopenvino.so.2420:_ZN2ov12InferRequest10set_tensorERKNSt7__cxx1112basic_stringIcSt11char_traitsIcESaIcEEERKNS_6TensorE
libopenvino.so.2420:_ZN2ov12InferRequest11query_stateEv
libopenvino.so.2420:_ZN2ov12InferRequest11reset_stateEv
libopenvino.so.2420:_ZN2ov12InferRequest11set_tensorsERKNS_6OutputIKNS_4NodeEEERKSt6vectorINS_6TensorESaIS8_EE
libopenvino.so.2420:_ZN2ov12InferRequest11set_tensorsERKNSt7__cxx1112basic_stringIcSt11char_traitsIcESaIcEEERKSt6vectorINS_6TensorESaISA_EE
libopenvino.so.2420:_ZN2ov12InferRequest11start_asyncEv
libopenvino.so.2420:_ZN2ov12InferRequest12set_callbackESt8functionIFvNSt15__exception_ptr13exception_ptrEEE
libopenvino.so.2420:_ZN2ov12InferRequest16get_input_tensorEm
libopenvino.so.2420:_ZN2ov12InferRequest16get_input_tensorEv
libopenvino.so.2420:_ZN2ov12InferRequest16set_input_tensorERKNS_6TensorE
libopenvino.so.2420:_ZN2ov12InferRequest16set_input_tensorEmRKNS_6TensorE
libopenvino.so.2420:_ZN2ov12InferRequest17get_output_tensorEm
libopenvino.so.2420:_ZN2ov12InferRequest17get_output_tensorEv
libopenvino.so.2420:_ZN2ov12InferRequest17set_input_tensorsERKSt6vectorINS_6TensorESaIS2_EE
libopenvino.so.2420:_ZN2ov12InferRequest17set_input_tensorsEmRKSt6vectorINS_6TensorESaIS2_EE
libopenvino.so.2420:_ZN2ov12InferRequest17set_output_tensorERKNS_6TensorE
libopenvino.so.2420:_ZN2ov12InferRequest17set_output_tensorEmRKNS_6TensorE
libopenvino.so.2420:_ZN2ov12InferRequest18get_compiled_modelEv
libopenvino.so.2420:_ZN2ov12InferRequest4waitEv
libopenvino.so.2420:_ZN2ov12InferRequest5inferEv
libopenvino.so.2420:_ZN2ov12InferRequest6cancelEv
libopenvino.so.2420:_ZN2ov12InferRequest8wait_forENSt6chrono8durationIlSt5ratioILl1ELl1000EEEE
libopenvino.so.2420:_ZN2ov12InferRequestC1ERKSt10shared_ptrINS_18IAsyncInferRequestEERKS1_IvE
libopenvino.so.2420:_ZN2ov12InferRequestC2ERKSt10shared_ptrINS_18IAsyncInferRequestEERKS1_IvE
libopenvino.so.2420:_ZN2ov12InferRequestD1Ev
libopenvino.so.2420:_ZN2ov12InferRequestD2Ev
libopenvino.so.2420:_ZN2ov12PartialShape10merge_intoERS0_RKS0_
libopenvino.so.2420:_ZN2ov12PartialShape10merge_rankERKNS_9DimensionE
libopenvino.so.2420:_ZN2ov12PartialShape20broadcast_merge_intoERS0_RKS0_RKNS_2op17AutoBroadcastSpecE
libopenvino.so.2420:_ZN2ov12PartialShape7dynamicENS_9DimensionE
libopenvino.so.2420:_ZN2ov12PartialShapeC1ERKNS_5ShapeE
libopenvino.so.2420:_ZN2ov12PartialShapeC1ERKNSt7__cxx1112basic_stringIcSt11char_traitsIcESaIcEEE
libopenvino.so.2420:_ZN2ov12PartialShapeC1ERKSt6vectorIlSaIlEE
libopenvino.so.2420:_ZN2ov12PartialShapeC1ESt16initializer_listINS_9DimensionEE
libopenvino.so.2420:_ZN2ov12PartialShapeC1ESt6vectorINS_9DimensionESaIS2_EE
libopenvino.so.2420:_ZN2ov12PartialShapeC1EbSt6vectorINS_9DimensionESaIS2_EE
libopenvino.so.2420:_ZN2ov12PartialShapeC1Ev
libopenvino.so.2420:_ZN2ov12PartialShapeC2ERKNS_5ShapeE
libopenvino.so.2420:_ZN2ov12PartialShapeC2ERKNSt7__cxx1112basic_stringIcSt11char_traitsIcESaIcEEE
libopenvino.so.2420:_ZN2ov12PartialShapeC2ERKSt6vectorIlSaIlEE
libopenvino.so.2420:_ZN2ov12PartialShapeC2ESt16initializer_listINS_9DimensionEE
libopenvino.so.2420:_ZN2ov12PartialShapeC2ESt6vectorINS_9DimensionESaIS2_EE
libopenvino.so.2420:_ZN2ov12PartialShapeC2EbSt6vectorINS_9DimensionESaIS2_EE
libopenvino.so.2420:_ZN2ov12PartialShapeC2Ev
libopenvino.so.2420:_ZN2ov12PartialShapeixEl
libopenvino.so.2420:_ZN2ov12RemoteTensor10type_checkERKNS_6TensorERKSt3mapINSt7__cxx1112basic_stringIcSt11char_traitsIcESaIcEEESt6vectorISA_SaISA_EESt4lessISA_ESaISt4pairIKSA_SD_EEE
libopenvino.so.2420:_ZN2ov12mark_as_biasERKSt10shared_ptrINS_4NodeEE
libopenvino.so.2420:_ZN2ov12replace_nodeERKSt10shared_ptrINS_4NodeEERKSt6vectorINS_6OutputIS1_EESaIS7_EE
libopenvino.so.2420:_ZN2ov12replace_nodeERKSt10shared_ptrINS_4NodeEES4_
libopenvino.so.2420:_ZN2ov12replace_nodeERKSt10shared_ptrINS_4NodeEES4_RKSt6vectorIlSaIlEE
libopenvino.so.2420:_ZN2ov12set_cpu_usedERKSt6vectorIiSaIiEEi
libopenvino.so.2420:_ZN2ov13AlignedBufferC1EOS0_
libopenvino.so.2420:_ZN2ov13AlignedBufferC1Emm
libopenvino.so.2420:_ZN2ov13AlignedBufferC1Ev
libopenvino.so.2420:_ZN2ov13AlignedBufferC2EOS0_
libopenvino.so.2420:_ZN2ov13AlignedBufferC2Emm
libopenvino.so.2420:_ZN2ov13AlignedBufferC2Ev
libopenvino.so.2420:_ZN2ov13AlignedBufferD0Ev
libopenvino.so.2420:_ZN2ov13AlignedBufferD1Ev
libopenvino.so.2420:_ZN2ov13AlignedBufferD2Ev
libopenvino.so.2420:_ZN2ov13AlignedBufferaSEOS0_
libopenvino.so.2420:_ZN2ov13AssertFailure6createEPKciS2_RKNSt7__cxx1112basic_stringIcSt11char_traitsIcESaIcEEESA_
libopenvino.so.2420:_ZN2ov13CompiledModel12export_modelERSo
libopenvino.so.2420:_ZN2ov13CompiledModel12set_propertyERKSt3mapINSt7__cxx1112basic_stringIcSt11char_traitsIcESaIcEEENS_3AnyESt4lessIS7_ESaISt4pairIKS7_S8_EEE
libopenvino.so.2420:_ZN2ov13CompiledModel20create_infer_requestEv
libopenvino.so.2420:_ZN2ov13CompiledModelC1ERKSt10shared_ptrINS_14ICompiledModelEERKS1_IvE
libopenvino.so.2420:_ZN2ov13CompiledModelC2ERKSt10shared_ptrINS_14ICompiledModelEERKS1_IvE
libopenvino.so.2420:_ZN2ov13CompiledModelD1Ev
libopenvino.so.2420:_ZN2ov13CompiledModelD2Ev
libopenvino.so.2420:_ZN2ov13IInferRequestD0Ev
libopenvino.so.2420:_ZN2ov13IInferRequestD1Ev
libopenvino.so.2420:_ZN2ov13IInferRequestD2Ev
libopenvino.so.2420:_ZN2ov13IRemoteTensorD0Ev
libopenvino.so.2420:_ZN2ov13IRemoteTensorD1Ev
libopenvino.so.2420:_ZN2ov13IRemoteTensorD2Ev
libopenvino.so.2420:_ZN2ov13RemoteContext10type_checkERKS0_RKSt3mapINSt7__cxx1112basic_stringIcSt11char_traitsIcESaIcEEESt6vectorIS9_SaIS9_EESt4lessIS9_ESaISt4pairIKS9_SC_EEE
libopenvino.so.2420:_ZN2ov13RemoteContext13create_tensorERKNS_7element4TypeERKNS_5ShapeERKSt3mapINSt7__cxx1112basic_stringIcSt11char_traitsIcESaIcEEENS_3AnyESt4lessISE_ESaISt4pairIKSE_SF_EEE
libopenvino.so.2420:_ZN2ov13RemoteContext18create_host_tensorENS_7element4TypeERKNS_5ShapeE
libopenvino.so.2420:_ZN2ov13RemoteContextC1ERKSt10shared_ptrINS_14IRemoteContextEERKS1_IvE
libopenvino.so.2420:_ZN2ov13RemoteContextC2ERKSt10shared_ptrINS_14IRemoteContextEERKS1_IvE
libopenvino.so.2420:_ZN2ov13RemoteContextD1Ev
libopenvino.so.2420:_ZN2ov13RemoteContextD2Ev
libopenvino.so.2420:_ZN2ov13VariableState5resetEv
libopenvino.so.2420:_ZN2ov13VariableState9set_stateERKNS_6TensorE
libopenvino.so.2420:_ZN2ov13VariableStateC1ERKSt10shared_ptrINS_14IVariableStateEERKS1_IvE
libopenvino.so.2420:_ZN2ov13VariableStateC2ERKSt10shared_ptrINS_14IVariableStateEERKS1_IvE
libopenvino.so.2420:_ZN2ov13VariableStateD1Ev
libopenvino.so.2420:_ZN2ov13VariableStateD2Ev
libopenvino.so.2420:_ZN2ov13getFusedNamesB5cxx11ERKSt10shared_ptrINS_4NodeEE
libopenvino.so.2420:_ZN2ov13replace_nodesERKSt10shared_ptrINS_5ModelEERKSt13unordered_mapIS0_INS_2op2v09ParameterEES9_St4hashIS9_ESt8equal_toIS9_ESaISt4pairIKS9_S9_EEERKS5_IS0_INS_4NodeEESM_SA_ISM_ESC_ISM_ESaISE_IKSM_SM_EEE
libopenvino.so.2420:_ZN2ov14CoordinateDiffC1ERKS0_
libopenvino.so.2420:_ZN2ov14CoordinateDiffC1ERKSt16initializer_listIlE
libopenvino.so.2420:_ZN2ov14CoordinateDiffC1ERKSt6vectorIlSaIlEE
libopenvino.so.2420:_ZN2ov14CoordinateDiffC1Eml
libopenvino.so.2420:_ZN2ov14CoordinateDiffC1Ev
libopenvino.so.2420:_ZN2ov14CoordinateDiffC2ERKS0_
libopenvino.so.2420:_ZN2ov14CoordinateDiffC2ERKSt16initializer_listIlE
libopenvino.so.2420:_ZN2ov14CoordinateDiffC2ERKSt6vectorIlSaIlEE
libopenvino.so.2420:_ZN2ov14CoordinateDiffC2Eml
libopenvino.so.2420:_ZN2ov14CoordinateDiffC2Ev
libopenvino.so.2420:_ZN2ov14CoordinateDiffD1Ev
libopenvino.so.2420:_ZN2ov14CoordinateDiffD2Ev
libopenvino.so.2420:_ZN2ov14CoordinateDiffaSEOS0_
libopenvino.so.2420:_ZN2ov14CoordinateDiffaSERKS0_
libopenvino.so.2420:_ZN2ov14DeviceIDParser16get_batch_deviceERKNSt7__cxx1112basic_stringIcSt11char_traitsIcESaIcEEE
libopenvino.so.2420:_ZN2ov14DeviceIDParser17get_multi_devicesERKNSt7__cxx1112basic_stringIcSt11char_traitsIcESaIcEEE
libopenvino.so.2420:_ZN2ov14DeviceIDParser18get_hetero_devicesERKNSt7__cxx1112basic_stringIcSt11char_traitsIcESaIcEEE
libopenvino.so.2420:_ZN2ov14DeviceIDParserC1ERKNSt7__cxx1112basic_stringIcSt11char_traitsIcESaIcEEE
libopenvino.so.2420:_ZN2ov14DeviceIDParserC2ERKNSt7__cxx1112basic_stringIcSt11char_traitsIcESaIcEEE
libopenvino.so.2420:_ZN2ov14ICompiledModel17set_task_executorESt10shared_ptrINS_9threading13ITaskExecutorEE
libopenvino.so.2420:_ZN2ov14ICompiledModel21set_callback_executorESt10shared_ptrINS_9threading13ITaskExecutorEE
libopenvino.so.2420:_ZN2ov14ICompiledModel23set_model_shared_objectERNS_5ModelERKSt10shared_ptrIvE
libopenvino.so.2420:_ZN2ov14ICompiledModelC1ERKSt10shared_ptrIKNS_5ModelEERKS1_IKNS_7IPluginEERKNS_5SoPtrINS_14IRemoteContextEEERKS1_INS_9threading13ITaskExecutorEESL_
libopenvino.so.2420:_ZN2ov14ICompiledModelC1ERKSt10shared_ptrIKNS_5ModelEERKS1_IKNS_7IPluginEERKS1_INS_9threading13ITaskExecutorEESG_
libopenvino.so.2420:_ZN2ov14ICompiledModelC2ERKSt10shared_ptrIKNS_5ModelEERKS1_IKNS_7IPluginEERKNS_5SoPtrINS_14IRemoteContextEEERKS1_INS_9threading13ITaskExecutorEESL_
libopenvino.so.2420:_ZN2ov14ICompiledModelC2ERKSt10shared_ptrIKNS_5ModelEERKS1_IKNS_7IPluginEERKS1_INS_9threading13ITaskExecutorEESG_
libopenvino.so.2420:_ZN2ov14IRemoteContext18create_host_tensorENS_7element4TypeERKNS_5ShapeE
libopenvino.so.2420:_ZN2ov14IVariableState5resetEv
libopenvino.so.2420:_ZN2ov14IVariableState9set_stateERKNS_5SoPtrINS_7ITensorEEE
libopenvino.so.2420:_ZN2ov14IVariableStateC1ERKNSt7__cxx1112basic_stringIcSt11char_traitsIcESaIcEEE
libopenvino.so.2420:_ZN2ov14IVariableStateC2ERKNSt7__cxx1112basic_stringIcSt11char_traitsIcESaIcEEE
libopenvino.so.2420:_ZN2ov14IVariableStateD0Ev
libopenvino.so.2420:_ZN2ov14IVariableStateD1Ev
libopenvino.so.2420:_ZN2ov14IVariableStateD2Ev
libopenvino.so.2420:_ZN2ov14NotImplemented6createEPKciRKNSt7__cxx1112basic_stringIcSt11char_traitsIcESaIcEEE
libopenvino.so.2420:_ZN2ov14OldApiMapOrder16visit_attributesERNS_16AttributeVisitorE
libopenvino.so.2420:_ZN2ov14as_node_vectorERKSt6vectorINS_6OutputINS_4NodeEEESaIS3_EE
libopenvino.so.2420:_ZN2ov14marked_as_biasERKSt10shared_ptrIKNS_4NodeEE
libopenvino.so.2420:_ZN2ov14traverse_nodesEPKNS_5ModelERKSt8functionIFvRKSt10shared_ptrINS_4NodeEEEE
libopenvino.so.2420:_ZN2ov14traverse_nodesERKSt10shared_ptrIKNS_5ModelEERKSt8functionIFvRKS0_INS_4NodeEEEE
libopenvino.so.2420:_ZN2ov14traverse_nodesERKSt6vectorISt10shared_ptrINS_4NodeEESaIS3_EERKSt8functionIFvRKS3_EES7_
libopenvino.so.2420:_ZN2ov15BaseOpExtensionD0Ev
libopenvino.so.2420:_ZN2ov15BaseOpExtensionD1Ev
libopenvino.so.2420:_ZN2ov15BaseOpExtensionD2Ev
libopenvino.so.2420:_ZN2ov15LayoutAttribute16visit_attributesERNS_16AttributeVisitorE
libopenvino.so.2420:_ZN2ov15could_propagateERKNS_6OutputINS_4NodeEEERSt6vectorIPS1_SaIS6_EE
libopenvino.so.2420:_ZN2ov15exec_model_info13ExecutionNode16visit_attributesERNS_16AttributeVisitorE
libopenvino.so.2420:_ZN2ov15exec_model_info13ExecutionNodeC1ERKSt6vectorINS_6OutputINS_4NodeEEESaIS5_EEm
libopenvino.so.2420:_ZN2ov15exec_model_info13ExecutionNodeC1Ev
libopenvino.so.2420:_ZN2ov15exec_model_info13ExecutionNodeC2ERKSt6vectorINS_6OutputINS_4NodeEEESaIS5_EEm
libopenvino.so.2420:_ZN2ov15exec_model_info13ExecutionNodeC2Ev
libopenvino.so.2420:_ZN2ov15get_num_socketsEv
libopenvino.so.2420:_ZN2ov15get_org_numa_idEi
libopenvino.so.2420:_ZN2ov15get_tensor_implERKNS_6TensorE
libopenvino.so.2420:_ZN2ov15is_sinking_nodeENS_6OutputINS_4NodeEEE
libopenvino.so.2420:_ZN2ov15is_sinking_nodeEPKNS_4NodeE
libopenvino.so.2420:_ZN2ov15is_sinking_nodeERKSt10shared_ptrINS_4NodeEE
libopenvino.so.2420:_ZN2ov16AttributeAdapterINS_2op17AutoBroadcastSpecEE16visit_attributesERNS_16AttributeVisitorE
libopenvino.so.2420:_ZN2ov16AttributeAdapterINS_2op17BroadcastModeSpecEE16visit_attributesERNS_16AttributeVisitorE
libopenvino.so.2420:_ZN2ov16AttributeAdapterINS_2op4util18FrameworkNodeAttrsEEC1ERS3_
libopenvino.so.2420:_ZN2ov16AttributeAdapterINS_2op4util18FrameworkNodeAttrsEEC2ERS3_
libopenvino.so.2420:_ZN2ov16AttributeAdapterINS_6LayoutEE3getB5cxx11Ev
libopenvino.so.2420:_ZN2ov16AttributeAdapterINS_6LayoutEE3setERKNSt7__cxx1112basic_stringIcSt11char_traitsIcESaIcEEE
libopenvino.so.2420:_ZN2ov16AttributeAdapterINS_7AxisSetEE3getEv
libopenvino.so.2420:_ZN2ov16AttributeAdapterINS_7AxisSetEE3setERKSt6vectorIlSaIlEE
libopenvino.so.2420:_ZN2ov16AttributeAdapterINS_7element4TypeEE3getB5cxx11Ev
libopenvino.so.2420:_ZN2ov16AttributeAdapterINS_7element4TypeEE3setERKNSt7__cxx1112basic_stringIcSt11char_traitsIcESaIcEEE
libopenvino.so.2420:_ZN2ov16AttributeAdapterISt10shared_ptrINS_13AlignedBufferEEEC1ERS3_
libopenvino.so.2420:_ZN2ov16AttributeAdapterISt10shared_ptrINS_13AlignedBufferEEEC2ERS3_
libopenvino.so.2420:_ZN2ov16AttributeAdapterISt10shared_ptrINS_19StringAlignedBufferEEE10get_headerERS1_IhERm
libopenvino.so.2420:_ZN2ov16AttributeAdapterISt10shared_ptrINS_19StringAlignedBufferEEE20unpack_string_tensorEPKcm
libopenvino.so.2420:_ZN2ov16AttributeAdapterISt10shared_ptrINS_19StringAlignedBufferEEE23get_raw_string_by_indexERPKcRmm
libopenvino.so.2420:_ZN2ov16AttributeAdapterISt10shared_ptrINS_19StringAlignedBufferEEEC1ERS3_
libopenvino.so.2420:_ZN2ov16AttributeAdapterISt10shared_ptrINS_19StringAlignedBufferEEEC2ERS3_
libopenvino.so.2420:_ZN2ov16AttributeAdapterISt10shared_ptrINS_25SharedStringAlignedBufferEEE10get_headerERS1_IhERm
libopenvino.so.2420:_ZN2ov16AttributeAdapterISt10shared_ptrINS_25SharedStringAlignedBufferEEE23get_raw_string_by_indexERPKcRmm
libopenvino.so.2420:_ZN2ov16AttributeAdapterISt10shared_ptrINS_25SharedStringAlignedBufferEEEC1ERS3_
libopenvino.so.2420:_ZN2ov16AttributeAdapterISt10shared_ptrINS_25SharedStringAlignedBufferEEEC2ERS3_
libopenvino.so.2420:_ZN2ov16AttributeAdapterISt10shared_ptrINS_4NodeEEE16visit_attributesERNS_16AttributeVisitorE
libopenvino.so.2420:_ZN2ov16AttributeAdapterISt10shared_ptrINS_4NodeEEEC1ERS3_
libopenvino.so.2420:_ZN2ov16AttributeAdapterISt10shared_ptrINS_4NodeEEEC2ERS3_
libopenvino.so.2420:_ZN2ov16AttributeAdapterISt6vectorISt10shared_ptrINS_2op2v06ResultEESaIS6_EEE16visit_attributesERNS_16AttributeVisitorE
libopenvino.so.2420:_ZN2ov16AttributeAdapterISt6vectorISt10shared_ptrINS_2op2v06ResultEESaIS6_EEEC1ERS8_
libopenvino.so.2420:_ZN2ov16AttributeAdapterISt6vectorISt10shared_ptrINS_2op2v06ResultEESaIS6_EEEC2ERS8_
libopenvino.so.2420:_ZN2ov16AttributeAdapterISt6vectorISt10shared_ptrINS_2op2v09ParameterEESaIS6_EEE16visit_attributesERNS_16AttributeVisitorE
libopenvino.so.2420:_ZN2ov16AttributeAdapterISt6vectorISt10shared_ptrINS_2op2v09ParameterEESaIS6_EEEC1ERS8_
libopenvino.so.2420:_ZN2ov16AttributeAdapterISt6vectorISt10shared_ptrINS_2op2v09ParameterEESaIS6_EEEC2ERS8_
libopenvino.so.2420:_ZN2ov16AttributeAdapterISt6vectorISt10shared_ptrINS_4NodeEESaIS4_EEE16visit_attributesERNS_16AttributeVisitorE
libopenvino.so.2420:_ZN2ov16AttributeAdapterISt6vectorISt10shared_ptrINS_4NodeEESaIS4_EEEC1ERS6_
libopenvino.so.2420:_ZN2ov16AttributeAdapterISt6vectorISt10shared_ptrINS_4NodeEESaIS4_EEEC2ERS6_
libopenvino.so.2420:_ZN2ov16AttributeVisitor10on_adapterERKNSt7__cxx1112basic_stringIcSt11char_traitsIcESaIcEEERNS_13ValueAccessorIPvEE
libopenvino.so.2420:_ZN2ov16AttributeVisitor10on_adapterERKNSt7__cxx1112basic_stringIcSt11char_traitsIcESaIcEEERNS_13ValueAccessorIS6_EE
libopenvino.so.2420:_ZN2ov16AttributeVisitor10on_adapterERKNSt7__cxx1112basic_stringIcSt11char_traitsIcESaIcEEERNS_13ValueAccessorISt10shared_ptrINS_5ModelEEEE
libopenvino.so.2420:_ZN2ov16AttributeVisitor10on_adapterERKNSt7__cxx1112basic_stringIcSt11char_traitsIcESaIcEEERNS_13ValueAccessorISt6vectorIS6_SaIS6_EEEE
libopenvino.so.2420:_ZN2ov16AttributeVisitor10on_adapterERKNSt7__cxx1112basic_stringIcSt11char_traitsIcESaIcEEERNS_13ValueAccessorISt6vectorIaSaIaEEEE
libopenvino.so.2420:_ZN2ov16AttributeVisitor10on_adapterERKNSt7__cxx1112basic_stringIcSt11char_traitsIcESaIcEEERNS_13ValueAccessorISt6vectorIdSaIdEEEE
libopenvino.so.2420:_ZN2ov16AttributeVisitor10on_adapterERKNSt7__cxx1112basic_stringIcSt11char_traitsIcESaIcEEERNS_13ValueAccessorISt6vectorIfSaIfEEEE
libopenvino.so.2420:_ZN2ov16AttributeVisitor10on_adapterERKNSt7__cxx1112basic_stringIcSt11char_traitsIcESaIcEEERNS_13ValueAccessorISt6vectorIhSaIhEEEE
libopenvino.so.2420:_ZN2ov16AttributeVisitor10on_adapterERKNSt7__cxx1112basic_stringIcSt11char_traitsIcESaIcEEERNS_13ValueAccessorISt6vectorIiSaIiEEEE
libopenvino.so.2420:_ZN2ov16AttributeVisitor10on_adapterERKNSt7__cxx1112basic_stringIcSt11char_traitsIcESaIcEEERNS_13ValueAccessorISt6vectorIjSaIjEEEE
libopenvino.so.2420:_ZN2ov16AttributeVisitor10on_adapterERKNSt7__cxx1112basic_stringIcSt11char_traitsIcESaIcEEERNS_13ValueAccessorISt6vectorIlSaIlEEEE
libopenvino.so.2420:_ZN2ov16AttributeVisitor10on_adapterERKNSt7__cxx1112basic_stringIcSt11char_traitsIcESaIcEEERNS_13ValueAccessorISt6vectorImSaImEEEE
libopenvino.so.2420:_ZN2ov16AttributeVisitor10on_adapterERKNSt7__cxx1112basic_stringIcSt11char_traitsIcESaIcEEERNS_13ValueAccessorISt6vectorIsSaIsEEEE
libopenvino.so.2420:_ZN2ov16AttributeVisitor10on_adapterERKNSt7__cxx1112basic_stringIcSt11char_traitsIcESaIcEEERNS_13ValueAccessorISt6vectorItSaItEEEE
libopenvino.so.2420:_ZN2ov16AttributeVisitor10on_adapterERKNSt7__cxx1112basic_stringIcSt11char_traitsIcESaIcEEERNS_13ValueAccessorIaEE
libopenvino.so.2420:_ZN2ov16AttributeVisitor10on_adapterERKNSt7__cxx1112basic_stringIcSt11char_traitsIcESaIcEEERNS_13ValueAccessorIbEE
libopenvino.so.2420:_ZN2ov16AttributeVisitor10on_adapterERKNSt7__cxx1112basic_stringIcSt11char_traitsIcESaIcEEERNS_13ValueAccessorIdEE
libopenvino.so.2420:_ZN2ov16AttributeVisitor10on_adapterERKNSt7__cxx1112basic_stringIcSt11char_traitsIcESaIcEEERNS_13ValueAccessorIfEE
libopenvino.so.2420:_ZN2ov16AttributeVisitor10on_adapterERKNSt7__cxx1112basic_stringIcSt11char_traitsIcESaIcEEERNS_13ValueAccessorIhEE
libopenvino.so.2420:_ZN2ov16AttributeVisitor10on_adapterERKNSt7__cxx1112basic_stringIcSt11char_traitsIcESaIcEEERNS_13ValueAccessorIiEE
libopenvino.so.2420:_ZN2ov16AttributeVisitor10on_adapterERKNSt7__cxx1112basic_stringIcSt11char_traitsIcESaIcEEERNS_13ValueAccessorIjEE
libopenvino.so.2420:_ZN2ov16AttributeVisitor10on_adapterERKNSt7__cxx1112basic_stringIcSt11char_traitsIcESaIcEEERNS_13ValueAccessorIlEE
libopenvino.so.2420:_ZN2ov16AttributeVisitor10on_adapterERKNSt7__cxx1112basic_stringIcSt11char_traitsIcESaIcEEERNS_13ValueAccessorImEE
libopenvino.so.2420:_ZN2ov16AttributeVisitor10on_adapterERKNSt7__cxx1112basic_stringIcSt11char_traitsIcESaIcEEERNS_13ValueAccessorIsEE
libopenvino.so.2420:_ZN2ov16AttributeVisitor10on_adapterERKNSt7__cxx1112basic_stringIcSt11char_traitsIcESaIcEEERNS_13ValueAccessorItEE
libopenvino.so.2420:_ZN2ov16AttributeVisitor10on_adapterERKNSt7__cxx1112basic_stringIcSt11char_traitsIcESaIcEEERNS_14VisitorAdapterE
libopenvino.so.2420:_ZN2ov16AttributeVisitor13register_nodeERKSt10shared_ptrINS_4NodeEENSt7__cxx1112basic_stringIcSt11char_traitsIcESaIcEEE
libopenvino.so.2420:_ZN2ov16AttributeVisitor15start_structureERKNSt7__cxx1112basic_stringIcSt11char_traitsIcESaIcEEE
libopenvino.so.2420:_ZN2ov16AttributeVisitor16finish_structureB5cxx11Ev
libopenvino.so.2420:_ZN2ov16AttributeVisitor19get_registered_nodeENSt7__cxx1112basic_stringIcSt11char_traitsIcESaIcEEE
libopenvino.so.2420:_ZN2ov16AttributeVisitor21get_name_with_contextB5cxx11Ev
libopenvino.so.2420:_ZN2ov16AttributeVisitor22get_registered_node_idB5cxx11ERKSt10shared_ptrINS_4NodeEE
libopenvino.so.2420:_ZN2ov16DiscreteTypeInfo4hashEv
libopenvino.so.2420:_ZN2ov16RuntimeAttribute16visit_attributesERNS_16AttributeVisitorE
libopenvino.so.2420:_ZN2ov16as_output_vectorERKSt6vectorISt10shared_ptrINS_4NodeEESaIS3_EE
libopenvino.so.2420:_ZN2ov16as_result_vectorERKSt6vectorINS_6OutputINS_4NodeEEESaIS3_EE
libopenvino.so.2420:_ZN2ov16get_strides_propERKNS_5InputINS_4NodeEEE
libopenvino.so.2420:_ZN2ov16has_strides_propERKNS_5InputINS_4NodeEEE
libopenvino.so.2420:_ZN2ov16is_decompressionERKSt10shared_ptrINS_4NodeEE
libopenvino.so.2420:_ZN2ov16with_cpu_x86_avxEv
libopenvino.so.2420:_ZN2ov17ISyncInferRequest10set_tensorERKNS_6OutputIKNS_4NodeEEERKNS_5SoPtrINS_7ITensorEEE
libopenvino.so.2420:_ZN2ov17ISyncInferRequest11set_tensorsERKNS_6OutputIKNS_4NodeEEERKSt6vectorINS_5SoPtrINS_7ITensorEEESaISA_EE
libopenvino.so.2420:_ZN2ov17ISyncInferRequest15allocate_tensorERKNS_6OutputIKNS_4NodeEEERKSt8functionIFvRNS_5SoPtrINS_7ITensorEEEEE
libopenvino.so.2420:_ZN2ov17ISyncInferRequest16set_tensors_implENS_6OutputIKNS_4NodeEEERKSt6vectorINS_5SoPtrINS_7ITensorEEESaIS8_EE
libopenvino.so.2420:_ZN2ov17ISyncInferRequest23convert_batched_tensorsEv
libopenvino.so.2420:_ZN2ov17ISyncInferRequestC1ERKSt10shared_ptrIKNS_14ICompiledModelEE
libopenvino.so.2420:_ZN2ov17ISyncInferRequestC2ERKSt10shared_ptrIKNS_14ICompiledModelEE
libopenvino.so.2420:_ZN2ov17compare_constantsERKSt10shared_ptrINS_4NodeEES4_
libopenvino.so.2420:_ZN2ov17copy_runtime_infoERKSt10shared_ptrINS_4NodeEES4_
libopenvino.so.2420:_ZN2ov17copy_runtime_infoERKSt10shared_ptrINS_4NodeEESt6vectorIS2_SaIS2_EE
libopenvino.so.2420:_ZN2ov17copy_runtime_infoERKSt6vectorISt10shared_ptrINS_4NodeEESaIS3_EERKS3_
libopenvino.so.2420:_ZN2ov17copy_runtime_infoERKSt6vectorISt10shared_ptrINS_4NodeEESaIS3_EES5_
libopenvino.so.2420:_ZN2ov17get_org_socket_idEi
libopenvino.so.2420:_ZN2ov17is_shape_subgraphERKSt10shared_ptrIKNS_4NodeEE
libopenvino.so.2420:_ZN2ov17skip_invalidationERKNS_10descriptor6TensorE
libopenvino.so.2420:_ZN2ov17skip_invalidationERKNS_6OutputINS_4NodeEEE
libopenvino.so.2420:_ZN2ov17with_cpu_x86_avx2Ev
libopenvino.so.2420:_ZN2ov18IAsyncInferRequest10set_tensorERKNS_6OutputIKNS_4NodeEEERKNS_5SoPtrINS_7ITensorEEE
libopenvino.so.2420:_ZN2ov18IAsyncInferRequest11set_tensorsERKNS_6OutputIKNS_4NodeEEERKSt6vectorINS_5SoPtrINS_7ITensorEEESaISA_EE
libopenvino.so.2420:_ZN2ov18IAsyncInferRequest11start_asyncEv
libopenvino.so.2420:_ZN2ov18IAsyncInferRequest12set_callbackESt8functionIFvNSt15__exception_ptr13exception_ptrEEE
libopenvino.so.2420:_ZN2ov18IAsyncInferRequest13stop_and_waitEv
libopenvino.so.2420:_ZN2ov18IAsyncInferRequest15run_first_stageEN9__gnu_cxx17__normal_iteratorIPSt4pairISt10shared_ptrINS_9threading13ITaskExecutorEESt8functionIFvvEEESt6vectorISB_SaISB_EEEESG_S7_
libopenvino.so.2420:_ZN2ov18IAsyncInferRequest19infer_thread_unsafeEv
libopenvino.so.2420:_ZN2ov18IAsyncInferRequest20make_next_stage_taskEN9__gnu_cxx17__normal_iteratorIPSt4pairISt10shared_ptrINS_9threading13ITaskExecutorEESt8functionIFvvEEESt6vectorISB_SaISB_EEEESG_S7_
libopenvino.so.2420:_ZN2ov18IAsyncInferRequest25start_async_thread_unsafeEv
libopenvino.so.2420:_ZN2ov18IAsyncInferRequest4waitEv
libopenvino.so.2420:_ZN2ov18IAsyncInferRequest5inferEv
libopenvino.so.2420:_ZN2ov18IAsyncInferRequest6cancelEv
libopenvino.so.2420:_ZN2ov18IAsyncInferRequest8wait_forERKNSt6chrono8durationIlSt5ratioILl1ELl1000EEEE
libopenvino.so.2420:_ZN2ov18IAsyncInferRequestC1ERKSt10shared_ptrINS_13IInferRequestEERKS1_INS_9threading13ITaskExecutorEESA_
libopenvino.so.2420:_ZN2ov18IAsyncInferRequestC2ERKSt10shared_ptrINS_13IInferRequestEERKS1_INS_9threading13ITaskExecutorEESA_
libopenvino.so.2420:_ZN2ov18IAsyncInferRequestD0Ev
libopenvino.so.2420:_ZN2ov18IAsyncInferRequestD1Ev
libopenvino.so.2420:_ZN2ov18IAsyncInferRequestD2Ev
libopenvino.so.2420:_ZN2ov18PrimitivesPriority16visit_attributesERNS_16AttributeVisitorE
libopenvino.so.2420:_ZN2ov18get_num_numa_nodesEv
libopenvino.so.2420:_ZN2ov18with_cpu_x86_sse42Ev
libopenvino.so.2420:_ZN2ov19PrecisionsAttribute16merge_attributesERSt6vectorINS_3AnyESaIS2_EE
libopenvino.so.2420:_ZN2ov19PrecisionsAttribute6createERKSt10shared_ptrINS_4NodeEERK19AttributeParameters
libopenvino.so.2420:_ZN2ov19PrecisionsAttributeC1ERKSt6vectorINS_7element4TypeESaIS3_EE
libopenvino.so.2420:_ZN2ov19PrecisionsAttributeC2ERKSt6vectorINS_7element4TypeESaIS3_EE
libopenvino.so.2420:_ZN2ov19StringAlignedBufferC1Emmmb
libopenvino.so.2420:_ZN2ov19StringAlignedBufferC2Emmmb
libopenvino.so.2420:_ZN2ov19StringAlignedBufferD0Ev
libopenvino.so.2420:_ZN2ov19StringAlignedBufferD1Ev
libopenvino.so.2420:_ZN2ov19StringAlignedBufferD2Ev
libopenvino.so.2420:_ZN2ov19getFusedNamesVectorB5cxx11ERKSt10shared_ptrINS_4NodeEE
libopenvino.so.2420:_ZN2ov19get_proc_type_tableEv
libopenvino.so.2420:_ZN2ov19get_supported_nodesB5cxx11ERKSt10shared_ptrIKNS_5ModelEESt8functionIFvRS0_IS1_EEES6_IFbS0_INS_4NodeEEEEf
libopenvino.so.2420:_ZN2ov19insert_strides_propERNS_5InputINS_4NodeEEERKNS_7StridesE
libopenvino.so.2420:_ZN2ov19mark_shape_subgraphERKSt10shared_ptrINS_4NodeEE
libopenvino.so.2420:_ZN2ov19remove_strides_propERNS_5InputINS_4NodeEEE
libopenvino.so.2420:_ZN2ov20OldApiMapElementType16visit_attributesERNS_16AttributeVisitorE
libopenvino.so.2420:_ZN2ov20check_new_args_countEPKNS_4NodeERKSt6vectorINS_6OutputIS0_EESaIS5_EE
libopenvino.so.2420:_ZN2ov20evaluate_both_boundsERKNS_6OutputINS_4NodeEEE
libopenvino.so.2420:_ZN2ov20evaluate_lower_boundERKNS_6OutputINS_4NodeEEE
libopenvino.so.2420:_ZN2ov20evaluate_upper_boundERKNS_6OutputINS_4NodeEEE
libopenvino.so.2420:_ZN2ov20get_available_opsetsB5cxx11Ev
libopenvino.so.2420:_ZN2ov20is_cpu_map_availableEv
libopenvino.so.2420:_ZN2ov20is_preprocesing_nodeERKSt10shared_ptrINS_4NodeEE
libopenvino.so.2420:_ZN2ov20with_cpu_x86_avx512fEv
libopenvino.so.2420:_ZN2ov21NodeValidationFailure6createEPKciS2_PKNS_4NodeERKNSt7__cxx1112basic_stringIcSt11char_traitsIcESaIcEEE
libopenvino.so.2420:_ZN2ov21NodeValidationFailure6createINS_12PartialShapeEEEvPKciS4_OSt4pairIPKNS_4NodeEPKSt6vectorIT_SaISA_EEERKNSt7__cxx1112basic_stringIcSt11char_traitsIcESaIcEEE
libopenvino.so.2420:_ZN2ov21getPrimitivesPriorityB5cxx11ERKSt10shared_ptrINS_4NodeEE
libopenvino.so.2420:_ZN2ov21get_current_socket_idEv
libopenvino.so.2420:_ZN2ov21mark_as_decompressionERKSt10shared_ptrINS_4NodeEE
libopenvino.so.2420:_ZN2ov21unmark_shape_subgraphERKSt10shared_ptrINS_4NodeEE
libopenvino.so.2420:_ZN2ov21with_cpu_x86_bfloat16Ev
libopenvino.so.2420:_ZN2ov22check_open_mp_env_varsEb
libopenvino.so.2420:_ZN2ov22get_original_precisionERKSt10shared_ptrINS_4NodeEE
libopenvino.so.2420:_ZN2ov22is_dequantization_nodeERKSt10shared_ptrINS_4NodeEE
libopenvino.so.2420:_ZN2ov22is_precision_sensitiveERKNS_5InputINS_4NodeEEE
libopenvino.so.2420:_ZN2ov22reserve_available_cpusESt6vectorIS0_IiSaIiEESaIS2_EERS4_i
libopenvino.so.2420:_ZN2ov22with_cpu_x86_avx2_vnniEv
libopenvino.so.2420:_ZN2ov23enable_fp16_compressionERKSt10shared_ptrINS_4NodeEE
libopenvino.so.2420:_ZN2ov23get_number_of_cpu_coresEb
libopenvino.so.2420:_ZN2ov23get_org_proc_type_tableEv
libopenvino.so.2420:_ZN2ov23get_socket_by_numa_nodeEi
libopenvino.so.2420:_ZN2ov23is_keep_const_precisionERKSt10shared_ptrIKNS_4NodeEE
libopenvino.so.2420:_ZN2ov23mark_as_no_sinking_nodeERKSt10shared_ptrINS_4NodeEE
libopenvino.so.2420:_ZN2ov23unmark_as_decompressionERKSt10shared_ptrINS_4NodeEE
libopenvino.so.2420:_ZN2ov24copy_output_runtime_infoERKSt6vectorINS_6OutputINS_4NodeEEESaIS3_EES5_
libopenvino.so.2420:_ZN2ov24disable_fp16_compressionERKSt10shared_ptrINS_4NodeEE
libopenvino.so.2420:_ZN2ov24divide_is_nonconvertibleERKSt10shared_ptrINS_4NodeEE
libopenvino.so.2420:_ZN2ov24enable_divide_conversionERKSt10shared_ptrINS_4NodeEE
libopenvino.so.2420:_ZN2ov24get_available_numa_nodesEv
libopenvino.so.2420:_ZN2ov24has_nms_selected_indicesEPKNS_4NodeE
libopenvino.so.2420:_ZN2ov24replace_node_update_nameERKSt10shared_ptrINS_4NodeEES4_
libopenvino.so.2420:_ZN2ov24set_nms_selected_indicesEPNS_4NodeE
libopenvino.so.2420:_ZN2ov24with_cpu_x86_avx512_coreEv
libopenvino.so.2420:_ZN2ov25SharedStringAlignedBufferC1EPcm
libopenvino.so.2420:_ZN2ov25SharedStringAlignedBufferC2EPcm
libopenvino.so.2420:_ZN2ov25SharedStringAlignedBufferD0Ev
libopenvino.so.2420:_ZN2ov25SharedStringAlignedBufferD1Ev
libopenvino.so.2420:_ZN2ov25SharedStringAlignedBufferD2Ev
libopenvino.so.2420:_ZN2ov25disable_divide_conversionERKSt10shared_ptrINS_4NodeEE
libopenvino.so.2420:_ZN2ov25get_available_cores_typesEv
libopenvino.so.2420:_ZN2ov25postpone_fp16_compressionERSt3mapINSt7__cxx1112basic_stringIcSt11char_traitsIcESaIcEEENS_3AnyESt4lessIS6_ESaISt4pairIKS6_S7_EEE
libopenvino.so.2420:_ZN2ov25set_is_preprocessing_nodeESt10shared_ptrINS_4NodeEE
libopenvino.so.2420:_ZN2ov26replace_output_update_nameENS_6OutputINS_4NodeEEERKS2_
libopenvino.so.2420:_ZN2ov26reset_no_sinking_attributeERKSt10shared_ptrINS_4NodeEE
libopenvino.so.2420:_ZN2ov27IntervalsAlignmentAttribute16merge_attributesERSt6vectorINS_3AnyESaIS2_EE
libopenvino.so.2420:_ZN2ov27IntervalsAlignmentAttribute6createERKSt10shared_ptrINS_4NodeEERK19AttributeParameters
libopenvino.so.2420:_ZN2ov27IntervalsAlignmentAttributeC1ENS_29IntervalsAlignmentSharedValue8IntervalEm
libopenvino.so.2420:_ZN2ov27IntervalsAlignmentAttributeC1ENS_29IntervalsAlignmentSharedValue8IntervalEmS2_m
libopenvino.so.2420:_ZN2ov27IntervalsAlignmentAttributeC2ENS_29IntervalsAlignmentSharedValue8IntervalEm
libopenvino.so.2420:_ZN2ov27IntervalsAlignmentAttributeC2ENS_29IntervalsAlignmentSharedValue8IntervalEmS2_m
libopenvino.so.2420:_ZN2ov27PrecisionPreservedAttributeC1Eb
libopenvino.so.2420:_ZN2ov27PrecisionPreservedAttributeC2Eb
libopenvino.so.2420:_ZN2ov27enable_keep_const_precisionERKSt10shared_ptrINS_4NodeEE
libopenvino.so.2420:_ZN2ov27get_number_of_blocked_coresEv
libopenvino.so.2420:_ZN2ov27mark_as_dequantization_nodeERKSt10shared_ptrINS_4NodeEE
libopenvino.so.2420:_ZN2ov27mark_as_precision_sensitiveENS_5InputINS_4NodeEEE
libopenvino.so.2420:_ZN2ov28disable_keep_const_precisionERKSt10shared_ptrINS_4NodeEE
libopenvino.so.2420:_ZN2ov28fp16_compression_is_disabledERKSt10shared_ptrIKNS_4NodeEE
libopenvino.so.2420:_ZN2ov28remove_skip_invalidation_rtiERKSt10shared_ptrINS_5ModelEEb
libopenvino.so.2420:_ZN2ov28with_cpu_x86_avx512_core_amxEv
libopenvino.so.2420:_ZN2ov29is_fp16_compression_postponedERKSt3mapINSt7__cxx1112basic_stringIcSt11char_traitsIcESaIcEEENS_3AnyESt4lessIS6_ESaISt4pairIKS6_S7_EEE
libopenvino.so.2420:_ZN2ov29unmark_as_precision_sensitiveENS_5InputINS_4NodeEEE
libopenvino.so.2420:_ZN2ov29with_cpu_x86_avx512_core_fp16Ev
libopenvino.so.2420:_ZN2ov29with_cpu_x86_avx512_core_vnniEv
libopenvino.so.2420:_ZN2ov2op15TypeRelaxedBase24restore_input_data_typesERNS_4NodeERKSt6vectorINS_7element4TypeESaIS6_EE
libopenvino.so.2420:_ZN2ov2op15TypeRelaxedBase25remember_input_data_typesERNS_4NodeERSt6vectorINS_7element4TypeESaIS6_EE
libopenvino.so.2420:_ZN2ov2op15TypeRelaxedBaseD0Ev
libopenvino.so.2420:_ZN2ov2op15TypeRelaxedBaseD1Ev
libopenvino.so.2420:_ZN2ov2op15TypeRelaxedBaseD2Ev
libopenvino.so.2420:_ZN2ov2op17reset_input_typesERKSt13unordered_mapImSt4pairINS_6TensorES3_ESt4hashImESt8equal_toImESaIS2_IKmS4_EEERSt6vectorINS_6OutputINS_4NodeEEESaISI_EE
libopenvino.so.2420:_ZN2ov2op19convert_input_typesERSt6vectorINS_6OutputINS_4NodeEEESaIS4_EERKS1_INS_7element4TypeESaIS9_EE
libopenvino.so.2420:_ZN2ov2op23PagedAttentionExtension24validate_and_infer_typesEv
libopenvino.so.2420:_ZN2ov2op23PagedAttentionExtensionC1ERKSt6vectorINS_6OutputINS_4NodeEEESaIS5_EE
libopenvino.so.2420:_ZN2ov2op23PagedAttentionExtensionC2ERKSt6vectorINS_6OutputINS_4NodeEEESaIS5_EE
libopenvino.so.2420:_ZN2ov2op26TemporaryReplaceOutputTypeC1ENS_6OutputINS_4NodeEEENS_7element4TypeE
libopenvino.so.2420:_ZN2ov2op26TemporaryReplaceOutputTypeC2ENS_6OutputINS_4NodeEEENS_7element4TypeE
libopenvino.so.2420:_ZN2ov2op26TemporaryReplaceOutputTypeD1Ev
libopenvino.so.2420:_ZN2ov2op26TemporaryReplaceOutputTypeD2Ev
libopenvino.so.2420:_ZN2ov2op28convert_outputs_to_fake_typeERSt6vectorINS_6TensorESaIS2_EES5_b
libopenvino.so.2420:_ZN2ov2op2OpC1ERKSt6vectorINS_6OutputINS_4NodeEEESaIS5_EE
libopenvino.so.2420:_ZN2ov2op2OpC2ERKSt6vectorINS_6OutputINS_4NodeEEESaIS5_EE
libopenvino.so.2420:_ZN2ov2op2v010ROIPooling10set_methodENSt7__cxx1112basic_stringIcSt11char_traitsIcESaIcEEE
libopenvino.so.2420:_ZN2ov2op2v010ROIPooling14set_output_roiENS_5ShapeE
libopenvino.so.2420:_ZN2ov2op2v010ROIPooling16visit_attributesERNS_16AttributeVisitorE
libopenvino.so.2420:_ZN2ov2op2v010ROIPooling17set_spatial_scaleEf
libopenvino.so.2420:_ZN2ov2op2v010ROIPooling24validate_and_infer_typesEv
libopenvino.so.2420:_ZN2ov2op2v010ROIPoolingC1ERKNS_6OutputINS_4NodeEEES7_RKNS_5ShapeEfRKNSt7__cxx1112basic_stringIcSt11char_traitsIcESaIcEEE
libopenvino.so.2420:_ZN2ov2op2v010ROIPoolingC2ERKNS_6OutputINS_4NodeEEES7_RKNS_5ShapeEfRKNSt7__cxx1112basic_stringIcSt11char_traitsIcESaIcEEE
libopenvino.so.2420:_ZN2ov2op2v010RegionYolo16visit_attributesERNS_16AttributeVisitorE
libopenvino.so.2420:_ZN2ov2op2v010RegionYolo24validate_and_infer_typesEv
libopenvino.so.2420:_ZN2ov2op2v010RegionYoloC1ERKNS_6OutputINS_4NodeEEEmmmbRKSt6vectorIlSaIlEEiiRKS8_IfSaIfEE
libopenvino.so.2420:_ZN2ov2op2v010RegionYoloC2ERKNS_6OutputINS_4NodeEEEmmmbRKSt6vectorIlSaIlEEiiRKS8_IfSaIfEE
libopenvino.so.2420:_ZN2ov2op2v011HardSigmoid24validate_and_infer_typesEv
libopenvino.so.2420:_ZN2ov2op2v011HardSigmoidC1ERKNS_6OutputINS_4NodeEEES7_S7_
libopenvino.so.2420:_ZN2ov2op2v011HardSigmoidC1Ev
libopenvino.so.2420:_ZN2ov2op2v011HardSigmoidC2ERKNS_6OutputINS_4NodeEEES7_S7_
libopenvino.so.2420:_ZN2ov2op2v011HardSigmoidC2Ev
libopenvino.so.2420:_ZN2ov2op2v011Interpolate16visit_attributesERNS_16AttributeVisitorE
libopenvino.so.2420:_ZN2ov2op2v011Interpolate24validate_and_infer_typesEv
libopenvino.so.2420:_ZN2ov2op2v011Interpolate9set_attrsENS2_10AttributesE
libopenvino.so.2420:_ZN2ov2op2v011InterpolateC1ERKNS_6OutputINS_4NodeEEES7_RKNS2_10AttributesE
libopenvino.so.2420:_ZN2ov2op2v011InterpolateC2ERKNS_6OutputINS_4NodeEEES7_RKNS2_10AttributesE
libopenvino.so.2420:_ZN2ov2op2v011NormalizeL216visit_attributesERNS_16AttributeVisitorE
libopenvino.so.2420:_ZN2ov2op2v011NormalizeL224validate_and_infer_typesEv
libopenvino.so.2420:_ZN2ov2op2v011NormalizeL2C1ERKNS_6OutputINS_4NodeEEES7_fNS0_7EpsModeE
libopenvino.so.2420:_ZN2ov2op2v011NormalizeL2C2ERKNS_6OutputINS_4NodeEEES7_fNS0_7EpsModeE
libopenvino.so.2420:_ZN2ov2op2v012DepthToSpace14set_block_sizeEm
libopenvino.so.2420:_ZN2ov2op2v012DepthToSpace16visit_attributesERNS_16AttributeVisitorE
libopenvino.so.2420:_ZN2ov2op2v012DepthToSpace24validate_and_infer_typesEv
libopenvino.so.2420:_ZN2ov2op2v012DepthToSpace8set_modeENS2_16DepthToSpaceModeE
libopenvino.so.2420:_ZN2ov2op2v012DepthToSpaceC1ERKNS_6OutputINS_4NodeEEERKNS2_16DepthToSpaceModeEm
libopenvino.so.2420:_ZN2ov2op2v012DepthToSpaceC1ERKNS_6OutputINS_4NodeEEERKNSt7__cxx1112basic_stringIcSt11char_traitsIcESaIcEEEm
libopenvino.so.2420:_ZN2ov2op2v012DepthToSpaceC2ERKNS_6OutputINS_4NodeEEERKNS2_16DepthToSpaceModeEm
libopenvino.so.2420:_ZN2ov2op2v012DepthToSpaceC2ERKNS_6OutputINS_4NodeEEERKNSt7__cxx1112basic_stringIcSt11char_traitsIcESaIcEEEm
libopenvino.so.2420:_ZN2ov2op2v012FakeQuantize16visit_attributesERNS_16AttributeVisitorE
libopenvino.so.2420:_ZN2ov2op2v012FakeQuantize24validate_and_infer_typesEv
libopenvino.so.2420:_ZN2ov2op2v012FakeQuantizeC1ERKNS_6OutputINS_4NodeEEES7_S7_S7_S7_mRKNS0_17AutoBroadcastSpecE
libopenvino.so.2420:_ZN2ov2op2v012FakeQuantizeC1Ev
libopenvino.so.2420:_ZN2ov2op2v012FakeQuantizeC2ERKNS_6OutputINS_4NodeEEES7_S7_S7_S7_mRKNS0_17AutoBroadcastSpecE
libopenvino.so.2420:_ZN2ov2op2v012FakeQuantizeC2Ev
libopenvino.so.2420:_ZN2ov2op2v012LSTMSequence16visit_attributesERNS_16AttributeVisitorE
libopenvino.so.2420:_ZN2ov2op2v012LSTMSequence24validate_and_infer_typesEv
libopenvino.so.2420:_ZN2ov2op2v012LSTMSequenceC1ERKNS_6OutputINS_4NodeEEES7_S7_S7_S7_S7_S7_S7_lNS0_26RecurrentSequenceDirectionENS0_17LSTMWeightsFormatESt6vectorIfSaIfEESC_SA_INSt7__cxx1112basic_stringIcSt11char_traitsIcESaIcEEESaISI_EEfb
libopenvino.so.2420:_ZN2ov2op2v012LSTMSequenceC1ERKNS_6OutputINS_4NodeEEES7_S7_S7_S7_S7_S7_lNS0_26RecurrentSequenceDirectionENS0_17LSTMWeightsFormatERKSt6vectorIfSaIfEESE_RKSA_INSt7__cxx1112basic_stringIcSt11char_traitsIcESaIcEEESaISK_EEfb
libopenvino.so.2420:_ZN2ov2op2v012LSTMSequenceC2ERKNS_6OutputINS_4NodeEEES7_S7_S7_S7_S7_S7_S7_lNS0_26RecurrentSequenceDirectionENS0_17LSTMWeightsFormatESt6vectorIfSaIfEESC_SA_INSt7__cxx1112basic_stringIcSt11char_traitsIcESaIcEEESaISI_EEfb
libopenvino.so.2420:_ZN2ov2op2v012LSTMSequenceC2ERKNS_6OutputINS_4NodeEEES7_S7_S7_S7_S7_S7_lNS0_26RecurrentSequenceDirectionENS0_17LSTMWeightsFormatERKSt6vectorIfSaIfEESE_RKSA_INSt7__cxx1112basic_stringIcSt11char_traitsIcESaIcEEESaISK_EEfb
libopenvino.so.2420:_ZN2ov2op2v012PSROIPooling14set_group_sizeEm
libopenvino.so.2420:_ZN2ov2op2v012PSROIPooling14set_output_dimEm
libopenvino.so.2420:_ZN2ov2op2v012PSROIPooling16visit_attributesERNS_16AttributeVisitorE
libopenvino.so.2420:_ZN2ov2op2v012PSROIPooling17set_spatial_scaleEf
libopenvino.so.2420:_ZN2ov2op2v012PSROIPooling18set_spatial_bins_xEi
libopenvino.so.2420:_ZN2ov2op2v012PSROIPooling18set_spatial_bins_yEi
libopenvino.so.2420:_ZN2ov2op2v012PSROIPooling24validate_and_infer_typesEv
libopenvino.so.2420:_ZN2ov2op2v012PSROIPooling8set_modeENSt7__cxx1112basic_stringIcSt11char_traitsIcESaIcEEE
libopenvino.so.2420:_ZN2ov2op2v012PSROIPoolingC1ERKNS_6OutputINS_4NodeEEES7_mmfiiRKNSt7__cxx1112basic_stringIcSt11char_traitsIcESaIcEEE
libopenvino.so.2420:_ZN2ov2op2v012PSROIPoolingC2ERKNS_6OutputINS_4NodeEEES7_mmfiiRKNSt7__cxx1112basic_stringIcSt11char_traitsIcESaIcEEE
libopenvino.so.2420:_ZN2ov2op2v012SpaceToDepth14set_block_sizeEm
libopenvino.so.2420:_ZN2ov2op2v012SpaceToDepth16visit_attributesERNS_16AttributeVisitorE
libopenvino.so.2420:_ZN2ov2op2v012SpaceToDepth24validate_and_infer_typesEv
libopenvino.so.2420:_ZN2ov2op2v012SpaceToDepth8set_modeENS2_16SpaceToDepthModeE
libopenvino.so.2420:_ZN2ov2op2v012SpaceToDepthC1ERKNS_6OutputINS_4NodeEEERKNS2_16SpaceToDepthModeEm
libopenvino.so.2420:_ZN2ov2op2v012SpaceToDepthC1ERKNS_6OutputINS_4NodeEEERKNSt7__cxx1112basic_stringIcSt11char_traitsIcESaIcEEEm
libopenvino.so.2420:_ZN2ov2op2v012SpaceToDepthC2ERKNS_6OutputINS_4NodeEEERKNS2_16SpaceToDepthModeEm
libopenvino.so.2420:_ZN2ov2op2v012SpaceToDepthC2ERKNS_6OutputINS_4NodeEEERKNSt7__cxx1112basic_stringIcSt11char_traitsIcESaIcEEEm
libopenvino.so.2420:_ZN2ov2op2v014TensorIterator16visit_attributesERNS_16AttributeVisitorE
libopenvino.so.2420:_ZN2ov2op2v014TensorIterator24validate_and_infer_typesEv
libopenvino.so.2420:_ZN2ov2op2v014TensorIterator39revalidate_and_infer_types_for_body_opsEv
libopenvino.so.2420:_ZN2ov2op2v014TensorIterator44try_to_set_num_iterations_if_no_slice_inputsEv
libopenvino.so.2420:_ZN2ov2op2v014TensorIteratorC1ERKSt6vectorINS_6OutputINS_4NodeEEESaIS6_EE
libopenvino.so.2420:_ZN2ov2op2v014TensorIteratorC2ERKSt6vectorINS_6OutputINS_4NodeEEESaIS6_EE
libopenvino.so.2420:_ZN2ov2op2v015DetectionOutput16visit_attributesERNS_16AttributeVisitorE
libopenvino.so.2420:_ZN2ov2op2v015DetectionOutput24validate_and_infer_typesEv
libopenvino.so.2420:_ZN2ov2op2v015DetectionOutputC1ERKNS_6OutputINS_4NodeEEES7_S7_RKNS2_10AttributesE
libopenvino.so.2420:_ZN2ov2op2v015DetectionOutputC1ERKNS_6OutputINS_4NodeEEES7_S7_S7_S7_RKNS2_10AttributesE
libopenvino.so.2420:_ZN2ov2op2v015DetectionOutputC2ERKNS_6OutputINS_4NodeEEES7_S7_RKNS2_10AttributesE
libopenvino.so.2420:_ZN2ov2op2v015DetectionOutputC2ERKNS_6OutputINS_4NodeEEES7_S7_S7_S7_RKNS2_10AttributesE
libopenvino.so.2420:_ZN2ov2op2v015ReverseSequence14set_batch_axisEl
libopenvino.so.2420:_ZN2ov2op2v015ReverseSequence16visit_attributesERNS_16AttributeVisitorE
libopenvino.so.2420:_ZN2ov2op2v015ReverseSequence17set_sequence_axisEl
libopenvino.so.2420:_ZN2ov2op2v015ReverseSequence24validate_and_infer_typesEv
libopenvino.so.2420:_ZN2ov2op2v015ReverseSequenceC1ERKNS_6OutputINS_4NodeEEES7_ll
libopenvino.so.2420:_ZN2ov2op2v015ReverseSequenceC2ERKNS_6OutputINS_4NodeEEES7_ll
libopenvino.so.2420:_ZN2ov2op2v015ShuffleChannels16visit_attributesERNS_16AttributeVisitorE
libopenvino.so.2420:_ZN2ov2op2v015ShuffleChannels24validate_and_infer_typesEv
libopenvino.so.2420:_ZN2ov2op2v015ShuffleChannels8set_axisEl
libopenvino.so.2420:_ZN2ov2op2v015ShuffleChannels9set_groupEl
libopenvino.so.2420:_ZN2ov2op2v015ShuffleChannelsC1ERKNS_6OutputINS_4NodeEEEll
libopenvino.so.2420:_ZN2ov2op2v015ShuffleChannelsC2ERKNS_6OutputINS_4NodeEEEll
libopenvino.so.2420:_ZN2ov2op2v016CTCGreedyDecoder16visit_attributesERNS_16AttributeVisitorE
libopenvino.so.2420:_ZN2ov2op2v016CTCGreedyDecoder24validate_and_infer_typesEv
libopenvino.so.2420:_ZN2ov2op2v016CTCGreedyDecoderC1ERKNS_6OutputINS_4NodeEEES7_b
libopenvino.so.2420:_ZN2ov2op2v016CTCGreedyDecoderC2ERKNS_6OutputINS_4NodeEEES7_b
libopenvino.so.2420:_ZN2ov2op2v017PriorBoxClustered16visit_attributesERNS_16AttributeVisitorE
libopenvino.so.2420:_ZN2ov2op2v017PriorBoxClustered24validate_and_infer_typesEv
libopenvino.so.2420:_ZN2ov2op2v017PriorBoxClustered9set_attrsENS2_10AttributesE
libopenvino.so.2420:_ZN2ov2op2v017PriorBoxClusteredC1ERKNS_6OutputINS_4NodeEEES7_RKNS2_10AttributesE
libopenvino.so.2420:_ZN2ov2op2v017PriorBoxClusteredC2ERKNS_6OutputINS_4NodeEEES7_RKNS2_10AttributesE
libopenvino.so.2420:_ZN2ov2op2v017SquaredDifferenceC1ERKNS_6OutputINS_4NodeEEES7_RKNS0_17AutoBroadcastSpecE
libopenvino.so.2420:_ZN2ov2op2v017SquaredDifferenceC2ERKNS_6OutputINS_4NodeEEES7_RKNS0_17AutoBroadcastSpecE
libopenvino.so.2420:_ZN2ov2op2v018BatchNormInference16visit_attributesERNS_16AttributeVisitorE
libopenvino.so.2420:_ZN2ov2op2v018BatchNormInference24validate_and_infer_typesEv
libopenvino.so.2420:_ZN2ov2op2v018BatchNormInferenceC1ERKNS_6OutputINS_4NodeEEES7_S7_S7_S7_d
libopenvino.so.2420:_ZN2ov2op2v018BatchNormInferenceC2ERKNS_6OutputINS_4NodeEEES7_S7_S7_S7_d
libopenvino.so.2420:_ZN2ov2op2v03AbsC1ERKNS_6OutputINS_4NodeEEE
libopenvino.so.2420:_ZN2ov2op2v03AbsC2ERKNS_6OutputINS_4NodeEEE
libopenvino.so.2420:_ZN2ov2op2v03Cos16visit_attributesERNS_16AttributeVisitorE
libopenvino.so.2420:_ZN2ov2op2v03CosC1ERKNS_6OutputINS_4NodeEEE
libopenvino.so.2420:_ZN2ov2op2v03CosC2ERKNS_6OutputINS_4NodeEEE
libopenvino.so.2420:_ZN2ov2op2v03Elu16visit_attributesERNS_16AttributeVisitorE
libopenvino.so.2420:_ZN2ov2op2v03Elu24validate_and_infer_typesEv
libopenvino.so.2420:_ZN2ov2op2v03EluC1ERKNS_6OutputINS_4NodeEEEd
libopenvino.so.2420:_ZN2ov2op2v03EluC2ERKNS_6OutputINS_4NodeEEEd
libopenvino.so.2420:_ZN2ov2op2v03ErfC1ERKNS_6OutputINS_4NodeEEE
libopenvino.so.2420:_ZN2ov2op2v03ErfC2ERKNS_6OutputINS_4NodeEEE
libopenvino.so.2420:_ZN2ov2op2v03ExpC1ERKNS_6OutputINS_4NodeEEE
libopenvino.so.2420:_ZN2ov2op2v03ExpC2ERKNS_6OutputINS_4NodeEEE
libopenvino.so.2420:_ZN2ov2op2v03GRN16visit_attributesERNS_16AttributeVisitorE
libopenvino.so.2420:_ZN2ov2op2v03GRN24validate_and_infer_typesEv
libopenvino.so.2420:_ZN2ov2op2v03GRNC1ERKNS_6OutputINS_4NodeEEEf
libopenvino.so.2420:_ZN2ov2op2v03GRNC2ERKNS_6OutputINS_4NodeEEEf
libopenvino.so.2420:_ZN2ov2op2v03LRN16visit_attributesERNS_16AttributeVisitorE
libopenvino.so.2420:_ZN2ov2op2v03LRN24validate_and_infer_typesEv
libopenvino.so.2420:_ZN2ov2op2v03LRNC1ERKNS_6OutputINS_4NodeEEES7_dddm
libopenvino.so.2420:_ZN2ov2op2v03LRNC1ERKNS_6OutputINS_4NodeEEEdddm
libopenvino.so.2420:_ZN2ov2op2v03LRNC2ERKNS_6OutputINS_4NodeEEES7_dddm
libopenvino.so.2420:_ZN2ov2op2v03LRNC2ERKNS_6OutputINS_4NodeEEEdddm
libopenvino.so.2420:_ZN2ov2op2v03LogC1ERKNS_6OutputINS_4NodeEEE
libopenvino.so.2420:_ZN2ov2op2v03LogC2ERKNS_6OutputINS_4NodeEEE
libopenvino.so.2420:_ZN2ov2op2v03MVN16visit_attributesERNS_16AttributeVisitorE
libopenvino.so.2420:_ZN2ov2op2v03MVN24validate_and_infer_typesEv
libopenvino.so.2420:_ZN2ov2op2v03MVNC1ERKNS_6OutputINS_4NodeEEENS_7AxisSetEbd
libopenvino.so.2420:_ZN2ov2op2v03MVNC1ERKNS_6OutputINS_4NodeEEEbbd
libopenvino.so.2420:_ZN2ov2op2v03MVNC2ERKNS_6OutputINS_4NodeEEENS_7AxisSetEbd
libopenvino.so.2420:_ZN2ov2op2v03MVNC2ERKNS_6OutputINS_4NodeEEEbbd
libopenvino.so.2420:_ZN2ov2op2v03Sin16visit_attributesERNS_16AttributeVisitorE
libopenvino.so.2420:_ZN2ov2op2v03SinC1ERKNS_6OutputINS_4NodeEEE
libopenvino.so.2420:_ZN2ov2op2v03SinC2ERKNS_6OutputINS_4NodeEEE
libopenvino.so.2420:_ZN2ov2op2v03Tan16visit_attributesERNS_16AttributeVisitorE
libopenvino.so.2420:_ZN2ov2op2v03TanC1ERKNS_6OutputINS_4NodeEEE
libopenvino.so.2420:_ZN2ov2op2v03TanC2ERKNS_6OutputINS_4NodeEEE
libopenvino.so.2420:_ZN2ov2op2v03XorC1ERKNS_6OutputINS_4NodeEEES7_RKNS0_17AutoBroadcastSpecE
libopenvino.so.2420:_ZN2ov2op2v03XorC2ERKNS_6OutputINS_4NodeEEES7_RKNS0_17AutoBroadcastSpecE
libopenvino.so.2420:_ZN2ov2op2v04AcosC1ERKNS_6OutputINS_4NodeEEE
libopenvino.so.2420:_ZN2ov2op2v04AcosC2ERKNS_6OutputINS_4NodeEEE
libopenvino.so.2420:_ZN2ov2op2v04AsinC1ERKNS_6OutputINS_4NodeEEE
libopenvino.so.2420:_ZN2ov2op2v04AsinC2ERKNS_6OutputINS_4NodeEEE
libopenvino.so.2420:_ZN2ov2op2v04AtanC1ERKNS_6OutputINS_4NodeEEE
libopenvino.so.2420:_ZN2ov2op2v04AtanC2ERKNS_6OutputINS_4NodeEEE
libopenvino.so.2420:_ZN2ov2op2v04Cosh16visit_attributesERNS_16AttributeVisitorE
libopenvino.so.2420:_ZN2ov2op2v04CoshC1ERKNS_6OutputINS_4NodeEEE
libopenvino.so.2420:_ZN2ov2op2v04CoshC2ERKNS_6OutputINS_4NodeEEE
libopenvino.so.2420:_ZN2ov2op2v04Gelu24validate_and_infer_typesEv
libopenvino.so.2420:_ZN2ov2op2v04GeluC1ERKNS_6OutputINS_4NodeEEE
libopenvino.so.2420:_ZN2ov2op2v04GeluC1Ev
libopenvino.so.2420:_ZN2ov2op2v04GeluC2ERKNS_6OutputINS_4NodeEEE
libopenvino.so.2420:_ZN2ov2op2v04GeluC2Ev
libopenvino.so.2420:_ZN2ov2op2v04ReluC1ERKNS_6OutputINS_4NodeEEE
libopenvino.so.2420:_ZN2ov2op2v04ReluC2ERKNS_6OutputINS_4NodeEEE
libopenvino.so.2420:_ZN2ov2op2v04Selu24validate_and_infer_typesEv
libopenvino.so.2420:_ZN2ov2op2v04SeluC1ERKNS_6OutputINS_4NodeEEES7_S7_
libopenvino.so.2420:_ZN2ov2op2v04SeluC2ERKNS_6OutputINS_4NodeEEES7_S7_
libopenvino.so.2420:_ZN2ov2op2v04SignC1ERKNS_6OutputINS_4NodeEEE
libopenvino.so.2420:_ZN2ov2op2v04SignC2ERKNS_6OutputINS_4NodeEEE
libopenvino.so.2420:_ZN2ov2op2v04Sinh16visit_attributesERNS_16AttributeVisitorE
libopenvino.so.2420:_ZN2ov2op2v04SinhC1ERKNS_6OutputINS_4NodeEEE
libopenvino.so.2420:_ZN2ov2op2v04SinhC2ERKNS_6OutputINS_4NodeEEE
libopenvino.so.2420:_ZN2ov2op2v04SqrtC1ERKNS_6OutputINS_4NodeEEE
libopenvino.so.2420:_ZN2ov2op2v04SqrtC2ERKNS_6OutputINS_4NodeEEE
libopenvino.so.2420:_ZN2ov2op2v04Tanh16visit_attributesERNS_16AttributeVisitorE
libopenvino.so.2420:_ZN2ov2op2v04TanhC1ERKNS_6OutputINS_4NodeEEE
libopenvino.so.2420:_ZN2ov2op2v04TanhC2ERKNS_6OutputINS_4NodeEEE
libopenvino.so.2420:_ZN2ov2op2v04Tile24validate_and_infer_typesEv
libopenvino.so.2420:_ZN2ov2op2v04TileC1ERKNS_6OutputINS_4NodeEEES7_
libopenvino.so.2420:_ZN2ov2op2v04TileC2ERKNS_6OutputINS_4NodeEEES7_
libopenvino.so.2420:_ZN2ov2op2v05Clamp16visit_attributesERNS_16AttributeVisitorE
libopenvino.so.2420:_ZN2ov2op2v05Clamp24validate_and_infer_typesEv
libopenvino.so.2420:_ZN2ov2op2v05ClampC1ERKNS_6OutputINS_4NodeEEEdd
libopenvino.so.2420:_ZN2ov2op2v05ClampC2ERKNS_6OutputINS_4NodeEEEdd
libopenvino.so.2420:_ZN2ov2op2v05FloorC1ERKNS_6OutputINS_4NodeEEE
libopenvino.so.2420:_ZN2ov2op2v05FloorC2ERKNS_6OutputINS_4NodeEEE
libopenvino.so.2420:_ZN2ov2op2v05PRelu24validate_and_infer_typesEv
libopenvino.so.2420:_ZN2ov2op2v05PReluC1ERKNS_6OutputINS_4NodeEEES7_
libopenvino.so.2420:_ZN2ov2op2v05PReluC1Ev
libopenvino.so.2420:_ZN2ov2op2v05PReluC2ERKNS_6OutputINS_4NodeEEES7_
libopenvino.so.2420:_ZN2ov2op2v05PReluC2Ev
libopenvino.so.2420:_ZN2ov2op2v05Range16visit_attributesERNS_16AttributeVisitorE
libopenvino.so.2420:_ZN2ov2op2v05Range24validate_and_infer_typesEv
libopenvino.so.2420:_ZN2ov2op2v05RangeC1ERKNS_6OutputINS_4NodeEEES7_S7_
libopenvino.so.2420:_ZN2ov2op2v05RangeC2ERKNS_6OutputINS_4NodeEEES7_S7_
libopenvino.so.2420:_ZN2ov2op2v06Concat16visit_attributesERNS_16AttributeVisitorE
libopenvino.so.2420:_ZN2ov2op2v06Concat24validate_and_infer_typesEv
libopenvino.so.2420:_ZN2ov2op2v06ConcatC1ERKSt6vectorINS_6OutputINS_4NodeEEESaIS6_EEl
libopenvino.so.2420:_ZN2ov2op2v06ConcatC1ERKSt6vectorISt10shared_ptrINS_4NodeEESaIS6_EEl
libopenvino.so.2420:_ZN2ov2op2v06ConcatC2ERKSt6vectorINS_6OutputINS_4NodeEEESaIS6_EEl
libopenvino.so.2420:_ZN2ov2op2v06ConcatC2ERKSt6vectorISt10shared_ptrINS_4NodeEESaIS6_EEl
libopenvino.so.2420:_ZN2ov2op2v06CumSum16visit_attributesERNS_16AttributeVisitorE
libopenvino.so.2420:_ZN2ov2op2v06CumSum24validate_and_infer_typesEv
libopenvino.so.2420:_ZN2ov2op2v06CumSumC1ERKNS_6OutputINS_4NodeEEES7_bb
libopenvino.so.2420:_ZN2ov2op2v06CumSumC1ERKNS_6OutputINS_4NodeEEEbb
libopenvino.so.2420:_ZN2ov2op2v06CumSumC2ERKNS_6OutputINS_4NodeEEES7_bb
libopenvino.so.2420:_ZN2ov2op2v06CumSumC2ERKNS_6OutputINS_4NodeEEEbb
libopenvino.so.2420:_ZN2ov2op2v06MatMul16visit_attributesERNS_16AttributeVisitorE
libopenvino.so.2420:_ZN2ov2op2v06MatMul24validate_and_infer_typesEv
libopenvino.so.2420:_ZN2ov2op2v06MatMulC1ERKNS_6OutputINS_4NodeEEES7_RKbS9_
libopenvino.so.2420:_ZN2ov2op2v06MatMulC2ERKNS_6OutputINS_4NodeEEES7_RKbS9_
libopenvino.so.2420:_ZN2ov2op2v06Result10set_layoutERKNS_6LayoutE
libopenvino.so.2420:_ZN2ov2op2v06Result13constant_foldERSt6vectorINS_6OutputINS_4NodeEEESaIS6_EERKS8_
libopenvino.so.2420:_ZN2ov2op2v06Result24validate_and_infer_typesEv
libopenvino.so.2420:_ZN2ov2op2v06ResultC1ERKNS_6OutputINS_4NodeEEE
libopenvino.so.2420:_ZN2ov2op2v06ResultC2ERKNS_6OutputINS_4NodeEEE
libopenvino.so.2420:_ZN2ov2op2v07CeilingC1ERKNS_6OutputINS_4NodeEEE
libopenvino.so.2420:_ZN2ov2op2v07CeilingC2ERKNS_6OutputINS_4NodeEEE
libopenvino.so.2420:_ZN2ov2op2v07Convert16visit_attributesERNS_16AttributeVisitorE
libopenvino.so.2420:_ZN2ov2op2v07Convert24validate_and_infer_typesEv
libopenvino.so.2420:_ZN2ov2op2v07ConvertC1ERKNS_6OutputINS_4NodeEEERKNS_7element4TypeE
libopenvino.so.2420:_ZN2ov2op2v07ConvertC2ERKNS_6OutputINS_4NodeEEERKNS_7element4TypeE
libopenvino.so.2420:_ZN2ov2op2v07RNNCell16visit_attributesERNS_16AttributeVisitorE
libopenvino.so.2420:_ZN2ov2op2v07RNNCell24validate_and_infer_typesEv
libopenvino.so.2420:_ZN2ov2op2v07RNNCellC1ERKNS_6OutputINS_4NodeEEES7_S7_S7_S7_mRKSt6vectorINSt7__cxx1112basic_stringIcSt11char_traitsIcESaIcEEESaISE_EERKS8_IfSaIfEESM_f
libopenvino.so.2420:_ZN2ov2op2v07RNNCellC1ERKNS_6OutputINS_4NodeEEES7_S7_S7_mRKSt6vectorINSt7__cxx1112basic_stringIcSt11char_traitsIcESaIcEEESaISE_EERKS8_IfSaIfEESM_f
libopenvino.so.2420:_ZN2ov2op2v07RNNCellC1Ev
libopenvino.so.2420:_ZN2ov2op2v07RNNCellC2ERKNS_6OutputINS_4NodeEEES7_S7_S7_S7_mRKSt6vectorINSt7__cxx1112basic_stringIcSt11char_traitsIcESaIcEEESaISE_EERKS8_IfSaIfEESM_f
libopenvino.so.2420:_ZN2ov2op2v07RNNCellC2ERKNS_6OutputINS_4NodeEEES7_S7_S7_mRKSt6vectorINSt7__cxx1112basic_stringIcSt11char_traitsIcESaIcEEESaISE_EERKS8_IfSaIfEESM_f
libopenvino.so.2420:_ZN2ov2op2v07RNNCellC2Ev
libopenvino.so.2420:_ZN2ov2op2v07ShapeOf13constant_foldERSt6vectorINS_6OutputINS_4NodeEEESaIS6_EERKS8_
libopenvino.so.2420:_ZN2ov2op2v07ShapeOf24validate_and_infer_typesEv
libopenvino.so.2420:_ZN2ov2op2v07ShapeOfC1ERKNS_6OutputINS_4NodeEEE
libopenvino.so.2420:_ZN2ov2op2v07ShapeOfC2ERKNS_6OutputINS_4NodeEEE
libopenvino.so.2420:_ZN2ov2op2v07SigmoidC1ERKNS_6OutputINS_4NodeEEE
libopenvino.so.2420:_ZN2ov2op2v07SigmoidC2ERKNS_6OutputINS_4NodeEEE
libopenvino.so.2420:_ZN2ov2op2v07Squeeze13constant_foldERSt6vectorINS_6OutputINS_4NodeEEESaIS6_EERKS8_
libopenvino.so.2420:_ZN2ov2op2v07Squeeze24validate_and_infer_typesEv
libopenvino.so.2420:_ZN2ov2op2v07SqueezeC1ERKNS_6OutputINS_4NodeEEE
libopenvino.so.2420:_ZN2ov2op2v07SqueezeC1ERKNS_6OutputINS_4NodeEEES7_
libopenvino.so.2420:_ZN2ov2op2v07SqueezeC1Ev
libopenvino.so.2420:_ZN2ov2op2v07SqueezeC2ERKNS_6OutputINS_4NodeEEE
libopenvino.so.2420:_ZN2ov2op2v07SqueezeC2ERKNS_6OutputINS_4NodeEEES7_
libopenvino.so.2420:_ZN2ov2op2v07SqueezeC2Ev
libopenvino.so.2420:_ZN2ov2op2v08Constant12fill_lp_dataILNS_7element6Type_tE12ENS_11float8_e4m3EEEvRKT0_
libopenvino.so.2420:_ZN2ov2op2v08Constant12fill_lp_dataILNS_7element6Type_tE12ENS_11float8_e5m2EEEvRKT0_
libopenvino.so.2420:_ZN2ov2op2v08Constant12fill_lp_dataILNS_7element6Type_tE12ENS_7float16EEEvRKT0_
libopenvino.so.2420:_ZN2ov2op2v08Constant12fill_lp_dataILNS_7element6Type_tE12ENS_8bfloat16EEEvRKT0_
libopenvino.so.2420:_ZN2ov2op2v08Constant12fill_lp_dataILNS_7element6Type_tE12EaEEvRKT0_
libopenvino.so.2420:_ZN2ov2op2v08Constant12fill_lp_dataILNS_7element6Type_tE12EbEEvRKT0_
libopenvino.so.2420:_ZN2ov2op2v08Constant12fill_lp_dataILNS_7element6Type_tE12EcEEvRKT0_
libopenvino.so.2420:_ZN2ov2op2v08Constant12fill_lp_dataILNS_7element6Type_tE12EdEEvRKT0_
libopenvino.so.2420:_ZN2ov2op2v08Constant12fill_lp_dataILNS_7element6Type_tE12EfEEvRKT0_
libopenvino.so.2420:_ZN2ov2op2v08Constant12fill_lp_dataILNS_7element6Type_tE12EhEEvRKT0_
libopenvino.so.2420:_ZN2ov2op2v08Constant12fill_lp_dataILNS_7element6Type_tE12EiEEvRKT0_
libopenvino.so.2420:_ZN2ov2op2v08Constant12fill_lp_dataILNS_7element6Type_tE12EjEEvRKT0_
libopenvino.so.2420:_ZN2ov2op2v08Constant12fill_lp_dataILNS_7element6Type_tE12ElEEvRKT0_
libopenvino.so.2420:_ZN2ov2op2v08Constant12fill_lp_dataILNS_7element6Type_tE12EmEEvRKT0_
libopenvino.so.2420:_ZN2ov2op2v08Constant12fill_lp_dataILNS_7element6Type_tE12EsEEvRKT0_
libopenvino.so.2420:_ZN2ov2op2v08Constant12fill_lp_dataILNS_7element6Type_tE12EtEEvRKT0_
libopenvino.so.2420:_ZN2ov2op2v08Constant12fill_lp_dataILNS_7element6Type_tE12ExEEvRKT0_
libopenvino.so.2420:_ZN2ov2op2v08Constant12fill_lp_dataILNS_7element6Type_tE12EyEEvRKT0_
libopenvino.so.2420:_ZN2ov2op2v08Constant12fill_lp_dataILNS_7element6Type_tE13ENS_11float8_e4m3EEEvRKT0_
libopenvino.so.2420:_ZN2ov2op2v08Constant12fill_lp_dataILNS_7element6Type_tE13ENS_11float8_e5m2EEEvRKT0_
libopenvino.so.2420:_ZN2ov2op2v08Constant12fill_lp_dataILNS_7element6Type_tE13ENS_7float16EEEvRKT0_
libopenvino.so.2420:_ZN2ov2op2v08Constant12fill_lp_dataILNS_7element6Type_tE13ENS_8bfloat16EEEvRKT0_
libopenvino.so.2420:_ZN2ov2op2v08Constant12fill_lp_dataILNS_7element6Type_tE13EaEEvRKT0_
libopenvino.so.2420:_ZN2ov2op2v08Constant12fill_lp_dataILNS_7element6Type_tE13EbEEvRKT0_
libopenvino.so.2420:_ZN2ov2op2v08Constant12fill_lp_dataILNS_7element6Type_tE13EcEEvRKT0_
libopenvino.so.2420:_ZN2ov2op2v08Constant12fill_lp_dataILNS_7element6Type_tE13EdEEvRKT0_
libopenvino.so.2420:_ZN2ov2op2v08Constant12fill_lp_dataILNS_7element6Type_tE13EfEEvRKT0_
libopenvino.so.2420:_ZN2ov2op2v08Constant12fill_lp_dataILNS_7element6Type_tE13EhEEvRKT0_
libopenvino.so.2420:_ZN2ov2op2v08Constant12fill_lp_dataILNS_7element6Type_tE13EiEEvRKT0_
libopenvino.so.2420:_ZN2ov2op2v08Constant12fill_lp_dataILNS_7element6Type_tE13EjEEvRKT0_
libopenvino.so.2420:_ZN2ov2op2v08Constant12fill_lp_dataILNS_7element6Type_tE13ElEEvRKT0_
libopenvino.so.2420:_ZN2ov2op2v08Constant12fill_lp_dataILNS_7element6Type_tE13EmEEvRKT0_
libopenvino.so.2420:_ZN2ov2op2v08Constant12fill_lp_dataILNS_7element6Type_tE13EsEEvRKT0_
libopenvino.so.2420:_ZN2ov2op2v08Constant12fill_lp_dataILNS_7element6Type_tE13EtEEvRKT0_
libopenvino.so.2420:_ZN2ov2op2v08Constant12fill_lp_dataILNS_7element6Type_tE13ExEEvRKT0_
libopenvino.so.2420:_ZN2ov2op2v08Constant12fill_lp_dataILNS_7element6Type_tE13EyEEvRKT0_
libopenvino.so.2420:_ZN2ov2op2v08Constant12fill_lp_dataILNS_7element6Type_tE14ENS_11float8_e4m3EEEvRKT0_
libopenvino.so.2420:_ZN2ov2op2v08Constant12fill_lp_dataILNS_7element6Type_tE14ENS_11float8_e5m2EEEvRKT0_
libopenvino.so.2420:_ZN2ov2op2v08Constant12fill_lp_dataILNS_7element6Type_tE14ENS_7float16EEEvRKT0_
libopenvino.so.2420:_ZN2ov2op2v08Constant12fill_lp_dataILNS_7element6Type_tE14ENS_8bfloat16EEEvRKT0_
libopenvino.so.2420:_ZN2ov2op2v08Constant12fill_lp_dataILNS_7element6Type_tE14EaEEvRKT0_
libopenvino.so.2420:_ZN2ov2op2v08Constant12fill_lp_dataILNS_7element6Type_tE14EbEEvRKT0_
libopenvino.so.2420:_ZN2ov2op2v08Constant12fill_lp_dataILNS_7element6Type_tE14EcEEvRKT0_
libopenvino.so.2420:_ZN2ov2op2v08Constant12fill_lp_dataILNS_7element6Type_tE14EdEEvRKT0_
libopenvino.so.2420:_ZN2ov2op2v08Constant12fill_lp_dataILNS_7element6Type_tE14EfEEvRKT0_
libopenvino.so.2420:_ZN2ov2op2v08Constant12fill_lp_dataILNS_7element6Type_tE14EhEEvRKT0_
libopenvino.so.2420:_ZN2ov2op2v08Constant12fill_lp_dataILNS_7element6Type_tE14EiEEvRKT0_
libopenvino.so.2420:_ZN2ov2op2v08Constant12fill_lp_dataILNS_7element6Type_tE14EjEEvRKT0_
libopenvino.so.2420:_ZN2ov2op2v08Constant12fill_lp_dataILNS_7element6Type_tE14ElEEvRKT0_
libopenvino.so.2420:_ZN2ov2op2v08Constant12fill_lp_dataILNS_7element6Type_tE14EmEEvRKT0_
libopenvino.so.2420:_ZN2ov2op2v08Constant12fill_lp_dataILNS_7element6Type_tE14EsEEvRKT0_
libopenvino.so.2420:_ZN2ov2op2v08Constant12fill_lp_dataILNS_7element6Type_tE14EtEEvRKT0_
libopenvino.so.2420:_ZN2ov2op2v08Constant12fill_lp_dataILNS_7element6Type_tE14ExEEvRKT0_
libopenvino.so.2420:_ZN2ov2op2v08Constant12fill_lp_dataILNS_7element6Type_tE14EyEEvRKT0_
libopenvino.so.2420:_ZN2ov2op2v08Constant12fill_lp_dataILNS_7element6Type_tE15ENS_11float8_e4m3EEEvRKT0_
libopenvino.so.2420:_ZN2ov2op2v08Constant12fill_lp_dataILNS_7element6Type_tE15ENS_11float8_e5m2EEEvRKT0_
libopenvino.so.2420:_ZN2ov2op2v08Constant12fill_lp_dataILNS_7element6Type_tE15ENS_7float16EEEvRKT0_
libopenvino.so.2420:_ZN2ov2op2v08Constant12fill_lp_dataILNS_7element6Type_tE15ENS_8bfloat16EEEvRKT0_
libopenvino.so.2420:_ZN2ov2op2v08Constant12fill_lp_dataILNS_7element6Type_tE15EaEEvRKT0_
libopenvino.so.2420:_ZN2ov2op2v08Constant12fill_lp_dataILNS_7element6Type_tE15EbEEvRKT0_
libopenvino.so.2420:_ZN2ov2op2v08Constant12fill_lp_dataILNS_7element6Type_tE15EcEEvRKT0_
libopenvino.so.2420:_ZN2ov2op2v08Constant12fill_lp_dataILNS_7element6Type_tE15EdEEvRKT0_
libopenvino.so.2420:_ZN2ov2op2v08Constant12fill_lp_dataILNS_7element6Type_tE15EfEEvRKT0_
libopenvino.so.2420:_ZN2ov2op2v08Constant12fill_lp_dataILNS_7element6Type_tE15EhEEvRKT0_
libopenvino.so.2420:_ZN2ov2op2v08Constant12fill_lp_dataILNS_7element6Type_tE15EiEEvRKT0_
libopenvino.so.2420:_ZN2ov2op2v08Constant12fill_lp_dataILNS_7element6Type_tE15EjEEvRKT0_
libopenvino.so.2420:_ZN2ov2op2v08Constant12fill_lp_dataILNS_7element6Type_tE15ElEEvRKT0_
libopenvino.so.2420:_ZN2ov2op2v08Constant12fill_lp_dataILNS_7element6Type_tE15EmEEvRKT0_
libopenvino.so.2420:_ZN2ov2op2v08Constant12fill_lp_dataILNS_7element6Type_tE15EsEEvRKT0_
libopenvino.so.2420:_ZN2ov2op2v08Constant12fill_lp_dataILNS_7element6Type_tE15EtEEvRKT0_
libopenvino.so.2420:_ZN2ov2op2v08Constant12fill_lp_dataILNS_7element6Type_tE15ExEEvRKT0_
libopenvino.so.2420:_ZN2ov2op2v08Constant12fill_lp_dataILNS_7element6Type_tE15EyEEvRKT0_
libopenvino.so.2420:_ZN2ov2op2v08Constant12fill_lp_dataILNS_7element6Type_tE16ENS_11float8_e4m3EEEvRKT0_
libopenvino.so.2420:_ZN2ov2op2v08Constant12fill_lp_dataILNS_7element6Type_tE16ENS_11float8_e5m2EEEvRKT0_
libopenvino.so.2420:_ZN2ov2op2v08Constant12fill_lp_dataILNS_7element6Type_tE16ENS_7float16EEEvRKT0_
libopenvino.so.2420:_ZN2ov2op2v08Constant12fill_lp_dataILNS_7element6Type_tE16ENS_8bfloat16EEEvRKT0_
libopenvino.so.2420:_ZN2ov2op2v08Constant12fill_lp_dataILNS_7element6Type_tE16EaEEvRKT0_
libopenvino.so.2420:_ZN2ov2op2v08Constant12fill_lp_dataILNS_7element6Type_tE16EbEEvRKT0_
libopenvino.so.2420:_ZN2ov2op2v08Constant12fill_lp_dataILNS_7element6Type_tE16EcEEvRKT0_
libopenvino.so.2420:_ZN2ov2op2v08Constant12fill_lp_dataILNS_7element6Type_tE16EdEEvRKT0_
libopenvino.so.2420:_ZN2ov2op2v08Constant12fill_lp_dataILNS_7element6Type_tE16EfEEvRKT0_
libopenvino.so.2420:_ZN2ov2op2v08Constant12fill_lp_dataILNS_7element6Type_tE16EhEEvRKT0_
libopenvino.so.2420:_ZN2ov2op2v08Constant12fill_lp_dataILNS_7element6Type_tE16EiEEvRKT0_
libopenvino.so.2420:_ZN2ov2op2v08Constant12fill_lp_dataILNS_7element6Type_tE16EjEEvRKT0_
libopenvino.so.2420:_ZN2ov2op2v08Constant12fill_lp_dataILNS_7element6Type_tE16ElEEvRKT0_
libopenvino.so.2420:_ZN2ov2op2v08Constant12fill_lp_dataILNS_7element6Type_tE16EmEEvRKT0_
libopenvino.so.2420:_ZN2ov2op2v08Constant12fill_lp_dataILNS_7element6Type_tE16EsEEvRKT0_
libopenvino.so.2420:_ZN2ov2op2v08Constant12fill_lp_dataILNS_7element6Type_tE16EtEEvRKT0_
libopenvino.so.2420:_ZN2ov2op2v08Constant12fill_lp_dataILNS_7element6Type_tE16ExEEvRKT0_
libopenvino.so.2420:_ZN2ov2op2v08Constant12fill_lp_dataILNS_7element6Type_tE16EyEEvRKT0_
libopenvino.so.2420:_ZN2ov2op2v08Constant12fill_lp_dataILNS_7element6Type_tE21ENS_11float8_e4m3EEEvRKT0_
libopenvino.so.2420:_ZN2ov2op2v08Constant12fill_lp_dataILNS_7element6Type_tE21ENS_11float8_e5m2EEEvRKT0_
libopenvino.so.2420:_ZN2ov2op2v08Constant12fill_lp_dataILNS_7element6Type_tE21ENS_7float16EEEvRKT0_
libopenvino.so.2420:_ZN2ov2op2v08Constant12fill_lp_dataILNS_7element6Type_tE21ENS_8bfloat16EEEvRKT0_
libopenvino.so.2420:_ZN2ov2op2v08Constant12fill_lp_dataILNS_7element6Type_tE21EaEEvRKT0_
libopenvino.so.2420:_ZN2ov2op2v08Constant12fill_lp_dataILNS_7element6Type_tE21EbEEvRKT0_
libopenvino.so.2420:_ZN2ov2op2v08Constant12fill_lp_dataILNS_7element6Type_tE21EcEEvRKT0_
libopenvino.so.2420:_ZN2ov2op2v08Constant12fill_lp_dataILNS_7element6Type_tE21EdEEvRKT0_
libopenvino.so.2420:_ZN2ov2op2v08Constant12fill_lp_dataILNS_7element6Type_tE21EfEEvRKT0_
libopenvino.so.2420:_ZN2ov2op2v08Constant12fill_lp_dataILNS_7element6Type_tE21EhEEvRKT0_
libopenvino.so.2420:_ZN2ov2op2v08Constant12fill_lp_dataILNS_7element6Type_tE21EiEEvRKT0_
libopenvino.so.2420:_ZN2ov2op2v08Constant12fill_lp_dataILNS_7element6Type_tE21EjEEvRKT0_
libopenvino.so.2420:_ZN2ov2op2v08Constant12fill_lp_dataILNS_7element6Type_tE21ElEEvRKT0_
libopenvino.so.2420:_ZN2ov2op2v08Constant12fill_lp_dataILNS_7element6Type_tE21EmEEvRKT0_
libopenvino.so.2420:_ZN2ov2op2v08Constant12fill_lp_dataILNS_7element6Type_tE21EsEEvRKT0_
libopenvino.so.2420:_ZN2ov2op2v08Constant12fill_lp_dataILNS_7element6Type_tE21EtEEvRKT0_
libopenvino.so.2420:_ZN2ov2op2v08Constant12fill_lp_dataILNS_7element6Type_tE21ExEEvRKT0_
libopenvino.so.2420:_ZN2ov2op2v08Constant12fill_lp_dataILNS_7element6Type_tE21EyEEvRKT0_
libopenvino.so.2420:_ZN2ov2op2v08Constant12fill_lp_dataILNS_7element6Type_tE7ENS_11float8_e4m3EEEvRKT0_
libopenvino.so.2420:_ZN2ov2op2v08Constant12fill_lp_dataILNS_7element6Type_tE7ENS_11float8_e5m2EEEvRKT0_
libopenvino.so.2420:_ZN2ov2op2v08Constant12fill_lp_dataILNS_7element6Type_tE7ENS_7float16EEEvRKT0_
libopenvino.so.2420:_ZN2ov2op2v08Constant12fill_lp_dataILNS_7element6Type_tE7ENS_8bfloat16EEEvRKT0_
libopenvino.so.2420:_ZN2ov2op2v08Constant12fill_lp_dataILNS_7element6Type_tE7EaEEvRKT0_
libopenvino.so.2420:_ZN2ov2op2v08Constant12fill_lp_dataILNS_7element6Type_tE7EbEEvRKT0_
libopenvino.so.2420:_ZN2ov2op2v08Constant12fill_lp_dataILNS_7element6Type_tE7EcEEvRKT0_
libopenvino.so.2420:_ZN2ov2op2v08Constant12fill_lp_dataILNS_7element6Type_tE7EdEEvRKT0_
libopenvino.so.2420:_ZN2ov2op2v08Constant12fill_lp_dataILNS_7element6Type_tE7EfEEvRKT0_
libopenvino.so.2420:_ZN2ov2op2v08Constant12fill_lp_dataILNS_7element6Type_tE7EhEEvRKT0_
libopenvino.so.2420:_ZN2ov2op2v08Constant12fill_lp_dataILNS_7element6Type_tE7EiEEvRKT0_
libopenvino.so.2420:_ZN2ov2op2v08Constant12fill_lp_dataILNS_7element6Type_tE7EjEEvRKT0_
libopenvino.so.2420:_ZN2ov2op2v08Constant12fill_lp_dataILNS_7element6Type_tE7ElEEvRKT0_
libopenvino.so.2420:_ZN2ov2op2v08Constant12fill_lp_dataILNS_7element6Type_tE7EmEEvRKT0_
libopenvino.so.2420:_ZN2ov2op2v08Constant12fill_lp_dataILNS_7element6Type_tE7EsEEvRKT0_
libopenvino.so.2420:_ZN2ov2op2v08Constant12fill_lp_dataILNS_7element6Type_tE7EtEEvRKT0_
libopenvino.so.2420:_ZN2ov2op2v08Constant12fill_lp_dataILNS_7element6Type_tE7ExEEvRKT0_
libopenvino.so.2420:_ZN2ov2op2v08Constant12fill_lp_dataILNS_7element6Type_tE7EyEEvRKT0_
libopenvino.so.2420:_ZN2ov2op2v08Constant13constant_foldERSt6vectorINS_6OutputINS_4NodeEEESaIS6_EERKS8_
libopenvino.so.2420:_ZN2ov2op2v08Constant15allocate_bufferEb
libopenvino.so.2420:_ZN2ov2op2v08Constant15get_data_ptr_ncEv
libopenvino.so.2420:_ZN2ov2op2v08Constant15write_lp_bufferILNS_7element6Type_tE12ENS_11float8_e4m3EEEvRKSt6vectorIT0_SaIS8_EE
libopenvino.so.2420:_ZN2ov2op2v08Constant15write_lp_bufferILNS_7element6Type_tE12ENS_11float8_e5m2EEEvRKSt6vectorIT0_SaIS8_EE
libopenvino.so.2420:_ZN2ov2op2v08Constant15write_lp_bufferILNS_7element6Type_tE12ENS_7float16EEEvRKSt6vectorIT0_SaIS8_EE
libopenvino.so.2420:_ZN2ov2op2v08Constant15write_lp_bufferILNS_7element6Type_tE12ENS_8bfloat16EEEvRKSt6vectorIT0_SaIS8_EE
libopenvino.so.2420:_ZN2ov2op2v08Constant15write_lp_bufferILNS_7element6Type_tE12EaEEvRKSt6vectorIT0_SaIS7_EE
libopenvino.so.2420:_ZN2ov2op2v08Constant15write_lp_bufferILNS_7element6Type_tE12EbEEvRKSt6vectorIT0_SaIS7_EE
libopenvino.so.2420:_ZN2ov2op2v08Constant15write_lp_bufferILNS_7element6Type_tE12EcEEvRKSt6vectorIT0_SaIS7_EE
libopenvino.so.2420:_ZN2ov2op2v08Constant15write_lp_bufferILNS_7element6Type_tE12EdEEvRKSt6vectorIT0_SaIS7_EE
libopenvino.so.2420:_ZN2ov2op2v08Constant15write_lp_bufferILNS_7element6Type_tE12EfEEvRKSt6vectorIT0_SaIS7_EE
libopenvino.so.2420:_ZN2ov2op2v08Constant15write_lp_bufferILNS_7element6Type_tE12EhEEvRKSt6vectorIT0_SaIS7_EE
libopenvino.so.2420:_ZN2ov2op2v08Constant15write_lp_bufferILNS_7element6Type_tE12EiEEvRKSt6vectorIT0_SaIS7_EE
libopenvino.so.2420:_ZN2ov2op2v08Constant15write_lp_bufferILNS_7element6Type_tE12EjEEvRKSt6vectorIT0_SaIS7_EE
libopenvino.so.2420:_ZN2ov2op2v08Constant15write_lp_bufferILNS_7element6Type_tE12ElEEvRKSt6vectorIT0_SaIS7_EE
libopenvino.so.2420:_ZN2ov2op2v08Constant15write_lp_bufferILNS_7element6Type_tE12EmEEvRKSt6vectorIT0_SaIS7_EE
libopenvino.so.2420:_ZN2ov2op2v08Constant15write_lp_bufferILNS_7element6Type_tE12EsEEvRKSt6vectorIT0_SaIS7_EE
libopenvino.so.2420:_ZN2ov2op2v08Constant15write_lp_bufferILNS_7element6Type_tE12EtEEvRKSt6vectorIT0_SaIS7_EE
libopenvino.so.2420:_ZN2ov2op2v08Constant15write_lp_bufferILNS_7element6Type_tE12ExEEvRKSt6vectorIT0_SaIS7_EE
libopenvino.so.2420:_ZN2ov2op2v08Constant15write_lp_bufferILNS_7element6Type_tE12EyEEvRKSt6vectorIT0_SaIS7_EE
libopenvino.so.2420:_ZN2ov2op2v08Constant15write_lp_bufferILNS_7element6Type_tE13ENS_11float8_e4m3EEEvRKSt6vectorIT0_SaIS8_EE
libopenvino.so.2420:_ZN2ov2op2v08Constant15write_lp_bufferILNS_7element6Type_tE13ENS_11float8_e5m2EEEvRKSt6vectorIT0_SaIS8_EE
libopenvino.so.2420:_ZN2ov2op2v08Constant15write_lp_bufferILNS_7element6Type_tE13ENS_7float16EEEvRKSt6vectorIT0_SaIS8_EE
libopenvino.so.2420:_ZN2ov2op2v08Constant15write_lp_bufferILNS_7element6Type_tE13ENS_8bfloat16EEEvRKSt6vectorIT0_SaIS8_EE
libopenvino.so.2420:_ZN2ov2op2v08Constant15write_lp_bufferILNS_7element6Type_tE13EaEEvRKSt6vectorIT0_SaIS7_EE
libopenvino.so.2420:_ZN2ov2op2v08Constant15write_lp_bufferILNS_7element6Type_tE13EbEEvRKSt6vectorIT0_SaIS7_EE
libopenvino.so.2420:_ZN2ov2op2v08Constant15write_lp_bufferILNS_7element6Type_tE13EcEEvRKSt6vectorIT0_SaIS7_EE
libopenvino.so.2420:_ZN2ov2op2v08Constant15write_lp_bufferILNS_7element6Type_tE13EdEEvRKSt6vectorIT0_SaIS7_EE
libopenvino.so.2420:_ZN2ov2op2v08Constant15write_lp_bufferILNS_7element6Type_tE13EfEEvRKSt6vectorIT0_SaIS7_EE
libopenvino.so.2420:_ZN2ov2op2v08Constant15write_lp_bufferILNS_7element6Type_tE13EhEEvRKSt6vectorIT0_SaIS7_EE
libopenvino.so.2420:_ZN2ov2op2v08Constant15write_lp_bufferILNS_7element6Type_tE13EiEEvRKSt6vectorIT0_SaIS7_EE
libopenvino.so.2420:_ZN2ov2op2v08Constant15write_lp_bufferILNS_7element6Type_tE13EjEEvRKSt6vectorIT0_SaIS7_EE
libopenvino.so.2420:_ZN2ov2op2v08Constant15write_lp_bufferILNS_7element6Type_tE13ElEEvRKSt6vectorIT0_SaIS7_EE
libopenvino.so.2420:_ZN2ov2op2v08Constant15write_lp_bufferILNS_7element6Type_tE13EmEEvRKSt6vectorIT0_SaIS7_EE
libopenvino.so.2420:_ZN2ov2op2v08Constant15write_lp_bufferILNS_7element6Type_tE13EsEEvRKSt6vectorIT0_SaIS7_EE
libopenvino.so.2420:_ZN2ov2op2v08Constant15write_lp_bufferILNS_7element6Type_tE13EtEEvRKSt6vectorIT0_SaIS7_EE
libopenvino.so.2420:_ZN2ov2op2v08Constant15write_lp_bufferILNS_7element6Type_tE13ExEEvRKSt6vectorIT0_SaIS7_EE
libopenvino.so.2420:_ZN2ov2op2v08Constant15write_lp_bufferILNS_7element6Type_tE13EyEEvRKSt6vectorIT0_SaIS7_EE
libopenvino.so.2420:_ZN2ov2op2v08Constant15write_lp_bufferILNS_7element6Type_tE14ENS_11float8_e4m3EEEvRKSt6vectorIT0_SaIS8_EE
libopenvino.so.2420:_ZN2ov2op2v08Constant15write_lp_bufferILNS_7element6Type_tE14ENS_11float8_e5m2EEEvRKSt6vectorIT0_SaIS8_EE
libopenvino.so.2420:_ZN2ov2op2v08Constant15write_lp_bufferILNS_7element6Type_tE14ENS_7float16EEEvRKSt6vectorIT0_SaIS8_EE
libopenvino.so.2420:_ZN2ov2op2v08Constant15write_lp_bufferILNS_7element6Type_tE14ENS_8bfloat16EEEvRKSt6vectorIT0_SaIS8_EE
libopenvino.so.2420:_ZN2ov2op2v08Constant15write_lp_bufferILNS_7element6Type_tE14EaEEvRKSt6vectorIT0_SaIS7_EE
libopenvino.so.2420:_ZN2ov2op2v08Constant15write_lp_bufferILNS_7element6Type_tE14EbEEvRKSt6vectorIT0_SaIS7_EE
libopenvino.so.2420:_ZN2ov2op2v08Constant15write_lp_bufferILNS_7element6Type_tE14EcEEvRKSt6vectorIT0_SaIS7_EE
libopenvino.so.2420:_ZN2ov2op2v08Constant15write_lp_bufferILNS_7element6Type_tE14EdEEvRKSt6vectorIT0_SaIS7_EE
libopenvino.so.2420:_ZN2ov2op2v08Constant15write_lp_bufferILNS_7element6Type_tE14EfEEvRKSt6vectorIT0_SaIS7_EE
libopenvino.so.2420:_ZN2ov2op2v08Constant15write_lp_bufferILNS_7element6Type_tE14EhEEvRKSt6vectorIT0_SaIS7_EE
libopenvino.so.2420:_ZN2ov2op2v08Constant15write_lp_bufferILNS_7element6Type_tE14EiEEvRKSt6vectorIT0_SaIS7_EE
libopenvino.so.2420:_ZN2ov2op2v08Constant15write_lp_bufferILNS_7element6Type_tE14EjEEvRKSt6vectorIT0_SaIS7_EE
libopenvino.so.2420:_ZN2ov2op2v08Constant15write_lp_bufferILNS_7element6Type_tE14ElEEvRKSt6vectorIT0_SaIS7_EE
libopenvino.so.2420:_ZN2ov2op2v08Constant15write_lp_bufferILNS_7element6Type_tE14EmEEvRKSt6vectorIT0_SaIS7_EE
libopenvino.so.2420:_ZN2ov2op2v08Constant15write_lp_bufferILNS_7element6Type_tE14EsEEvRKSt6vectorIT0_SaIS7_EE
libopenvino.so.2420:_ZN2ov2op2v08Constant15write_lp_bufferILNS_7element6Type_tE14EtEEvRKSt6vectorIT0_SaIS7_EE
libopenvino.so.2420:_ZN2ov2op2v08Constant15write_lp_bufferILNS_7element6Type_tE14ExEEvRKSt6vectorIT0_SaIS7_EE
libopenvino.so.2420:_ZN2ov2op2v08Constant15write_lp_bufferILNS_7element6Type_tE14EyEEvRKSt6vectorIT0_SaIS7_EE
libopenvino.so.2420:_ZN2ov2op2v08Constant15write_lp_bufferILNS_7element6Type_tE15ENS_11float8_e4m3EEEvRKSt6vectorIT0_SaIS8_EE
libopenvino.so.2420:_ZN2ov2op2v08Constant15write_lp_bufferILNS_7element6Type_tE15ENS_11float8_e5m2EEEvRKSt6vectorIT0_SaIS8_EE
libopenvino.so.2420:_ZN2ov2op2v08Constant15write_lp_bufferILNS_7element6Type_tE15ENS_7float16EEEvRKSt6vectorIT0_SaIS8_EE
libopenvino.so.2420:_ZN2ov2op2v08Constant15write_lp_bufferILNS_7element6Type_tE15ENS_8bfloat16EEEvRKSt6vectorIT0_SaIS8_EE
libopenvino.so.2420:_ZN2ov2op2v08Constant15write_lp_bufferILNS_7element6Type_tE15EaEEvRKSt6vectorIT0_SaIS7_EE
libopenvino.so.2420:_ZN2ov2op2v08Constant15write_lp_bufferILNS_7element6Type_tE15EbEEvRKSt6vectorIT0_SaIS7_EE
libopenvino.so.2420:_ZN2ov2op2v08Constant15write_lp_bufferILNS_7element6Type_tE15EcEEvRKSt6vectorIT0_SaIS7_EE
libopenvino.so.2420:_ZN2ov2op2v08Constant15write_lp_bufferILNS_7element6Type_tE15EdEEvRKSt6vectorIT0_SaIS7_EE
libopenvino.so.2420:_ZN2ov2op2v08Constant15write_lp_bufferILNS_7element6Type_tE15EfEEvRKSt6vectorIT0_SaIS7_EE
libopenvino.so.2420:_ZN2ov2op2v08Constant15write_lp_bufferILNS_7element6Type_tE15EhEEvRKSt6vectorIT0_SaIS7_EE
libopenvino.so.2420:_ZN2ov2op2v08Constant15write_lp_bufferILNS_7element6Type_tE15EiEEvRKSt6vectorIT0_SaIS7_EE
libopenvino.so.2420:_ZN2ov2op2v08Constant15write_lp_bufferILNS_7element6Type_tE15EjEEvRKSt6vectorIT0_SaIS7_EE
libopenvino.so.2420:_ZN2ov2op2v08Constant15write_lp_bufferILNS_7element6Type_tE15ElEEvRKSt6vectorIT0_SaIS7_EE
libopenvino.so.2420:_ZN2ov2op2v08Constant15write_lp_bufferILNS_7element6Type_tE15EmEEvRKSt6vectorIT0_SaIS7_EE
libopenvino.so.2420:_ZN2ov2op2v08Constant15write_lp_bufferILNS_7element6Type_tE15EsEEvRKSt6vectorIT0_SaIS7_EE
libopenvino.so.2420:_ZN2ov2op2v08Constant15write_lp_bufferILNS_7element6Type_tE15EtEEvRKSt6vectorIT0_SaIS7_EE
libopenvino.so.2420:_ZN2ov2op2v08Constant15write_lp_bufferILNS_7element6Type_tE15ExEEvRKSt6vectorIT0_SaIS7_EE
libopenvino.so.2420:_ZN2ov2op2v08Constant15write_lp_bufferILNS_7element6Type_tE15EyEEvRKSt6vectorIT0_SaIS7_EE
libopenvino.so.2420:_ZN2ov2op2v08Constant15write_lp_bufferILNS_7element6Type_tE16ENS_11float8_e4m3EEEvRKSt6vectorIT0_SaIS8_EE
libopenvino.so.2420:_ZN2ov2op2v08Constant15write_lp_bufferILNS_7element6Type_tE16ENS_11float8_e5m2EEEvRKSt6vectorIT0_SaIS8_EE
libopenvino.so.2420:_ZN2ov2op2v08Constant15write_lp_bufferILNS_7element6Type_tE16ENS_7float16EEEvRKSt6vectorIT0_SaIS8_EE
libopenvino.so.2420:_ZN2ov2op2v08Constant15write_lp_bufferILNS_7element6Type_tE16ENS_8bfloat16EEEvRKSt6vectorIT0_SaIS8_EE
libopenvino.so.2420:_ZN2ov2op2v08Constant15write_lp_bufferILNS_7element6Type_tE16EaEEvRKSt6vectorIT0_SaIS7_EE
libopenvino.so.2420:_ZN2ov2op2v08Constant15write_lp_bufferILNS_7element6Type_tE16EbEEvRKSt6vectorIT0_SaIS7_EE
libopenvino.so.2420:_ZN2ov2op2v08Constant15write_lp_bufferILNS_7element6Type_tE16EcEEvRKSt6vectorIT0_SaIS7_EE
libopenvino.so.2420:_ZN2ov2op2v08Constant15write_lp_bufferILNS_7element6Type_tE16EdEEvRKSt6vectorIT0_SaIS7_EE
libopenvino.so.2420:_ZN2ov2op2v08Constant15write_lp_bufferILNS_7element6Type_tE16EfEEvRKSt6vectorIT0_SaIS7_EE
libopenvino.so.2420:_ZN2ov2op2v08Constant15write_lp_bufferILNS_7element6Type_tE16EhEEvRKSt6vectorIT0_SaIS7_EE
libopenvino.so.2420:_ZN2ov2op2v08Constant15write_lp_bufferILNS_7element6Type_tE16EiEEvRKSt6vectorIT0_SaIS7_EE
libopenvino.so.2420:_ZN2ov2op2v08Constant15write_lp_bufferILNS_7element6Type_tE16EjEEvRKSt6vectorIT0_SaIS7_EE
libopenvino.so.2420:_ZN2ov2op2v08Constant15write_lp_bufferILNS_7element6Type_tE16ElEEvRKSt6vectorIT0_SaIS7_EE
libopenvino.so.2420:_ZN2ov2op2v08Constant15write_lp_bufferILNS_7element6Type_tE16EmEEvRKSt6vectorIT0_SaIS7_EE
libopenvino.so.2420:_ZN2ov2op2v08Constant15write_lp_bufferILNS_7element6Type_tE16EsEEvRKSt6vectorIT0_SaIS7_EE
libopenvino.so.2420:_ZN2ov2op2v08Constant15write_lp_bufferILNS_7element6Type_tE16EtEEvRKSt6vectorIT0_SaIS7_EE
libopenvino.so.2420:_ZN2ov2op2v08Constant15write_lp_bufferILNS_7element6Type_tE16ExEEvRKSt6vectorIT0_SaIS7_EE
libopenvino.so.2420:_ZN2ov2op2v08Constant15write_lp_bufferILNS_7element6Type_tE16EyEEvRKSt6vectorIT0_SaIS7_EE
libopenvino.so.2420:_ZN2ov2op2v08Constant15write_lp_bufferILNS_7element6Type_tE21ENS_11float8_e4m3EEEvRKSt6vectorIT0_SaIS8_EE
libopenvino.so.2420:_ZN2ov2op2v08Constant15write_lp_bufferILNS_7element6Type_tE21ENS_11float8_e5m2EEEvRKSt6vectorIT0_SaIS8_EE
libopenvino.so.2420:_ZN2ov2op2v08Constant15write_lp_bufferILNS_7element6Type_tE21ENS_7float16EEEvRKSt6vectorIT0_SaIS8_EE
libopenvino.so.2420:_ZN2ov2op2v08Constant15write_lp_bufferILNS_7element6Type_tE21ENS_8bfloat16EEEvRKSt6vectorIT0_SaIS8_EE
libopenvino.so.2420:_ZN2ov2op2v08Constant15write_lp_bufferILNS_7element6Type_tE21EaEEvRKSt6vectorIT0_SaIS7_EE
libopenvino.so.2420:_ZN2ov2op2v08Constant15write_lp_bufferILNS_7element6Type_tE21EbEEvRKSt6vectorIT0_SaIS7_EE
libopenvino.so.2420:_ZN2ov2op2v08Constant15write_lp_bufferILNS_7element6Type_tE21EcEEvRKSt6vectorIT0_SaIS7_EE
libopenvino.so.2420:_ZN2ov2op2v08Constant15write_lp_bufferILNS_7element6Type_tE21EdEEvRKSt6vectorIT0_SaIS7_EE
libopenvino.so.2420:_ZN2ov2op2v08Constant15write_lp_bufferILNS_7element6Type_tE21EfEEvRKSt6vectorIT0_SaIS7_EE
libopenvino.so.2420:_ZN2ov2op2v08Constant15write_lp_bufferILNS_7element6Type_tE21EhEEvRKSt6vectorIT0_SaIS7_EE
libopenvino.so.2420:_ZN2ov2op2v08Constant15write_lp_bufferILNS_7element6Type_tE21EiEEvRKSt6vectorIT0_SaIS7_EE
libopenvino.so.2420:_ZN2ov2op2v08Constant15write_lp_bufferILNS_7element6Type_tE21EjEEvRKSt6vectorIT0_SaIS7_EE
libopenvino.so.2420:_ZN2ov2op2v08Constant15write_lp_bufferILNS_7element6Type_tE21ElEEvRKSt6vectorIT0_SaIS7_EE
libopenvino.so.2420:_ZN2ov2op2v08Constant15write_lp_bufferILNS_7element6Type_tE21EmEEvRKSt6vectorIT0_SaIS7_EE
libopenvino.so.2420:_ZN2ov2op2v08Constant15write_lp_bufferILNS_7element6Type_tE21EsEEvRKSt6vectorIT0_SaIS7_EE
libopenvino.so.2420:_ZN2ov2op2v08Constant15write_lp_bufferILNS_7element6Type_tE21EtEEvRKSt6vectorIT0_SaIS7_EE
libopenvino.so.2420:_ZN2ov2op2v08Constant15write_lp_bufferILNS_7element6Type_tE21ExEEvRKSt6vectorIT0_SaIS7_EE
libopenvino.so.2420:_ZN2ov2op2v08Constant15write_lp_bufferILNS_7element6Type_tE21EyEEvRKSt6vectorIT0_SaIS7_EE
libopenvino.so.2420:_ZN2ov2op2v08Constant15write_lp_bufferILNS_7element6Type_tE7ENS_11float8_e4m3EEEvRKSt6vectorIT0_SaIS8_EE
libopenvino.so.2420:_ZN2ov2op2v08Constant15write_lp_bufferILNS_7element6Type_tE7ENS_11float8_e5m2EEEvRKSt6vectorIT0_SaIS8_EE
libopenvino.so.2420:_ZN2ov2op2v08Constant15write_lp_bufferILNS_7element6Type_tE7ENS_7float16EEEvRKSt6vectorIT0_SaIS8_EE
libopenvino.so.2420:_ZN2ov2op2v08Constant15write_lp_bufferILNS_7element6Type_tE7ENS_8bfloat16EEEvRKSt6vectorIT0_SaIS8_EE
libopenvino.so.2420:_ZN2ov2op2v08Constant15write_lp_bufferILNS_7element6Type_tE7EaEEvRKSt6vectorIT0_SaIS7_EE
libopenvino.so.2420:_ZN2ov2op2v08Constant15write_lp_bufferILNS_7element6Type_tE7EbEEvRKSt6vectorIT0_SaIS7_EE
libopenvino.so.2420:_ZN2ov2op2v08Constant15write_lp_bufferILNS_7element6Type_tE7EcEEvRKSt6vectorIT0_SaIS7_EE
libopenvino.so.2420:_ZN2ov2op2v08Constant15write_lp_bufferILNS_7element6Type_tE7EdEEvRKSt6vectorIT0_SaIS7_EE
libopenvino.so.2420:_ZN2ov2op2v08Constant15write_lp_bufferILNS_7element6Type_tE7EfEEvRKSt6vectorIT0_SaIS7_EE
libopenvino.so.2420:_ZN2ov2op2v08Constant15write_lp_bufferILNS_7element6Type_tE7EhEEvRKSt6vectorIT0_SaIS7_EE
libopenvino.so.2420:_ZN2ov2op2v08Constant15write_lp_bufferILNS_7element6Type_tE7EiEEvRKSt6vectorIT0_SaIS7_EE
libopenvino.so.2420:_ZN2ov2op2v08Constant15write_lp_bufferILNS_7element6Type_tE7EjEEvRKSt6vectorIT0_SaIS7_EE
libopenvino.so.2420:_ZN2ov2op2v08Constant15write_lp_bufferILNS_7element6Type_tE7ElEEvRKSt6vectorIT0_SaIS7_EE
libopenvino.so.2420:_ZN2ov2op2v08Constant15write_lp_bufferILNS_7element6Type_tE7EmEEvRKSt6vectorIT0_SaIS7_EE
libopenvino.so.2420:_ZN2ov2op2v08Constant15write_lp_bufferILNS_7element6Type_tE7EsEEvRKSt6vectorIT0_SaIS7_EE
libopenvino.so.2420:_ZN2ov2op2v08Constant15write_lp_bufferILNS_7element6Type_tE7EtEEvRKSt6vectorIT0_SaIS7_EE
libopenvino.so.2420:_ZN2ov2op2v08Constant15write_lp_bufferILNS_7element6Type_tE7ExEEvRKSt6vectorIT0_SaIS7_EE
libopenvino.so.2420:_ZN2ov2op2v08Constant15write_lp_bufferILNS_7element6Type_tE7EyEEvRKSt6vectorIT0_SaIS7_EE
libopenvino.so.2420:_ZN2ov2op2v08Constant16visit_attributesERNS_16AttributeVisitorE
libopenvino.so.2420:_ZN2ov2op2v08Constant24validate_and_infer_typesEv
libopenvino.so.2420:_ZN2ov2op2v08Constant32alloc_buffer_on_visit_attributesEb
libopenvino.so.2420:_ZN2ov2op2v08Constant8LPBufferILNS_7element6Type_tE12EE5writeEf
libopenvino.so.2420:_ZN2ov2op2v08Constant8LPBufferILNS_7element6Type_tE12EEC1EPv
libopenvino.so.2420:_ZN2ov2op2v08Constant8LPBufferILNS_7element6Type_tE12EEC2EPv
libopenvino.so.2420:_ZN2ov2op2v08Constant8LPBufferILNS_7element6Type_tE12EEppEv
libopenvino.so.2420:_ZN2ov2op2v08Constant8LPBufferILNS_7element6Type_tE13EE5writeEf
libopenvino.so.2420:_ZN2ov2op2v08Constant8LPBufferILNS_7element6Type_tE13EEC1EPv
libopenvino.so.2420:_ZN2ov2op2v08Constant8LPBufferILNS_7element6Type_tE13EEC2EPv
libopenvino.so.2420:_ZN2ov2op2v08Constant8LPBufferILNS_7element6Type_tE13EEppEv
libopenvino.so.2420:_ZN2ov2op2v08Constant8LPBufferILNS_7element6Type_tE14EE5writeEf
libopenvino.so.2420:_ZN2ov2op2v08Constant8LPBufferILNS_7element6Type_tE14EEC1EPv
libopenvino.so.2420:_ZN2ov2op2v08Constant8LPBufferILNS_7element6Type_tE14EEC2EPv
libopenvino.so.2420:_ZN2ov2op2v08Constant8LPBufferILNS_7element6Type_tE14EEppEv
libopenvino.so.2420:_ZN2ov2op2v08Constant8LPBufferILNS_7element6Type_tE15EE5writeEf
libopenvino.so.2420:_ZN2ov2op2v08Constant8LPBufferILNS_7element6Type_tE15EEC1EPv
libopenvino.so.2420:_ZN2ov2op2v08Constant8LPBufferILNS_7element6Type_tE15EEC2EPv
libopenvino.so.2420:_ZN2ov2op2v08Constant8LPBufferILNS_7element6Type_tE15EEppEv
libopenvino.so.2420:_ZN2ov2op2v08Constant8LPBufferILNS_7element6Type_tE16EE5writeEf
libopenvino.so.2420:_ZN2ov2op2v08Constant8LPBufferILNS_7element6Type_tE16EEC1EPv
libopenvino.so.2420:_ZN2ov2op2v08Constant8LPBufferILNS_7element6Type_tE16EEC2EPv
libopenvino.so.2420:_ZN2ov2op2v08Constant8LPBufferILNS_7element6Type_tE16EEppEv
libopenvino.so.2420:_ZN2ov2op2v08Constant8LPBufferILNS_7element6Type_tE21EE5writeEf
libopenvino.so.2420:_ZN2ov2op2v08Constant8LPBufferILNS_7element6Type_tE21EEC1EPv
libopenvino.so.2420:_ZN2ov2op2v08Constant8LPBufferILNS_7element6Type_tE21EEC2EPv
libopenvino.so.2420:_ZN2ov2op2v08Constant8LPBufferILNS_7element6Type_tE21EEppEv
libopenvino.so.2420:_ZN2ov2op2v08Constant8LPBufferILNS_7element6Type_tE7EE5writeEf
libopenvino.so.2420:_ZN2ov2op2v08Constant8LPBufferILNS_7element6Type_tE7EEC1EPv
libopenvino.so.2420:_ZN2ov2op2v08Constant8LPBufferILNS_7element6Type_tE7EEC2EPv
libopenvino.so.2420:_ZN2ov2op2v08Constant8LPBufferILNS_7element6Type_tE7EEppEv
libopenvino.so.2420:_ZN2ov2op2v08ConstantC1ERKNS_6TensorE
libopenvino.so.2420:_ZN2ov2op2v08ConstantC1ERKNS_7element4TypeERKNS_5ShapeE
libopenvino.so.2420:_ZN2ov2op2v08ConstantC1ERKNS_7element4TypeERKNS_5ShapeEPKv
libopenvino.so.2420:_ZN2ov2op2v08ConstantC1ERKNS_7element4TypeERKNS_5ShapeERKSt10shared_ptrINS_13AlignedBufferEE
libopenvino.so.2420:_ZN2ov2op2v08ConstantC1ERKNS_7element4TypeERKNS_5ShapeERKSt6vectorINSt7__cxx1112basic_stringIcSt11char_traitsIcESaIcEEESaISG_EE
libopenvino.so.2420:_ZN2ov2op2v08ConstantC1ERKS2_
libopenvino.so.2420:_ZN2ov2op2v08ConstantC1ERKS2_RKNS_5ShapeE
libopenvino.so.2420:_ZN2ov2op2v08ConstantC1EbRKNS_7element4TypeERKNS_5ShapeE
libopenvino.so.2420:_ZN2ov2op2v08ConstantC2ERKNS_6TensorE
libopenvino.so.2420:_ZN2ov2op2v08ConstantC2ERKNS_7element4TypeERKNS_5ShapeE
libopenvino.so.2420:_ZN2ov2op2v08ConstantC2ERKNS_7element4TypeERKNS_5ShapeEPKv
libopenvino.so.2420:_ZN2ov2op2v08ConstantC2ERKNS_7element4TypeERKNS_5ShapeERKSt10shared_ptrINS_13AlignedBufferEE
libopenvino.so.2420:_ZN2ov2op2v08ConstantC2ERKNS_7element4TypeERKNS_5ShapeERKSt6vectorINSt7__cxx1112basic_stringIcSt11char_traitsIcESaIcEEESaISG_EE
libopenvino.so.2420:_ZN2ov2op2v08ConstantC2ERKS2_
libopenvino.so.2420:_ZN2ov2op2v08ConstantC2ERKS2_RKNS_5ShapeE
libopenvino.so.2420:_ZN2ov2op2v08ConstantC2EbRKNS_7element4TypeERKNS_5ShapeE
libopenvino.so.2420:_ZN2ov2op2v08ConstantD0Ev
libopenvino.so.2420:_ZN2ov2op2v08ConstantD1Ev
libopenvino.so.2420:_ZN2ov2op2v08ConstantD2Ev
libopenvino.so.2420:_ZN2ov2op2v08LSTMCell16visit_attributesERNS_16AttributeVisitorE
libopenvino.so.2420:_ZN2ov2op2v08LSTMCell24validate_and_infer_typesEv
libopenvino.so.2420:_ZN2ov2op2v08LSTMCellC1ERKNS_6OutputINS_4NodeEEES7_S7_S7_S7_S7_S7_mNS0_17LSTMWeightsFormatERKSt6vectorINSt7__cxx1112basic_stringIcSt11char_traitsIcESaIcEEESaISF_EERKS9_IfSaIfEESN_fb
libopenvino.so.2420:_ZN2ov2op2v08LSTMCellC1ERKNS_6OutputINS_4NodeEEES7_S7_S7_S7_S7_mNS0_17LSTMWeightsFormatERKSt6vectorINSt7__cxx1112basic_stringIcSt11char_traitsIcESaIcEEESaISF_EERKS9_IfSaIfEESN_fb
libopenvino.so.2420:_ZN2ov2op2v08LSTMCellC1ERKNS_6OutputINS_4NodeEEES7_S7_S7_S7_mNS0_17LSTMWeightsFormatERKSt6vectorINSt7__cxx1112basic_stringIcSt11char_traitsIcESaIcEEESaISF_EERKS9_IfSaIfEESN_fb
libopenvino.so.2420:_ZN2ov2op2v08LSTMCellC1Ev
libopenvino.so.2420:_ZN2ov2op2v08LSTMCellC2ERKNS_6OutputINS_4NodeEEES7_S7_S7_S7_S7_S7_mNS0_17LSTMWeightsFormatERKSt6vectorINSt7__cxx1112basic_stringIcSt11char_traitsIcESaIcEEESaISF_EERKS9_IfSaIfEESN_fb
libopenvino.so.2420:_ZN2ov2op2v08LSTMCellC2ERKNS_6OutputINS_4NodeEEES7_S7_S7_S7_S7_mNS0_17LSTMWeightsFormatERKSt6vectorINSt7__cxx1112basic_stringIcSt11char_traitsIcESaIcEEESaISF_EERKS9_IfSaIfEESN_fb
libopenvino.so.2420:_ZN2ov2op2v08LSTMCellC2ERKNS_6OutputINS_4NodeEEES7_S7_S7_S7_mNS0_17LSTMWeightsFormatERKSt6vectorINSt7__cxx1112basic_stringIcSt11char_traitsIcESaIcEEESaISF_EERKS9_IfSaIfEESN_fb
libopenvino.so.2420:_ZN2ov2op2v08LSTMCellC2Ev
libopenvino.so.2420:_ZN2ov2op2v08NegativeC1ERKNS_6OutputINS_4NodeEEE
libopenvino.so.2420:_ZN2ov2op2v08NegativeC2ERKNS_6OutputINS_4NodeEEE
libopenvino.so.2420:_ZN2ov2op2v08PriorBox16number_of_priorsERKNS2_10AttributesE
libopenvino.so.2420:_ZN2ov2op2v08PriorBox16visit_attributesERNS_16AttributeVisitorE
libopenvino.so.2420:_ZN2ov2op2v08PriorBox23normalized_aspect_ratioERKSt6vectorIfSaIfEEb
libopenvino.so.2420:_ZN2ov2op2v08PriorBox24validate_and_infer_typesEv
libopenvino.so.2420:_ZN2ov2op2v08PriorBox9set_attrsENS2_10AttributesE
libopenvino.so.2420:_ZN2ov2op2v08PriorBoxC1ERKNS_6OutputINS_4NodeEEES7_RKNS2_10AttributesE
libopenvino.so.2420:_ZN2ov2op2v08PriorBoxC2ERKNS_6OutputINS_4NodeEEES7_RKNS2_10AttributesE
libopenvino.so.2420:_ZN2ov2op2v08Proposal16visit_attributesERNS_16AttributeVisitorE
libopenvino.so.2420:_ZN2ov2op2v08Proposal22validate_element_typesEv
libopenvino.so.2420:_ZN2ov2op2v08Proposal24validate_and_infer_typesEv
libopenvino.so.2420:_ZN2ov2op2v08Proposal9set_attrsENS2_10AttributesE
libopenvino.so.2420:_ZN2ov2op2v08ProposalC1ERKNS_6OutputINS_4NodeEEES7_S7_RKNS2_10AttributesE
libopenvino.so.2420:_ZN2ov2op2v08ProposalC2ERKNS_6OutputINS_4NodeEEES7_S7_RKNS2_10AttributesE
libopenvino.so.2420:_ZN2ov2op2v09Parameter10set_layoutERKNS_6LayoutE
libopenvino.so.2420:_ZN2ov2op2v09Parameter16visit_attributesERNS_16AttributeVisitorE
libopenvino.so.2420:_ZN2ov2op2v09Parameter17set_partial_shapeERKNS_12PartialShapeE
libopenvino.so.2420:_ZN2ov2op2v09Parameter24validate_and_infer_typesEv
libopenvino.so.2420:_ZN2ov2op2v09Parameter25set_is_relevant_to_shapesEb
libopenvino.so.2420:_ZN2ov2op2v09ParameterC1ERKNS_7element4TypeERKNS_12PartialShapeE
libopenvino.so.2420:_ZN2ov2op2v09ParameterC2ERKNS_7element4TypeERKNS_12PartialShapeE
libopenvino.so.2420:_ZN2ov2op2v09ReorgYolo11set_stridesEm
libopenvino.so.2420:_ZN2ov2op2v09ReorgYolo16visit_attributesERNS_16AttributeVisitorE
libopenvino.so.2420:_ZN2ov2op2v09ReorgYolo24validate_and_infer_typesEv
libopenvino.so.2420:_ZN2ov2op2v09ReorgYoloC1ERKNS_6OutputINS_4NodeEEERKNS_7StridesE
libopenvino.so.2420:_ZN2ov2op2v09ReorgYoloC1ERKNS_6OutputINS_4NodeEEEm
libopenvino.so.2420:_ZN2ov2op2v09ReorgYoloC2ERKNS_6OutputINS_4NodeEEERKNS_7StridesE
libopenvino.so.2420:_ZN2ov2op2v09ReorgYoloC2ERKNS_6OutputINS_4NodeEEEm
libopenvino.so.2420:_ZN2ov2op2v09Unsqueeze13constant_foldERSt6vectorINS_6OutputINS_4NodeEEESaIS6_EERKS8_
libopenvino.so.2420:_ZN2ov2op2v09Unsqueeze16visit_attributesERNS_16AttributeVisitorE
libopenvino.so.2420:_ZN2ov2op2v09Unsqueeze24validate_and_infer_typesEv
libopenvino.so.2420:_ZN2ov2op2v09UnsqueezeC1ERKNS_6OutputINS_4NodeEEES7_
libopenvino.so.2420:_ZN2ov2op2v09UnsqueezeC2ERKNS_6OutputINS_4NodeEEES7_
libopenvino.so.2420:_ZN2ov2op2v110GatherTree24validate_and_infer_typesEv
libopenvino.so.2420:_ZN2ov2op2v110GatherTreeC1ERKNS_6OutputINS_4NodeEEES7_S7_S7_
libopenvino.so.2420:_ZN2ov2op2v110GatherTreeC2ERKNS_6OutputINS_4NodeEEES7_S7_S7_
libopenvino.so.2420:_ZN2ov2op2v110LogicalAndC1ERKNS_6OutputINS_4NodeEEES7_RKNS0_17AutoBroadcastSpecE
libopenvino.so.2420:_ZN2ov2op2v110LogicalAndC2ERKNS_6OutputINS_4NodeEEES7_RKNS0_17AutoBroadcastSpecE
libopenvino.so.2420:_ZN2ov2op2v110LogicalNot24validate_and_infer_typesEv
libopenvino.so.2420:_ZN2ov2op2v110LogicalNotC1ERKNS_6OutputINS_4NodeEEE
libopenvino.so.2420:_ZN2ov2op2v110LogicalNotC2ERKNS_6OutputINS_4NodeEEE
libopenvino.so.2420:_ZN2ov2op2v110LogicalXorC1ERKNS_6OutputINS_4NodeEEES7_RKNS0_17AutoBroadcastSpecE
libopenvino.so.2420:_ZN2ov2op2v110LogicalXorC2ERKNS_6OutputINS_4NodeEEES7_RKNS0_17AutoBroadcastSpecE
libopenvino.so.2420:_ZN2ov2op2v110ReduceMeanC1ERKNS_6OutputINS_4NodeEEES7_b
libopenvino.so.2420:_ZN2ov2op2v110ReduceMeanC2ERKNS_6OutputINS_4NodeEEES7_b
libopenvino.so.2420:_ZN2ov2op2v110ReduceProdC1ERKNS_6OutputINS_4NodeEEES7_b
libopenvino.so.2420:_ZN2ov2op2v110ReduceProdC2ERKNS_6OutputINS_4NodeEEES7_b
libopenvino.so.2420:_ZN2ov2op2v111ConvertLike13constant_foldERSt6vectorINS_6OutputINS_4NodeEEESaIS6_EERKS8_
libopenvino.so.2420:_ZN2ov2op2v111ConvertLike24validate_and_infer_typesEv
libopenvino.so.2420:_ZN2ov2op2v111ConvertLikeC1ERKNS_6OutputINS_4NodeEEES7_
libopenvino.so.2420:_ZN2ov2op2v111ConvertLikeC2ERKNS_6OutputINS_4NodeEEES7_
libopenvino.so.2420:_ZN2ov2op2v111Convolution16visit_attributesERNS_16AttributeVisitorE
libopenvino.so.2420:_ZN2ov2op2v111Convolution24validate_and_infer_typesEv
libopenvino.so.2420:_ZN2ov2op2v111ConvolutionC1ERKNS_6OutputINS_4NodeEEES7_RKNS_7StridesERKNS_14CoordinateDiffESD_SA_RKNS0_7PadTypeE
libopenvino.so.2420:_ZN2ov2op2v111ConvolutionC2ERKNS_6OutputINS_4NodeEEES7_RKNS_7StridesERKNS_14CoordinateDiffESD_SA_RKNS0_7PadTypeE
libopenvino.so.2420:_ZN2ov2op2v112BatchToSpace16visit_attributesERNS_16AttributeVisitorE
libopenvino.so.2420:_ZN2ov2op2v112BatchToSpace24validate_and_infer_typesEv
libopenvino.so.2420:_ZN2ov2op2v112BatchToSpaceC1ERKNS_6OutputINS_4NodeEEES7_S7_S7_
libopenvino.so.2420:_ZN2ov2op2v112BatchToSpaceC2ERKNS_6OutputINS_4NodeEEES7_S7_S7_
libopenvino.so.2420:_ZN2ov2op2v112GreaterEqualC1ERKNS_6OutputINS_4NodeEEES7_RKNS0_17AutoBroadcastSpecE
libopenvino.so.2420:_ZN2ov2op2v112GreaterEqualC2ERKNS_6OutputINS_4NodeEEES7_RKNS0_17AutoBroadcastSpecE
libopenvino.so.2420:_ZN2ov2op2v112SpaceToBatch16visit_attributesERNS_16AttributeVisitorE
libopenvino.so.2420:_ZN2ov2op2v112SpaceToBatch24validate_and_infer_typesEv
libopenvino.so.2420:_ZN2ov2op2v112SpaceToBatchC1ERKNS_6OutputINS_4NodeEEES7_S7_S7_
libopenvino.so.2420:_ZN2ov2op2v112SpaceToBatchC2ERKNS_6OutputINS_4NodeEEES7_S7_S7_
libopenvino.so.2420:_ZN2ov2op2v112StridedSlice13constant_foldERSt6vectorINS_6OutputINS_4NodeEEESaIS6_EERKS8_
libopenvino.so.2420:_ZN2ov2op2v112StridedSlice16visit_attributesERNS_16AttributeVisitorE
libopenvino.so.2420:_ZN2ov2op2v112StridedSlice24validate_and_infer_typesEv
libopenvino.so.2420:_ZN2ov2op2v112StridedSliceC1ERKNS_6OutputINS_4NodeEEES7_S7_RKSt6vectorIlSaIlEESC_SC_SC_SC_
libopenvino.so.2420:_ZN2ov2op2v112StridedSliceC1ERKNS_6OutputINS_4NodeEEES7_S7_S7_RKSt6vectorIlSaIlEESC_SC_SC_SC_
libopenvino.so.2420:_ZN2ov2op2v112StridedSliceC2ERKNS_6OutputINS_4NodeEEES7_S7_RKSt6vectorIlSaIlEESC_SC_SC_SC_
libopenvino.so.2420:_ZN2ov2op2v112StridedSliceC2ERKNS_6OutputINS_4NodeEEES7_S7_S7_RKSt6vectorIlSaIlEESC_SC_SC_SC_
libopenvino.so.2420:_ZN2ov2op2v113VariadicSplit24validate_and_infer_typesEv
libopenvino.so.2420:_ZN2ov2op2v113VariadicSplitC1ERKNS_6OutputINS_4NodeEEES7_S7_
libopenvino.so.2420:_ZN2ov2op2v113VariadicSplitC2ERKNS_6OutputINS_4NodeEEES7_S7_
libopenvino.so.2420:_ZN2ov2op2v115ReduceLogicalOrC1ERKNS_6OutputINS_4NodeEEES7_b
libopenvino.so.2420:_ZN2ov2op2v115ReduceLogicalOrC2ERKNS_6OutputINS_4NodeEEES7_b
libopenvino.so.2420:_ZN2ov2op2v116GroupConvolution16visit_attributesERNS_16AttributeVisitorE
libopenvino.so.2420:_ZN2ov2op2v116GroupConvolution24validate_and_infer_typesEv
libopenvino.so.2420:_ZN2ov2op2v116GroupConvolutionC1ERKNS_6OutputINS_4NodeEEES7_RKNS_7StridesERKNS_14CoordinateDiffESD_SA_RKNS0_7PadTypeE
libopenvino.so.2420:_ZN2ov2op2v116GroupConvolutionC2ERKNS_6OutputINS_4NodeEEES7_RKNS_7StridesERKNS_14CoordinateDiffESD_SA_RKNS0_7PadTypeE
libopenvino.so.2420:_ZN2ov2op2v116ReduceLogicalAndC1ERKNS_6OutputINS_4NodeEEES7_b
libopenvino.so.2420:_ZN2ov2op2v116ReduceLogicalAndC2ERKNS_6OutputINS_4NodeEEES7_b
libopenvino.so.2420:_ZN2ov2op2v117BinaryConvolution16visit_attributesERNS_16AttributeVisitorE
libopenvino.so.2420:_ZN2ov2op2v117BinaryConvolution24validate_and_infer_typesEv
libopenvino.so.2420:_ZN2ov2op2v117BinaryConvolutionC1ERKNS_6OutputINS_4NodeEEES7_RKNS_7StridesERKNS_14CoordinateDiffESD_SA_NS2_21BinaryConvolutionModeEfRKNS0_7PadTypeE
libopenvino.so.2420:_ZN2ov2op2v117BinaryConvolutionC1ERKNS_6OutputINS_4NodeEEES7_RKNS_7StridesERKNS_14CoordinateDiffESD_SA_RKNSt7__cxx1112basic_stringIcSt11char_traitsIcESaIcEEEfRKNS0_7PadTypeE
libopenvino.so.2420:_ZN2ov2op2v117BinaryConvolutionC2ERKNS_6OutputINS_4NodeEEES7_RKNS_7StridesERKNS_14CoordinateDiffESD_SA_NS2_21BinaryConvolutionModeEfRKNS0_7PadTypeE
libopenvino.so.2420:_ZN2ov2op2v117BinaryConvolutionC2ERKNS_6OutputINS_4NodeEEES7_RKNS_7StridesERKNS_14CoordinateDiffESD_SA_RKNSt7__cxx1112basic_stringIcSt11char_traitsIcESaIcEEEfRKNS0_7PadTypeE
libopenvino.so.2420:_ZN2ov2op2v117NonMaxSuppression16visit_attributesERNS_16AttributeVisitorE
libopenvino.so.2420:_ZN2ov2op2v117NonMaxSuppression24validate_and_infer_typesEv
libopenvino.so.2420:_ZN2ov2op2v117NonMaxSuppressionC1ERKNS_6OutputINS_4NodeEEES7_NS2_15BoxEncodingTypeEb
libopenvino.so.2420:_ZN2ov2op2v117NonMaxSuppressionC1ERKNS_6OutputINS_4NodeEEES7_S7_S7_S7_NS2_15BoxEncodingTypeEb
libopenvino.so.2420:_ZN2ov2op2v117NonMaxSuppressionC2ERKNS_6OutputINS_4NodeEEES7_NS2_15BoxEncodingTypeEb
libopenvino.so.2420:_ZN2ov2op2v117NonMaxSuppressionC2ERKNS_6OutputINS_4NodeEEES7_S7_S7_S7_NS2_15BoxEncodingTypeEb
libopenvino.so.2420:_ZN2ov2op2v121DeformableConvolution24validate_and_infer_typesEv
libopenvino.so.2420:_ZN2ov2op2v121DeformableConvolutionC1ERKNS_6OutputINS_4NodeEEES7_S7_RKNS_7StridesERKNS_14CoordinateDiffESD_SA_RKNS0_7PadTypeEll
libopenvino.so.2420:_ZN2ov2op2v121DeformableConvolutionC2ERKNS_6OutputINS_4NodeEEES7_S7_RKNS_7StridesERKNS_14CoordinateDiffESD_SA_RKNS0_7PadTypeEll
libopenvino.so.2420:_ZN2ov2op2v122DeformablePSROIPooling14set_group_sizeEl
libopenvino.so.2420:_ZN2ov2op2v122DeformablePSROIPooling14set_output_dimEl
libopenvino.so.2420:_ZN2ov2op2v122DeformablePSROIPooling16visit_attributesERNS_16AttributeVisitorE
libopenvino.so.2420:_ZN2ov2op2v122DeformablePSROIPooling24validate_and_infer_typesEv
libopenvino.so.2420:_ZN2ov2op2v122DeformablePSROIPoolingC1ERKNS_6OutputINS_4NodeEEES7_S7_lflNSt7__cxx1112basic_stringIcSt11char_traitsIcESaIcEEEllfl
libopenvino.so.2420:_ZN2ov2op2v122DeformablePSROIPoolingC1ERKNS_6OutputINS_4NodeEEES7_lflNSt7__cxx1112basic_stringIcSt11char_traitsIcESaIcEEEllfl
libopenvino.so.2420:_ZN2ov2op2v122DeformablePSROIPoolingC2ERKNS_6OutputINS_4NodeEEES7_S7_lflNSt7__cxx1112basic_stringIcSt11char_traitsIcESaIcEEEllfl
libopenvino.so.2420:_ZN2ov2op2v122DeformablePSROIPoolingC2ERKNS_6OutputINS_4NodeEEES7_lflNSt7__cxx1112basic_stringIcSt11char_traitsIcESaIcEEEllfl
libopenvino.so.2420:_ZN2ov2op2v123ConvolutionBackpropData16set_output_shapeERKNS_5ShapeE
libopenvino.so.2420:_ZN2ov2op2v123ConvolutionBackpropData16visit_attributesERNS_16AttributeVisitorE
libopenvino.so.2420:_ZN2ov2op2v123ConvolutionBackpropData24validate_and_infer_typesEv
libopenvino.so.2420:_ZN2ov2op2v123ConvolutionBackpropDataC1ERKNS_6OutputINS_4NodeEEES7_RKNS_7StridesERKNS_14CoordinateDiffESD_SA_RKNS0_7PadTypeESD_
libopenvino.so.2420:_ZN2ov2op2v123ConvolutionBackpropDataC1ERKNS_6OutputINS_4NodeEEES7_S7_RKNS_7StridesERKNS_14CoordinateDiffESD_SA_RKNS0_7PadTypeESD_
libopenvino.so.2420:_ZN2ov2op2v123ConvolutionBackpropDataC2ERKNS_6OutputINS_4NodeEEES7_RKNS_7StridesERKNS_14CoordinateDiffESD_SA_RKNS0_7PadTypeESD_
libopenvino.so.2420:_ZN2ov2op2v123ConvolutionBackpropDataC2ERKNS_6OutputINS_4NodeEEES7_S7_RKNS_7StridesERKNS_14CoordinateDiffESD_SA_RKNS0_7PadTypeESD_
libopenvino.so.2420:_ZN2ov2op2v128GroupConvolutionBackpropData16set_output_shapeERKNS_5ShapeE
libopenvino.so.2420:_ZN2ov2op2v128GroupConvolutionBackpropData16visit_attributesERNS_16AttributeVisitorE
libopenvino.so.2420:_ZN2ov2op2v128GroupConvolutionBackpropData24validate_and_infer_typesEv
libopenvino.so.2420:_ZN2ov2op2v128GroupConvolutionBackpropData40infer_conv_backprop_output_spatial_shapeERKSt6vectorINS_9DimensionESaIS4_EES8_RKNS_7StridesESB_RKNS_14CoordinateDiffESE_SE_RS6_
libopenvino.so.2420:_ZN2ov2op2v128GroupConvolutionBackpropDataC1ERKNS_6OutputINS_4NodeEEES7_RKNS_7StridesERKNS_14CoordinateDiffESD_SA_RKNS0_7PadTypeESD_
libopenvino.so.2420:_ZN2ov2op2v128GroupConvolutionBackpropDataC1ERKNS_6OutputINS_4NodeEEES7_S7_RKNS_7StridesERKNS_14CoordinateDiffESD_SA_RKNS0_7PadTypeESD_
libopenvino.so.2420:_ZN2ov2op2v128GroupConvolutionBackpropDataC1ERKNS_6OutputINS_4NodeEEES7_S7_RKNS_7StridesESA_RKNS0_7PadTypeERKNS_14CoordinateDiffE
libopenvino.so.2420:_ZN2ov2op2v128GroupConvolutionBackpropDataC1Ev
libopenvino.so.2420:_ZN2ov2op2v128GroupConvolutionBackpropDataC2ERKNS_6OutputINS_4NodeEEES7_RKNS_7StridesERKNS_14CoordinateDiffESD_SA_RKNS0_7PadTypeESD_
libopenvino.so.2420:_ZN2ov2op2v128GroupConvolutionBackpropDataC2ERKNS_6OutputINS_4NodeEEES7_S7_RKNS_7StridesERKNS_14CoordinateDiffESD_SA_RKNS0_7PadTypeESD_
libopenvino.so.2420:_ZN2ov2op2v128GroupConvolutionBackpropDataC2ERKNS_6OutputINS_4NodeEEES7_S7_RKNS_7StridesESA_RKNS0_7PadTypeERKNS_14CoordinateDiffE
libopenvino.so.2420:_ZN2ov2op2v128GroupConvolutionBackpropDataC2Ev
libopenvino.so.2420:_ZN2ov2op2v13AddC1ERKNS_6OutputINS_4NodeEEES7_RKNS0_17AutoBroadcastSpecE
libopenvino.so.2420:_ZN2ov2op2v13AddC2ERKNS_6OutputINS_4NodeEEES7_RKNS0_17AutoBroadcastSpecE
libopenvino.so.2420:_ZN2ov2op2v13ModC1ERKNS_6OutputINS_4NodeEEES7_RKNS0_17AutoBroadcastSpecE
libopenvino.so.2420:_ZN2ov2op2v13ModC2ERKNS_6OutputINS_4NodeEEES7_RKNS0_17AutoBroadcastSpecE
libopenvino.so.2420:_ZN2ov2op2v13PadC1ERKNS_6OutputINS_4NodeEEES7_S7_NS0_7PadModeE
libopenvino.so.2420:_ZN2ov2op2v13PadC1ERKNS_6OutputINS_4NodeEEES7_S7_S7_NS0_7PadModeE
libopenvino.so.2420:_ZN2ov2op2v13PadC2ERKNS_6OutputINS_4NodeEEES7_S7_NS0_7PadModeE
libopenvino.so.2420:_ZN2ov2op2v13PadC2ERKNS_6OutputINS_4NodeEEES7_S7_S7_NS0_7PadModeE
libopenvino.so.2420:_ZN2ov2op2v14LessC1ERKNS_6OutputINS_4NodeEEES7_RKNS0_17AutoBroadcastSpecE
libopenvino.so.2420:_ZN2ov2op2v14LessC2ERKNS_6OutputINS_4NodeEEES7_RKNS0_17AutoBroadcastSpecE
libopenvino.so.2420:_ZN2ov2op2v14TopKC1ERKNS_6OutputINS_4NodeEEES7_lNS0_8TopKModeENS0_12TopKSortTypeERKNS_7element4TypeE
libopenvino.so.2420:_ZN2ov2op2v14TopKC1ERKNS_6OutputINS_4NodeEEES7_lRKNSt7__cxx1112basic_stringIcSt11char_traitsIcESaIcEEESF_RKNS_7element4TypeE
libopenvino.so.2420:_ZN2ov2op2v14TopKC2ERKNS_6OutputINS_4NodeEEES7_lNS0_8TopKModeENS0_12TopKSortTypeERKNS_7element4TypeE
libopenvino.so.2420:_ZN2ov2op2v14TopKC2ERKNS_6OutputINS_4NodeEEES7_lRKNSt7__cxx1112basic_stringIcSt11char_traitsIcESaIcEEESF_RKNS_7element4TypeE
libopenvino.so.2420:_ZN2ov2op2v15EqualC1ERKNS_6OutputINS_4NodeEEES7_RKNS0_17AutoBroadcastSpecE
libopenvino.so.2420:_ZN2ov2op2v15EqualC2ERKNS_6OutputINS_4NodeEEES7_RKNS0_17AutoBroadcastSpecE
libopenvino.so.2420:_ZN2ov2op2v15PowerC1ERKNS_6OutputINS_4NodeEEES7_RKNS0_17AutoBroadcastSpecE
libopenvino.so.2420:_ZN2ov2op2v15PowerC2ERKNS_6OutputINS_4NodeEEES7_RKNS0_17AutoBroadcastSpecE
libopenvino.so.2420:_ZN2ov2op2v15Split16visit_attributesERNS_16AttributeVisitorE
libopenvino.so.2420:_ZN2ov2op2v15Split24validate_and_infer_typesEv
libopenvino.so.2420:_ZN2ov2op2v15SplitC1ERKNS_6OutputINS_4NodeEEES7_m
libopenvino.so.2420:_ZN2ov2op2v15SplitC2ERKNS_6OutputINS_4NodeEEES7_m
libopenvino.so.2420:_ZN2ov2op2v16Divide16visit_attributesERNS_16AttributeVisitorE
libopenvino.so.2420:_ZN2ov2op2v16DivideC1ERKNS_6OutputINS_4NodeEEES7_RKNS0_17AutoBroadcastSpecE
libopenvino.so.2420:_ZN2ov2op2v16DivideC1ERKNS_6OutputINS_4NodeEEES7_bRKNS0_17AutoBroadcastSpecE
libopenvino.so.2420:_ZN2ov2op2v16DivideC2ERKNS_6OutputINS_4NodeEEES7_RKNS0_17AutoBroadcastSpecE
libopenvino.so.2420:_ZN2ov2op2v16DivideC2ERKNS_6OutputINS_4NodeEEES7_bRKNS0_17AutoBroadcastSpecE
libopenvino.so.2420:_ZN2ov2op2v16GatherC1ERKNS_6OutputINS_4NodeEEES7_S7_
libopenvino.so.2420:_ZN2ov2op2v16GatherC2ERKNS_6OutputINS_4NodeEEES7_S7_
libopenvino.so.2420:_ZN2ov2op2v16OneHot16visit_attributesERNS_16AttributeVisitorE
libopenvino.so.2420:_ZN2ov2op2v16OneHot24validate_and_infer_typesEv
libopenvino.so.2420:_ZN2ov2op2v16OneHot8set_axisEl
libopenvino.so.2420:_ZN2ov2op2v16OneHotC1ERKNS_6OutputINS_4NodeEEES7_S7_S7_l
libopenvino.so.2420:_ZN2ov2op2v16OneHotC2ERKNS_6OutputINS_4NodeEEES7_S7_S7_l
libopenvino.so.2420:_ZN2ov2op2v16Select16visit_attributesERNS_16AttributeVisitorE
libopenvino.so.2420:_ZN2ov2op2v16Select24validate_and_infer_typesEv
libopenvino.so.2420:_ZN2ov2op2v16SelectC1ERKNS_6OutputINS_4NodeEEES7_S7_RKNS0_17AutoBroadcastSpecE
libopenvino.so.2420:_ZN2ov2op2v16SelectC2ERKNS_6OutputINS_4NodeEEES7_S7_RKNS0_17AutoBroadcastSpecE
libopenvino.so.2420:_ZN2ov2op2v17AvgPool24validate_and_infer_typesEv
libopenvino.so.2420:_ZN2ov2op2v17AvgPoolC1ERKNS_6OutputINS_4NodeEEERKNS_7StridesERKNS_5ShapeESD_SD_bNS0_12RoundingTypeERKNS0_7PadTypeE
libopenvino.so.2420:_ZN2ov2op2v17AvgPoolC2ERKNS_6OutputINS_4NodeEEERKNS_7StridesERKNS_5ShapeESD_SD_bNS0_12RoundingTypeERKNS0_7PadTypeE
libopenvino.so.2420:_ZN2ov2op2v17GreaterC1ERKNS_6OutputINS_4NodeEEES7_RKNS0_17AutoBroadcastSpecE
libopenvino.so.2420:_ZN2ov2op2v17GreaterC2ERKNS_6OutputINS_4NodeEEES7_RKNS0_17AutoBroadcastSpecE
libopenvino.so.2420:_ZN2ov2op2v17MaxPool16visit_attributesERNS_16AttributeVisitorE
libopenvino.so.2420:_ZN2ov2op2v17MaxPool24validate_and_infer_typesEv
libopenvino.so.2420:_ZN2ov2op2v17MaxPoolC1ERKNS_6OutputINS_4NodeEEERKNS_7StridesERKNS_5ShapeESD_SD_NS0_12RoundingTypeENS0_7PadTypeE
libopenvino.so.2420:_ZN2ov2op2v17MaxPoolC2ERKNS_6OutputINS_4NodeEEERKNS_7StridesERKNS_5ShapeESD_SD_NS0_12RoundingTypeENS0_7PadTypeE
libopenvino.so.2420:_ZN2ov2op2v17MaximumC1ERKNS_6OutputINS_4NodeEEES7_RKNS0_17AutoBroadcastSpecE
libopenvino.so.2420:_ZN2ov2op2v17MaximumC2ERKNS_6OutputINS_4NodeEEES7_RKNS0_17AutoBroadcastSpecE
libopenvino.so.2420:_ZN2ov2op2v17MinimumC1ERKNS_6OutputINS_4NodeEEES7_RKNS0_17AutoBroadcastSpecE
libopenvino.so.2420:_ZN2ov2op2v17MinimumC2ERKNS_6OutputINS_4NodeEEES7_RKNS0_17AutoBroadcastSpecE
libopenvino.so.2420:_ZN2ov2op2v17Reshape13constant_foldERSt6vectorINS_6OutputINS_4NodeEEESaIS6_EERKS8_
libopenvino.so.2420:_ZN2ov2op2v17Reshape16visit_attributesERNS_16AttributeVisitorE
libopenvino.so.2420:_ZN2ov2op2v17Reshape24validate_and_infer_typesEv
libopenvino.so.2420:_ZN2ov2op2v17ReshapeC1ERKNS_6OutputINS_4NodeEEES7_b
libopenvino.so.2420:_ZN2ov2op2v17ReshapeC2ERKNS_6OutputINS_4NodeEEES7_b
libopenvino.so.2420:_ZN2ov2op2v17Reverse16visit_attributesERNS_16AttributeVisitorE
libopenvino.so.2420:_ZN2ov2op2v17Reverse24validate_and_infer_typesEv
libopenvino.so.2420:_ZN2ov2op2v17ReverseC1ERKNS_6OutputINS_4NodeEEES7_NS2_4ModeE
libopenvino.so.2420:_ZN2ov2op2v17ReverseC1ERKNS_6OutputINS_4NodeEEES7_RKNSt7__cxx1112basic_stringIcSt11char_traitsIcESaIcEEE
libopenvino.so.2420:_ZN2ov2op2v17ReverseC2ERKNS_6OutputINS_4NodeEEES7_NS2_4ModeE
libopenvino.so.2420:_ZN2ov2op2v17ReverseC2ERKNS_6OutputINS_4NodeEEES7_RKNSt7__cxx1112basic_stringIcSt11char_traitsIcESaIcEEE
libopenvino.so.2420:_ZN2ov2op2v17Softmax16visit_attributesERNS_16AttributeVisitorE
libopenvino.so.2420:_ZN2ov2op2v17Softmax24validate_and_infer_typesEv
libopenvino.so.2420:_ZN2ov2op2v17SoftmaxC1ERKNS_6OutputINS_4NodeEEEm
libopenvino.so.2420:_ZN2ov2op2v17SoftmaxC2ERKNS_6OutputINS_4NodeEEEm
libopenvino.so.2420:_ZN2ov2op2v18FloorModC1ERKNS_6OutputINS_4NodeEEES7_RKNS0_17AutoBroadcastSpecE
libopenvino.so.2420:_ZN2ov2op2v18FloorModC2ERKNS_6OutputINS_4NodeEEES7_RKNS0_17AutoBroadcastSpecE
libopenvino.so.2420:_ZN2ov2op2v18MultiplyC1ERKNS_6OutputINS_4NodeEEES7_RKNS0_17AutoBroadcastSpecE
libopenvino.so.2420:_ZN2ov2op2v18MultiplyC2ERKNS_6OutputINS_4NodeEEES7_RKNS0_17AutoBroadcastSpecE
libopenvino.so.2420:_ZN2ov2op2v18NotEqualC1ERKNS_6OutputINS_4NodeEEES7_RKNS0_17AutoBroadcastSpecE
libopenvino.so.2420:_ZN2ov2op2v18NotEqualC2ERKNS_6OutputINS_4NodeEEES7_RKNS0_17AutoBroadcastSpecE
libopenvino.so.2420:_ZN2ov2op2v18SubtractC1ERKNS_6OutputINS_4NodeEEES7_RKNS0_17AutoBroadcastSpecE
libopenvino.so.2420:_ZN2ov2op2v18SubtractC2ERKNS_6OutputINS_4NodeEEES7_RKNS0_17AutoBroadcastSpecE
libopenvino.so.2420:_ZN2ov2op2v19Broadcast16visit_attributesERNS_16AttributeVisitorE
libopenvino.so.2420:_ZN2ov2op2v19Broadcast24validate_and_infer_typesEv
libopenvino.so.2420:_ZN2ov2op2v19BroadcastC1ERKNS_6OutputINS_4NodeEEES7_RKNS0_17AutoBroadcastSpecE
libopenvino.so.2420:_ZN2ov2op2v19BroadcastC1ERKNS_6OutputINS_4NodeEEES7_S7_RKNS0_17AutoBroadcastSpecE
libopenvino.so.2420:_ZN2ov2op2v19BroadcastC2ERKNS_6OutputINS_4NodeEEES7_RKNS0_17AutoBroadcastSpecE
libopenvino.so.2420:_ZN2ov2op2v19BroadcastC2ERKNS_6OutputINS_4NodeEEES7_S7_RKNS0_17AutoBroadcastSpecE
libopenvino.so.2420:_ZN2ov2op2v19LessEqualC1ERKNS_6OutputINS_4NodeEEES7_RKNS0_17AutoBroadcastSpecE
libopenvino.so.2420:_ZN2ov2op2v19LessEqualC2ERKNS_6OutputINS_4NodeEEES7_RKNS0_17AutoBroadcastSpecE
libopenvino.so.2420:_ZN2ov2op2v19LogicalOrC1ERKNS_6OutputINS_4NodeEEES7_RKNS0_17AutoBroadcastSpecE
libopenvino.so.2420:_ZN2ov2op2v19LogicalOrC2ERKNS_6OutputINS_4NodeEEES7_RKNS0_17AutoBroadcastSpecE
libopenvino.so.2420:_ZN2ov2op2v19ReduceMaxC1ERKNS_6OutputINS_4NodeEEES7_b
libopenvino.so.2420:_ZN2ov2op2v19ReduceMaxC2ERKNS_6OutputINS_4NodeEEES7_b
libopenvino.so.2420:_ZN2ov2op2v19ReduceMinC1ERKNS_6OutputINS_4NodeEEES7_b
libopenvino.so.2420:_ZN2ov2op2v19ReduceMinC2ERKNS_6OutputINS_4NodeEEES7_b
libopenvino.so.2420:_ZN2ov2op2v19ReduceSumC1ERKNS_6OutputINS_4NodeEEES7_b
libopenvino.so.2420:_ZN2ov2op2v19ReduceSumC2ERKNS_6OutputINS_4NodeEEES7_b
libopenvino.so.2420:_ZN2ov2op2v19Transpose24validate_and_infer_typesEv
libopenvino.so.2420:_ZN2ov2op2v19TransposeC1ERKNS_6OutputINS_4NodeEEES7_
libopenvino.so.2420:_ZN2ov2op2v19TransposeC2ERKNS_6OutputINS_4NodeEEES7_
libopenvino.so.2420:_ZN2ov2op2v313ScatterUpdateC1ERKNS_6OutputINS_4NodeEEES7_S7_S7_
libopenvino.so.2420:_ZN2ov2op2v313ScatterUpdateC2ERKNS_6OutputINS_4NodeEEES7_S7_S7_
libopenvino.so.2420:_ZN2ov2op2v317NonMaxSuppression16visit_attributesERNS_16AttributeVisitorE
libopenvino.so.2420:_ZN2ov2op2v317NonMaxSuppression24validate_and_infer_typesEv
libopenvino.so.2420:_ZN2ov2op2v317NonMaxSuppressionC1ERKNS_6OutputINS_4NodeEEES7_NS2_15BoxEncodingTypeEbRKNS_7element4TypeE
libopenvino.so.2420:_ZN2ov2op2v317NonMaxSuppressionC1ERKNS_6OutputINS_4NodeEEES7_S7_S7_S7_NS2_15BoxEncodingTypeEbRKNS_7element4TypeE
libopenvino.so.2420:_ZN2ov2op2v317NonMaxSuppressionC2ERKNS_6OutputINS_4NodeEEES7_NS2_15BoxEncodingTypeEbRKNS_7element4TypeE
libopenvino.so.2420:_ZN2ov2op2v317NonMaxSuppressionC2ERKNS_6OutputINS_4NodeEEES7_S7_S7_S7_NS2_15BoxEncodingTypeEbRKNS_7element4TypeE
libopenvino.so.2420:_ZN2ov2op2v319ExtractImagePatches16visit_attributesERNS_16AttributeVisitorE
libopenvino.so.2420:_ZN2ov2op2v319ExtractImagePatches24validate_and_infer_typesEv
libopenvino.so.2420:_ZN2ov2op2v319ExtractImagePatchesC1ERKNS_6OutputINS_4NodeEEERKNS_5ShapeERKNS_7StridesESA_RKNS0_7PadTypeE
libopenvino.so.2420:_ZN2ov2op2v319ExtractImagePatchesC2ERKNS_6OutputINS_4NodeEEERKNS_5ShapeERKNS_7StridesESA_RKNS0_7PadTypeE
libopenvino.so.2420:_ZN2ov2op2v320EmbeddingSegmentsSum24validate_and_infer_typesEv
libopenvino.so.2420:_ZN2ov2op2v320EmbeddingSegmentsSumC1ERKNS_6OutputINS_4NodeEEES7_S7_S7_
libopenvino.so.2420:_ZN2ov2op2v320EmbeddingSegmentsSumC1ERKNS_6OutputINS_4NodeEEES7_S7_S7_S7_
libopenvino.so.2420:_ZN2ov2op2v320EmbeddingSegmentsSumC1ERKNS_6OutputINS_4NodeEEES7_S7_S7_S7_S7_
libopenvino.so.2420:_ZN2ov2op2v320EmbeddingSegmentsSumC2ERKNS_6OutputINS_4NodeEEES7_S7_S7_
libopenvino.so.2420:_ZN2ov2op2v320EmbeddingSegmentsSumC2ERKNS_6OutputINS_4NodeEEES7_S7_S7_S7_
libopenvino.so.2420:_ZN2ov2op2v320EmbeddingSegmentsSumC2ERKNS_6OutputINS_4NodeEEES7_S7_S7_S7_S7_
libopenvino.so.2420:_ZN2ov2op2v321EmbeddingBagPackedSum16visit_attributesERNS_16AttributeVisitorE
libopenvino.so.2420:_ZN2ov2op2v321EmbeddingBagPackedSumC1ERKNS_6OutputINS_4NodeEEES7_
libopenvino.so.2420:_ZN2ov2op2v321EmbeddingBagPackedSumC1ERKNS_6OutputINS_4NodeEEES7_S7_
libopenvino.so.2420:_ZN2ov2op2v321EmbeddingBagPackedSumC2ERKNS_6OutputINS_4NodeEEES7_
libopenvino.so.2420:_ZN2ov2op2v321EmbeddingBagPackedSumC2ERKNS_6OutputINS_4NodeEEES7_S7_
libopenvino.so.2420:_ZN2ov2op2v321ScatterElementsUpdateC1ERKNS_6OutputINS_4NodeEEES7_S7_S7_
libopenvino.so.2420:_ZN2ov2op2v321ScatterElementsUpdateC2ERKNS_6OutputINS_4NodeEEES7_S7_S7_
libopenvino.so.2420:_ZN2ov2op2v322EmbeddingBagOffsetsSum16visit_attributesERNS_16AttributeVisitorE
libopenvino.so.2420:_ZN2ov2op2v322EmbeddingBagOffsetsSumC1ERKNS_6OutputINS_4NodeEEES7_S7_
libopenvino.so.2420:_ZN2ov2op2v322EmbeddingBagOffsetsSumC1ERKNS_6OutputINS_4NodeEEES7_S7_S7_
libopenvino.so.2420:_ZN2ov2op2v322EmbeddingBagOffsetsSumC1ERKNS_6OutputINS_4NodeEEES7_S7_S7_S7_
libopenvino.so.2420:_ZN2ov2op2v322EmbeddingBagOffsetsSumC2ERKNS_6OutputINS_4NodeEEES7_S7_
libopenvino.so.2420:_ZN2ov2op2v322EmbeddingBagOffsetsSumC2ERKNS_6OutputINS_4NodeEEES7_S7_S7_
libopenvino.so.2420:_ZN2ov2op2v322EmbeddingBagOffsetsSumC2ERKNS_6OutputINS_4NodeEEES7_S7_S7_S7_
libopenvino.so.2420:_ZN2ov2op2v34TopKC1ERKNS_6OutputINS_4NodeEEES7_lNS0_8TopKModeENS0_12TopKSortTypeERKNS_7element4TypeE
libopenvino.so.2420:_ZN2ov2op2v34TopKC1ERKNS_6OutputINS_4NodeEEES7_lRKNSt7__cxx1112basic_stringIcSt11char_traitsIcESaIcEEESF_RKNS_7element4TypeE
libopenvino.so.2420:_ZN2ov2op2v34TopKC2ERKNS_6OutputINS_4NodeEEES7_lNS0_8TopKModeENS0_12TopKSortTypeERKNS_7element4TypeE
libopenvino.so.2420:_ZN2ov2op2v34TopKC2ERKNS_6OutputINS_4NodeEEES7_lRKNSt7__cxx1112basic_stringIcSt11char_traitsIcESaIcEEESF_RKNS_7element4TypeE
libopenvino.so.2420:_ZN2ov2op2v35AcoshC1ERKNS_6OutputINS_4NodeEEE
libopenvino.so.2420:_ZN2ov2op2v35AcoshC2ERKNS_6OutputINS_4NodeEEE
libopenvino.so.2420:_ZN2ov2op2v35AsinhC1ERKNS_6OutputINS_4NodeEEE
libopenvino.so.2420:_ZN2ov2op2v35AsinhC2ERKNS_6OutputINS_4NodeEEE
libopenvino.so.2420:_ZN2ov2op2v35AtanhC1ERKNS_6OutputINS_4NodeEEE
libopenvino.so.2420:_ZN2ov2op2v35AtanhC2ERKNS_6OutputINS_4NodeEEE
libopenvino.so.2420:_ZN2ov2op2v36Assign16visit_attributesERNS_16AttributeVisitorE
libopenvino.so.2420:_ZN2ov2op2v36Assign24validate_and_infer_typesEv
libopenvino.so.2420:_ZN2ov2op2v36AssignC1ERKNS_6OutputINS_4NodeEEERKNSt7__cxx1112basic_stringIcSt11char_traitsIcESaIcEEE
libopenvino.so.2420:_ZN2ov2op2v36AssignC2ERKNS_6OutputINS_4NodeEEERKNSt7__cxx1112basic_stringIcSt11char_traitsIcESaIcEEE
libopenvino.so.2420:_ZN2ov2op2v37GRUCell16visit_attributesERNS_16AttributeVisitorE
libopenvino.so.2420:_ZN2ov2op2v37GRUCell22add_default_bias_inputEv
libopenvino.so.2420:_ZN2ov2op2v37GRUCell24validate_and_infer_typesEv
libopenvino.so.2420:_ZN2ov2op2v37GRUCellC1ERKNS_6OutputINS_4NodeEEES7_S7_S7_S7_mRKSt6vectorINSt7__cxx1112basic_stringIcSt11char_traitsIcESaIcEEESaISE_EERKS8_IfSaIfEESM_fb
libopenvino.so.2420:_ZN2ov2op2v37GRUCellC1ERKNS_6OutputINS_4NodeEEES7_S7_S7_m
libopenvino.so.2420:_ZN2ov2op2v37GRUCellC1ERKNS_6OutputINS_4NodeEEES7_S7_S7_mRKSt6vectorINSt7__cxx1112basic_stringIcSt11char_traitsIcESaIcEEESaISE_EERKS8_IfSaIfEESM_fb
libopenvino.so.2420:_ZN2ov2op2v37GRUCellC1Ev
libopenvino.so.2420:_ZN2ov2op2v37GRUCellC2ERKNS_6OutputINS_4NodeEEES7_S7_S7_S7_mRKSt6vectorINSt7__cxx1112basic_stringIcSt11char_traitsIcESaIcEEESaISE_EERKS8_IfSaIfEESM_fb
libopenvino.so.2420:_ZN2ov2op2v37GRUCellC2ERKNS_6OutputINS_4NodeEEES7_S7_S7_m
libopenvino.so.2420:_ZN2ov2op2v37GRUCellC2ERKNS_6OutputINS_4NodeEEES7_S7_S7_mRKSt6vectorINSt7__cxx1112basic_stringIcSt11char_traitsIcESaIcEEESaISE_EERKS8_IfSaIfEESM_fb
libopenvino.so.2420:_ZN2ov2op2v37GRUCellC2Ev
libopenvino.so.2420:_ZN2ov2op2v37NonZero16visit_attributesERNS_16AttributeVisitorE
libopenvino.so.2420:_ZN2ov2op2v37NonZero24validate_and_infer_typesEv
libopenvino.so.2420:_ZN2ov2op2v37NonZeroC1ERKNS_6OutputINS_4NodeEEE
libopenvino.so.2420:_ZN2ov2op2v37NonZeroC1ERKNS_6OutputINS_4NodeEEERKNS_7element4TypeE
libopenvino.so.2420:_ZN2ov2op2v37NonZeroC1ERKNS_6OutputINS_4NodeEEERKNSt7__cxx1112basic_stringIcSt11char_traitsIcESaIcEEE
libopenvino.so.2420:_ZN2ov2op2v37NonZeroC2ERKNS_6OutputINS_4NodeEEE
libopenvino.so.2420:_ZN2ov2op2v37NonZeroC2ERKNS_6OutputINS_4NodeEEERKNS_7element4TypeE
libopenvino.so.2420:_ZN2ov2op2v37NonZeroC2ERKNS_6OutputINS_4NodeEEERKNSt7__cxx1112basic_stringIcSt11char_traitsIcESaIcEEE
libopenvino.so.2420:_ZN2ov2op2v37ShapeOf13constant_foldERSt6vectorINS_6OutputINS_4NodeEEESaIS6_EERKS8_
libopenvino.so.2420:_ZN2ov2op2v37ShapeOf16visit_attributesERNS_16AttributeVisitorE
libopenvino.so.2420:_ZN2ov2op2v37ShapeOf24validate_and_infer_typesEv
libopenvino.so.2420:_ZN2ov2op2v37ShapeOfC1ERKNS_6OutputINS_4NodeEEENS_7element4TypeE
libopenvino.so.2420:_ZN2ov2op2v37ShapeOfC2ERKNS_6OutputINS_4NodeEEENS_7element4TypeE
libopenvino.so.2420:_ZN2ov2op2v38ROIAlign16visit_attributesERNS_16AttributeVisitorE
libopenvino.so.2420:_ZN2ov2op2v38ROIAlign24validate_and_infer_typesEv
libopenvino.so.2420:_ZN2ov2op2v38ROIAlignC1ERKNS_6OutputINS_4NodeEEES7_S7_iiifNS2_11PoolingModeE
libopenvino.so.2420:_ZN2ov2op2v38ROIAlignC1ERKNS_6OutputINS_4NodeEEES7_S7_iiifRKNSt7__cxx1112basic_stringIcSt11char_traitsIcESaIcEEE
libopenvino.so.2420:_ZN2ov2op2v38ROIAlignC2ERKNS_6OutputINS_4NodeEEES7_S7_iiifNS2_11PoolingModeE
libopenvino.so.2420:_ZN2ov2op2v38ROIAlignC2ERKNS_6OutputINS_4NodeEEES7_S7_iiifRKNSt7__cxx1112basic_stringIcSt11char_traitsIcESaIcEEE
libopenvino.so.2420:_ZN2ov2op2v39Broadcast16visit_attributesERNS_16AttributeVisitorE
libopenvino.so.2420:_ZN2ov2op2v39Broadcast24validate_and_infer_typesEv
libopenvino.so.2420:_ZN2ov2op2v39BroadcastC1ERKNS_6OutputINS_4NodeEEES7_RKNS0_17BroadcastModeSpecE
libopenvino.so.2420:_ZN2ov2op2v39BroadcastC1ERKNS_6OutputINS_4NodeEEES7_S7_RKNS0_17BroadcastModeSpecE
libopenvino.so.2420:_ZN2ov2op2v39BroadcastC2ERKNS_6OutputINS_4NodeEEES7_RKNS0_17BroadcastModeSpecE
libopenvino.so.2420:_ZN2ov2op2v39BroadcastC2ERKNS_6OutputINS_4NodeEEES7_S7_RKNS0_17BroadcastModeSpecE
libopenvino.so.2420:_ZN2ov2op2v39Bucketize16visit_attributesERNS_16AttributeVisitorE
libopenvino.so.2420:_ZN2ov2op2v39Bucketize24validate_and_infer_typesEv
libopenvino.so.2420:_ZN2ov2op2v39BucketizeC1ERKNS_6OutputINS_4NodeEEES7_NS_7element4TypeEb
libopenvino.so.2420:_ZN2ov2op2v39BucketizeC2ERKNS_6OutputINS_4NodeEEES7_NS_7element4TypeEb
libopenvino.so.2420:_ZN2ov2op2v39ReadValue16visit_attributesERNS_16AttributeVisitorE
libopenvino.so.2420:_ZN2ov2op2v39ReadValue24validate_and_infer_typesEv
libopenvino.so.2420:_ZN2ov2op2v39ReadValueC1ERKNS_6OutputINS_4NodeEEERKNSt7__cxx1112basic_stringIcSt11char_traitsIcESaIcEEE
libopenvino.so.2420:_ZN2ov2op2v39ReadValueC2ERKNS_6OutputINS_4NodeEEERKNSt7__cxx1112basic_stringIcSt11char_traitsIcESaIcEEE
libopenvino.so.2420:_ZN2ov2op2v411Interpolate24validate_and_infer_typesEv
libopenvino.so.2420:_ZN2ov2op2v411InterpolateC1ERKNS_6OutputINS_4NodeEEES7_S7_RKNS0_4util15InterpolateBase16InterpolateAttrsE
libopenvino.so.2420:_ZN2ov2op2v411InterpolateC1ERKNS_6OutputINS_4NodeEEES7_S7_S7_RKNS0_4util15InterpolateBase16InterpolateAttrsE
libopenvino.so.2420:_ZN2ov2op2v411InterpolateC2ERKNS_6OutputINS_4NodeEEES7_S7_RKNS0_4util15InterpolateBase16InterpolateAttrsE
libopenvino.so.2420:_ZN2ov2op2v411InterpolateC2ERKNS_6OutputINS_4NodeEEES7_S7_S7_RKNS0_4util15InterpolateBase16InterpolateAttrsE
libopenvino.so.2420:_ZN2ov2op2v417NonMaxSuppression24validate_and_infer_typesEv
libopenvino.so.2420:_ZN2ov2op2v417NonMaxSuppressionC1ERKNS_6OutputINS_4NodeEEES7_NS0_2v317NonMaxSuppression15BoxEncodingTypeEbRKNS_7element4TypeE
libopenvino.so.2420:_ZN2ov2op2v417NonMaxSuppressionC1ERKNS_6OutputINS_4NodeEEES7_S7_S7_S7_NS0_2v317NonMaxSuppression15BoxEncodingTypeEbRKNS_7element4TypeE
libopenvino.so.2420:_ZN2ov2op2v417NonMaxSuppressionC2ERKNS_6OutputINS_4NodeEEES7_NS0_2v317NonMaxSuppression15BoxEncodingTypeEbRKNS_7element4TypeE
libopenvino.so.2420:_ZN2ov2op2v417NonMaxSuppressionC2ERKNS_6OutputINS_4NodeEEES7_S7_S7_S7_NS0_2v317NonMaxSuppression15BoxEncodingTypeEbRKNS_7element4TypeE
libopenvino.so.2420:_ZN2ov2op2v44Mish24validate_and_infer_typesEv
libopenvino.so.2420:_ZN2ov2op2v44MishC1ERKNS_6OutputINS_4NodeEEE
libopenvino.so.2420:_ZN2ov2op2v44MishC2ERKNS_6OutputINS_4NodeEEE
libopenvino.so.2420:_ZN2ov2op2v45Range16visit_attributesERNS_16AttributeVisitorE
libopenvino.so.2420:_ZN2ov2op2v45Range24validate_and_infer_typesEv
libopenvino.so.2420:_ZN2ov2op2v45RangeC1ERKNS_6OutputINS_4NodeEEES7_S7_NS_7element4TypeE
libopenvino.so.2420:_ZN2ov2op2v45RangeC2ERKNS_6OutputINS_4NodeEEES7_S7_NS_7element4TypeE
libopenvino.so.2420:_ZN2ov2op2v45Swish24validate_and_infer_typesEv
libopenvino.so.2420:_ZN2ov2op2v45SwishC1ERKNS_6OutputINS_4NodeEEE
libopenvino.so.2420:_ZN2ov2op2v45SwishC1ERKNS_6OutputINS_4NodeEEES7_
libopenvino.so.2420:_ZN2ov2op2v45SwishC2ERKNS_6OutputINS_4NodeEEE
libopenvino.so.2420:_ZN2ov2op2v45SwishC2ERKNS_6OutputINS_4NodeEEES7_
libopenvino.so.2420:_ZN2ov2op2v46HSwishC1ERKNS_6OutputINS_4NodeEEE
libopenvino.so.2420:_ZN2ov2op2v46HSwishC2ERKNS_6OutputINS_4NodeEEE
libopenvino.so.2420:_ZN2ov2op2v47CTCLoss16visit_attributesERNS_16AttributeVisitorE
libopenvino.so.2420:_ZN2ov2op2v47CTCLoss24validate_and_infer_typesEv
libopenvino.so.2420:_ZN2ov2op2v47CTCLossC1ERKNS_6OutputINS_4NodeEEES7_S7_S7_S7_bbb
libopenvino.so.2420:_ZN2ov2op2v47CTCLossC1ERKNS_6OutputINS_4NodeEEES7_S7_S7_bbb
libopenvino.so.2420:_ZN2ov2op2v47CTCLossC2ERKNS_6OutputINS_4NodeEEES7_S7_S7_S7_bbb
libopenvino.so.2420:_ZN2ov2op2v47CTCLossC2ERKNS_6OutputINS_4NodeEEES7_S7_S7_bbb
libopenvino.so.2420:_ZN2ov2op2v48LSTMCell16visit_attributesERNS_16AttributeVisitorE
libopenvino.so.2420:_ZN2ov2op2v48LSTMCell24validate_and_infer_typesEv
libopenvino.so.2420:_ZN2ov2op2v48LSTMCellC1ERKNS_6OutputINS_4NodeEEES7_S7_S7_S7_S7_mRKSt6vectorINSt7__cxx1112basic_stringIcSt11char_traitsIcESaIcEEESaISE_EERKS8_IfSaIfEESM_f
libopenvino.so.2420:_ZN2ov2op2v48LSTMCellC1ERKNS_6OutputINS_4NodeEEES7_S7_S7_S7_mRKSt6vectorINSt7__cxx1112basic_stringIcSt11char_traitsIcESaIcEEESaISE_EERKS8_IfSaIfEESM_f
libopenvino.so.2420:_ZN2ov2op2v48LSTMCellC1Ev
libopenvino.so.2420:_ZN2ov2op2v48LSTMCellC2ERKNS_6OutputINS_4NodeEEES7_S7_S7_S7_S7_mRKSt6vectorINSt7__cxx1112basic_stringIcSt11char_traitsIcESaIcEEESaISE_EERKS8_IfSaIfEESM_f
libopenvino.so.2420:_ZN2ov2op2v48LSTMCellC2ERKNS_6OutputINS_4NodeEEES7_S7_S7_S7_mRKSt6vectorINSt7__cxx1112basic_stringIcSt11char_traitsIcESaIcEEESaISE_EERKS8_IfSaIfEESM_f
libopenvino.so.2420:_ZN2ov2op2v48LSTMCellC2Ev
libopenvino.so.2420:_ZN2ov2op2v48Proposal24validate_and_infer_typesEv
libopenvino.so.2420:_ZN2ov2op2v48ProposalC1ERKNS_6OutputINS_4NodeEEES7_S7_RKNS0_2v08Proposal10AttributesE
libopenvino.so.2420:_ZN2ov2op2v48ProposalC2ERKNS_6OutputINS_4NodeEEES7_S7_RKNS0_2v08Proposal10AttributesE
libopenvino.so.2420:_ZN2ov2op2v48ReduceL1C1ERKNS_6OutputINS_4NodeEEES7_b
libopenvino.so.2420:_ZN2ov2op2v48ReduceL1C2ERKNS_6OutputINS_4NodeEEES7_b
libopenvino.so.2420:_ZN2ov2op2v48ReduceL2C1ERKNS_6OutputINS_4NodeEEES7_b
libopenvino.so.2420:_ZN2ov2op2v48ReduceL2C2ERKNS_6OutputINS_4NodeEEES7_b
libopenvino.so.2420:_ZN2ov2op2v48SoftPlus24validate_and_infer_typesEv
libopenvino.so.2420:_ZN2ov2op2v48SoftPlusC1ERKNS_6OutputINS_4NodeEEE
libopenvino.so.2420:_ZN2ov2op2v48SoftPlusC2ERKNS_6OutputINS_4NodeEEE
libopenvino.so.2420:_ZN2ov2op2v510LogSoftmax16visit_attributesERNS_16AttributeVisitorE
libopenvino.so.2420:_ZN2ov2op2v510LogSoftmax24validate_and_infer_typesEv
libopenvino.so.2420:_ZN2ov2op2v510LogSoftmaxC1ERKNS_6OutputINS_4NodeEEEl
libopenvino.so.2420:_ZN2ov2op2v510LogSoftmaxC2ERKNS_6OutputINS_4NodeEEEl
libopenvino.so.2420:_ZN2ov2op2v511GRUSequence16visit_attributesERNS_16AttributeVisitorE
libopenvino.so.2420:_ZN2ov2op2v511GRUSequence24validate_and_infer_typesEv
libopenvino.so.2420:_ZN2ov2op2v511GRUSequenceC1ERKNS_6OutputINS_4NodeEEES7_S7_S7_S7_S7_mNS0_26RecurrentSequenceDirectionERKSt6vectorINSt7__cxx1112basic_stringIcSt11char_traitsIcESaIcEEESaISF_EERKS9_IfSaIfEESN_fb
libopenvino.so.2420:_ZN2ov2op2v511GRUSequenceC1Ev
libopenvino.so.2420:_ZN2ov2op2v511GRUSequenceC2ERKNS_6OutputINS_4NodeEEES7_S7_S7_S7_S7_mNS0_26RecurrentSequenceDirectionERKSt6vectorINSt7__cxx1112basic_stringIcSt11char_traitsIcESaIcEEESaISF_EERKS9_IfSaIfEESN_fb
libopenvino.so.2420:_ZN2ov2op2v511GRUSequenceC2Ev
libopenvino.so.2420:_ZN2ov2op2v511RNNSequence16visit_attributesERNS_16AttributeVisitorE
libopenvino.so.2420:_ZN2ov2op2v511RNNSequence24validate_and_infer_typesEv
libopenvino.so.2420:_ZN2ov2op2v511RNNSequenceC1ERKNS_6OutputINS_4NodeEEES7_S7_S7_S7_S7_mNS0_26RecurrentSequenceDirectionERKSt6vectorINSt7__cxx1112basic_stringIcSt11char_traitsIcESaIcEEESaISF_EERKS9_IfSaIfEESN_f
libopenvino.so.2420:_ZN2ov2op2v511RNNSequenceC1Ev
libopenvino.so.2420:_ZN2ov2op2v511RNNSequenceC2ERKNS_6OutputINS_4NodeEEES7_S7_S7_S7_S7_mNS0_26RecurrentSequenceDirectionERKSt6vectorINSt7__cxx1112basic_stringIcSt11char_traitsIcESaIcEEESaISF_EERKS9_IfSaIfEESN_f
libopenvino.so.2420:_ZN2ov2op2v511RNNSequenceC2Ev
libopenvino.so.2420:_ZN2ov2op2v512LSTMSequence16visit_attributesERNS_16AttributeVisitorE
libopenvino.so.2420:_ZN2ov2op2v512LSTMSequence24validate_and_infer_typesEv
libopenvino.so.2420:_ZN2ov2op2v517NonMaxSuppression16visit_attributesERNS_16AttributeVisitorE
libopenvino.so.2420:_ZN2ov2op2v517NonMaxSuppression24validate_and_infer_typesEv
libopenvino.so.2420:_ZN2ov2op2v517NonMaxSuppressionC1ERKNS_6OutputINS_4NodeEEES7_NS2_15BoxEncodingTypeEbRKNS_7element4TypeE
libopenvino.so.2420:_ZN2ov2op2v517NonMaxSuppressionC1ERKNS_6OutputINS_4NodeEEES7_S7_NS2_15BoxEncodingTypeEbRKNS_7element4TypeE
libopenvino.so.2420:_ZN2ov2op2v517NonMaxSuppressionC1ERKNS_6OutputINS_4NodeEEES7_S7_S7_NS2_15BoxEncodingTypeEbRKNS_7element4TypeE
libopenvino.so.2420:_ZN2ov2op2v517NonMaxSuppressionC1ERKNS_6OutputINS_4NodeEEES7_S7_S7_S7_NS2_15BoxEncodingTypeEbRKNS_7element4TypeE
libopenvino.so.2420:_ZN2ov2op2v517NonMaxSuppressionC1ERKNS_6OutputINS_4NodeEEES7_S7_S7_S7_S7_NS2_15BoxEncodingTypeEbRKNS_7element4TypeE
libopenvino.so.2420:_ZN2ov2op2v517NonMaxSuppressionC2ERKNS_6OutputINS_4NodeEEES7_NS2_15BoxEncodingTypeEbRKNS_7element4TypeE
libopenvino.so.2420:_ZN2ov2op2v517NonMaxSuppressionC2ERKNS_6OutputINS_4NodeEEES7_S7_NS2_15BoxEncodingTypeEbRKNS_7element4TypeE
libopenvino.so.2420:_ZN2ov2op2v517NonMaxSuppressionC2ERKNS_6OutputINS_4NodeEEES7_S7_S7_NS2_15BoxEncodingTypeEbRKNS_7element4TypeE
libopenvino.so.2420:_ZN2ov2op2v517NonMaxSuppressionC2ERKNS_6OutputINS_4NodeEEES7_S7_S7_S7_NS2_15BoxEncodingTypeEbRKNS_7element4TypeE
libopenvino.so.2420:_ZN2ov2op2v517NonMaxSuppressionC2ERKNS_6OutputINS_4NodeEEES7_S7_S7_S7_S7_NS2_15BoxEncodingTypeEbRKNS_7element4TypeE
libopenvino.so.2420:_ZN2ov2op2v518BatchNormInference16visit_attributesERNS_16AttributeVisitorE
libopenvino.so.2420:_ZN2ov2op2v518BatchNormInference24validate_and_infer_typesEv
libopenvino.so.2420:_ZN2ov2op2v518BatchNormInferenceC1ERKNS_6OutputINS_4NodeEEES7_S7_S7_S7_d
libopenvino.so.2420:_ZN2ov2op2v518BatchNormInferenceC2ERKNS_6OutputINS_4NodeEEES7_S7_S7_S7_d
libopenvino.so.2420:_ZN2ov2op2v54Loop16visit_attributesERNS_16AttributeVisitorE
libopenvino.so.2420:_ZN2ov2op2v54Loop23get_concatenated_slicesERKNS_6OutputINS_4NodeEEElllll
libopenvino.so.2420:_ZN2ov2op2v54Loop24validate_and_infer_typesEv
libopenvino.so.2420:_ZN2ov2op2v54LoopC1ERKNS_6OutputINS_4NodeEEES7_
libopenvino.so.2420:_ZN2ov2op2v54LoopC1ERKS2_
libopenvino.so.2420:_ZN2ov2op2v54LoopC2ERKNS_6OutputINS_4NodeEEES7_
libopenvino.so.2420:_ZN2ov2op2v54LoopC2ERKS2_
libopenvino.so.2420:_ZN2ov2op2v55Round16visit_attributesERNS_16AttributeVisitorE
libopenvino.so.2420:_ZN2ov2op2v55Round24validate_and_infer_typesEv
libopenvino.so.2420:_ZN2ov2op2v55RoundC1ERKNS_6OutputINS_4NodeEEENS2_9RoundModeE
libopenvino.so.2420:_ZN2ov2op2v55RoundC2ERKNS_6OutputINS_4NodeEEENS2_9RoundModeE
libopenvino.so.2420:_ZN2ov2op2v58GatherND24validate_and_infer_typesEv
libopenvino.so.2420:_ZN2ov2op2v58GatherNDC1ERKNS_6OutputINS_4NodeEEES7_m
libopenvino.so.2420:_ZN2ov2op2v58GatherNDC2ERKNS_6OutputINS_4NodeEEES7_m
libopenvino.so.2420:_ZN2ov2op2v58HSigmoidC1ERKNS_6OutputINS_4NodeEEE
libopenvino.so.2420:_ZN2ov2op2v58HSigmoidC2ERKNS_6OutputINS_4NodeEEE
libopenvino.so.2420:_ZN2ov2op2v614GatherElements16visit_attributesERNS_16AttributeVisitorE
libopenvino.so.2420:_ZN2ov2op2v614GatherElements24validate_and_infer_typesEv
libopenvino.so.2420:_ZN2ov2op2v614GatherElementsC1ERKNS_6OutputINS_4NodeEEES7_l
libopenvino.so.2420:_ZN2ov2op2v614GatherElementsC2ERKNS_6OutputINS_4NodeEEES7_l
libopenvino.so.2420:_ZN2ov2op2v622CTCGreedyDecoderSeqLen16visit_attributesERNS_16AttributeVisitorE
libopenvino.so.2420:_ZN2ov2op2v622CTCGreedyDecoderSeqLen24validate_and_infer_typesEv
libopenvino.so.2420:_ZN2ov2op2v622CTCGreedyDecoderSeqLenC1ERKNS_6OutputINS_4NodeEEES7_S7_bRKNS_7element4TypeESB_
libopenvino.so.2420:_ZN2ov2op2v622CTCGreedyDecoderSeqLenC1ERKNS_6OutputINS_4NodeEEES7_bRKNS_7element4TypeESB_
libopenvino.so.2420:_ZN2ov2op2v622CTCGreedyDecoderSeqLenC2ERKNS_6OutputINS_4NodeEEES7_S7_bRKNS_7element4TypeESB_
libopenvino.so.2420:_ZN2ov2op2v622CTCGreedyDecoderSeqLenC2ERKNS_6OutputINS_4NodeEEES7_bRKNS_7element4TypeESB_
libopenvino.so.2420:_ZN2ov2op2v629ExperimentalDetectronTopKROIs12set_max_roisEm
libopenvino.so.2420:_ZN2ov2op2v629ExperimentalDetectronTopKROIs16visit_attributesERNS_16AttributeVisitorE
libopenvino.so.2420:_ZN2ov2op2v629ExperimentalDetectronTopKROIs24validate_and_infer_typesEv
libopenvino.so.2420:_ZN2ov2op2v629ExperimentalDetectronTopKROIsC1ERKNS_6OutputINS_4NodeEEES7_m
libopenvino.so.2420:_ZN2ov2op2v629ExperimentalDetectronTopKROIsC2ERKNS_6OutputINS_4NodeEEES7_m
libopenvino.so.2420:_ZN2ov2op2v636ExperimentalDetectronDetectionOutput16visit_attributesERNS_16AttributeVisitorE
libopenvino.so.2420:_ZN2ov2op2v636ExperimentalDetectronDetectionOutput24validate_and_infer_typesEv
libopenvino.so.2420:_ZN2ov2op2v636ExperimentalDetectronDetectionOutput9set_attrsENS2_10AttributesE
libopenvino.so.2420:_ZN2ov2op2v636ExperimentalDetectronDetectionOutputC1ERKNS_6OutputINS_4NodeEEES7_S7_S7_RKNS2_10AttributesE
libopenvino.so.2420:_ZN2ov2op2v636ExperimentalDetectronDetectionOutputC2ERKNS_6OutputINS_4NodeEEES7_S7_S7_RKNS2_10AttributesE
libopenvino.so.2420:_ZN2ov2op2v639ExperimentalDetectronPriorGridGenerator16visit_attributesERNS_16AttributeVisitorE
libopenvino.so.2420:_ZN2ov2op2v639ExperimentalDetectronPriorGridGenerator24validate_and_infer_typesEv
libopenvino.so.2420:_ZN2ov2op2v639ExperimentalDetectronPriorGridGenerator9set_attrsENS2_10AttributesE
libopenvino.so.2420:_ZN2ov2op2v639ExperimentalDetectronPriorGridGeneratorC1ERKNS_6OutputINS_4NodeEEES7_S7_RKNS2_10AttributesE
libopenvino.so.2420:_ZN2ov2op2v639ExperimentalDetectronPriorGridGeneratorC2ERKNS_6OutputINS_4NodeEEES7_S7_RKNS2_10AttributesE
libopenvino.so.2420:_ZN2ov2op2v63MVN16visit_attributesERNS_16AttributeVisitorE
libopenvino.so.2420:_ZN2ov2op2v63MVN24validate_and_infer_typesEv
libopenvino.so.2420:_ZN2ov2op2v63MVNC1ERKNS_6OutputINS_4NodeEEES7_bfNS0_10MVNEpsModeE
libopenvino.so.2420:_ZN2ov2op2v63MVNC2ERKNS_6OutputINS_4NodeEEES7_bfNS0_10MVNEpsModeE
libopenvino.so.2420:_ZN2ov2op2v640ExperimentalDetectronROIFeatureExtractor16visit_attributesERNS_16AttributeVisitorE
libopenvino.so.2420:_ZN2ov2op2v640ExperimentalDetectronROIFeatureExtractor24validate_and_infer_typesEv
libopenvino.so.2420:_ZN2ov2op2v640ExperimentalDetectronROIFeatureExtractor9set_attrsENS2_10AttributesE
libopenvino.so.2420:_ZN2ov2op2v640ExperimentalDetectronROIFeatureExtractorC1ERKSt6vectorINS_6OutputINS_4NodeEEESaIS6_EERKNS2_10AttributesE
libopenvino.so.2420:_ZN2ov2op2v640ExperimentalDetectronROIFeatureExtractorC1ERKSt6vectorISt10shared_ptrINS_4NodeEESaIS6_EERKNS2_10AttributesE
libopenvino.so.2420:_ZN2ov2op2v640ExperimentalDetectronROIFeatureExtractorC2ERKSt6vectorINS_6OutputINS_4NodeEEESaIS6_EERKNS2_10AttributesE
libopenvino.so.2420:_ZN2ov2op2v640ExperimentalDetectronROIFeatureExtractorC2ERKSt6vectorISt10shared_ptrINS_4NodeEESaIS6_EERKNS2_10AttributesE
libopenvino.so.2420:_ZN2ov2op2v649ExperimentalDetectronGenerateProposalsSingleImage16visit_attributesERNS_16AttributeVisitorE
libopenvino.so.2420:_ZN2ov2op2v649ExperimentalDetectronGenerateProposalsSingleImage24validate_and_infer_typesEv
libopenvino.so.2420:_ZN2ov2op2v649ExperimentalDetectronGenerateProposalsSingleImage9set_attrsENS2_10AttributesE
libopenvino.so.2420:_ZN2ov2op2v649ExperimentalDetectronGenerateProposalsSingleImageC1ERKNS_6OutputINS_4NodeEEES7_S7_S7_RKNS2_10AttributesE
libopenvino.so.2420:_ZN2ov2op2v649ExperimentalDetectronGenerateProposalsSingleImageC2ERKNS_6OutputINS_4NodeEEES7_S7_S7_RKNS2_10AttributesE
libopenvino.so.2420:_ZN2ov2op2v66Assign13constant_foldERSt6vectorINS_6OutputINS_4NodeEEESaIS6_EERKS8_
libopenvino.so.2420:_ZN2ov2op2v66Assign16visit_attributesERNS_16AttributeVisitorE
libopenvino.so.2420:_ZN2ov2op2v66Assign24validate_and_infer_typesEv
libopenvino.so.2420:_ZN2ov2op2v66AssignC1ERKNS_6OutputINS_4NodeEEERKSt10shared_ptrINS0_4util8VariableEE
libopenvino.so.2420:_ZN2ov2op2v66AssignC2ERKNS_6OutputINS_4NodeEEERKSt10shared_ptrINS0_4util8VariableEE
libopenvino.so.2420:_ZN2ov2op2v69ReadValue13constant_foldERSt6vectorINS_6OutputINS_4NodeEEESaIS6_EERKS8_
libopenvino.so.2420:_ZN2ov2op2v69ReadValue16visit_attributesERNS_16AttributeVisitorE
libopenvino.so.2420:_ZN2ov2op2v69ReadValue24validate_and_infer_typesEv
libopenvino.so.2420:_ZN2ov2op2v69ReadValue26revalidate_and_infer_typesEv
libopenvino.so.2420:_ZN2ov2op2v69ReadValueC1ERKNS_6OutputINS_4NodeEEERKSt10shared_ptrINS0_4util8VariableEE
libopenvino.so.2420:_ZN2ov2op2v69ReadValueC1ERKSt10shared_ptrINS0_4util8VariableEE
libopenvino.so.2420:_ZN2ov2op2v69ReadValueC2ERKNS_6OutputINS_4NodeEEERKSt10shared_ptrINS0_4util8VariableEE
libopenvino.so.2420:_ZN2ov2op2v69ReadValueC2ERKSt10shared_ptrINS0_4util8VariableEE
libopenvino.so.2420:_ZN2ov2op2v73DFTC1ERKNS_6OutputINS_4NodeEEES7_
libopenvino.so.2420:_ZN2ov2op2v73DFTC1ERKNS_6OutputINS_4NodeEEES7_S7_
libopenvino.so.2420:_ZN2ov2op2v73DFTC2ERKNS_6OutputINS_4NodeEEES7_
libopenvino.so.2420:_ZN2ov2op2v73DFTC2ERKNS_6OutputINS_4NodeEEES7_S7_
libopenvino.so.2420:_ZN2ov2op2v74Gelu16visit_attributesERNS_16AttributeVisitorE
libopenvino.so.2420:_ZN2ov2op2v74Gelu24validate_and_infer_typesEv
libopenvino.so.2420:_ZN2ov2op2v74GeluC1ERKNS_6OutputINS_4NodeEEENS0_21GeluApproximationModeE
libopenvino.so.2420:_ZN2ov2op2v74GeluC2ERKNS_6OutputINS_4NodeEEENS0_21GeluApproximationModeE
libopenvino.so.2420:_ZN2ov2op2v74IDFTC1ERKNS_6OutputINS_4NodeEEES7_
libopenvino.so.2420:_ZN2ov2op2v74IDFTC1ERKNS_6OutputINS_4NodeEEES7_S7_
libopenvino.so.2420:_ZN2ov2op2v74IDFTC2ERKNS_6OutputINS_4NodeEEES7_
libopenvino.so.2420:_ZN2ov2op2v74IDFTC2ERKNS_6OutputINS_4NodeEEES7_S7_
libopenvino.so.2420:_ZN2ov2op2v74Roll16visit_attributesERNS_16AttributeVisitorE
libopenvino.so.2420:_ZN2ov2op2v74Roll24validate_and_infer_typesEv
libopenvino.so.2420:_ZN2ov2op2v74RollC1ERKNS_6OutputINS_4NodeEEES7_S7_
libopenvino.so.2420:_ZN2ov2op2v74RollC2ERKNS_6OutputINS_4NodeEEES7_S7_
libopenvino.so.2420:_ZN2ov2op2v76Einsum12set_equationENSt7__cxx1112basic_stringIcSt11char_traitsIcESaIcEEE
libopenvino.so.2420:_ZN2ov2op2v76Einsum14extract_labelsERKNSt7__cxx1112basic_stringIcSt11char_traitsIcESaIcEEE
libopenvino.so.2420:_ZN2ov2op2v76Einsum14parse_equationERKNSt7__cxx1112basic_stringIcSt11char_traitsIcESaIcEEERSt6vectorIS8_SaIS8_EERS8_
libopenvino.so.2420:_ZN2ov2op2v76Einsum16visit_attributesERNS_16AttributeVisitorE
libopenvino.so.2420:_ZN2ov2op2v76Einsum24validate_and_infer_typesEv
libopenvino.so.2420:_ZN2ov2op2v76EinsumC1ERKSt6vectorINS_6OutputINS_4NodeEEESaIS6_EERKNSt7__cxx1112basic_stringIcSt11char_traitsIcESaIcEEE
libopenvino.so.2420:_ZN2ov2op2v76EinsumC2ERKSt6vectorINS_6OutputINS_4NodeEEESaIS6_EERKNSt7__cxx1112basic_stringIcSt11char_traitsIcESaIcEEE
libopenvino.so.2420:_ZN2ov2op2v76Gather16visit_attributesERNS_16AttributeVisitorE
libopenvino.so.2420:_ZN2ov2op2v76Gather24validate_and_infer_typesEv
libopenvino.so.2420:_ZN2ov2op2v76GatherC1ERKNS_6OutputINS_4NodeEEES7_S7_l
libopenvino.so.2420:_ZN2ov2op2v76GatherC2ERKNS_6OutputINS_4NodeEEES7_S7_l
libopenvino.so.2420:_ZN2ov2op2v813MulticlassNms24validate_and_infer_typesEv
libopenvino.so.2420:_ZN2ov2op2v813MulticlassNmsC1ERKNS_6OutputINS_4NodeEEES7_RKNS0_4util17MulticlassNmsBase10AttributesE
libopenvino.so.2420:_ZN2ov2op2v813MulticlassNmsC2ERKNS_6OutputINS_4NodeEEES7_RKNS0_4util17MulticlassNmsBase10AttributesE
libopenvino.so.2420:_ZN2ov2op2v813RandomUniform16visit_attributesERNS_16AttributeVisitorE
libopenvino.so.2420:_ZN2ov2op2v813RandomUniform24validate_and_infer_typesEv
libopenvino.so.2420:_ZN2ov2op2v813RandomUniformC1ERKNS_6OutputINS_4NodeEEES7_S7_RKNS_7element4TypeEmm
libopenvino.so.2420:_ZN2ov2op2v813RandomUniformC2ERKNS_6OutputINS_4NodeEEES7_S7_RKNS_7element4TypeEmm
libopenvino.so.2420:_ZN2ov2op2v815AdaptiveAvgPool24validate_and_infer_typesEv
libopenvino.so.2420:_ZN2ov2op2v815AdaptiveAvgPoolC1ERKNS_6OutputINS_4NodeEEES7_
libopenvino.so.2420:_ZN2ov2op2v815AdaptiveAvgPoolC2ERKNS_6OutputINS_4NodeEEES7_
libopenvino.so.2420:_ZN2ov2op2v815AdaptiveMaxPool16visit_attributesERNS_16AttributeVisitorE
libopenvino.so.2420:_ZN2ov2op2v815AdaptiveMaxPool22set_index_element_typeERKNS_7element4TypeE
libopenvino.so.2420:_ZN2ov2op2v815AdaptiveMaxPool24validate_and_infer_typesEv
libopenvino.so.2420:_ZN2ov2op2v815AdaptiveMaxPoolC1ERKNS_6OutputINS_4NodeEEES7_RKNS_7element4TypeE
libopenvino.so.2420:_ZN2ov2op2v815AdaptiveMaxPoolC2ERKNS_6OutputINS_4NodeEEES7_RKNS_7element4TypeE
libopenvino.so.2420:_ZN2ov2op2v815DetectionOutput16visit_attributesERNS_16AttributeVisitorE
libopenvino.so.2420:_ZN2ov2op2v815DetectionOutput24validate_and_infer_typesEv
libopenvino.so.2420:_ZN2ov2op2v815DetectionOutputC1ERKNS_6OutputINS_4NodeEEES7_S7_RKNS0_4util19DetectionOutputBase14AttributesBaseE
libopenvino.so.2420:_ZN2ov2op2v815DetectionOutputC1ERKNS_6OutputINS_4NodeEEES7_S7_S7_S7_RKNS0_4util19DetectionOutputBase14AttributesBaseE
libopenvino.so.2420:_ZN2ov2op2v815DetectionOutputC2ERKNS_6OutputINS_4NodeEEES7_S7_RKNS0_4util19DetectionOutputBase14AttributesBaseE
libopenvino.so.2420:_ZN2ov2op2v815DetectionOutputC2ERKNS_6OutputINS_4NodeEEES7_S7_S7_S7_RKNS0_4util19DetectionOutputBase14AttributesBaseE
libopenvino.so.2420:_ZN2ov2op2v821DeformableConvolution16visit_attributesERNS_16AttributeVisitorE
libopenvino.so.2420:_ZN2ov2op2v821DeformableConvolution24validate_and_infer_typesEv
libopenvino.so.2420:_ZN2ov2op2v821DeformableConvolutionC1ERKNS_6OutputINS_4NodeEEES7_S7_RKNS_7StridesERKNS_14CoordinateDiffESD_SA_RKNS0_7PadTypeEllb
libopenvino.so.2420:_ZN2ov2op2v821DeformableConvolutionC1ERKNS_6OutputINS_4NodeEEES7_S7_S7_RKNS_7StridesERKNS_14CoordinateDiffESD_SA_RKNS0_7PadTypeEllb
libopenvino.so.2420:_ZN2ov2op2v821DeformableConvolutionC2ERKNS_6OutputINS_4NodeEEES7_S7_RKNS_7StridesERKNS_14CoordinateDiffESD_SA_RKNS0_7PadTypeEllb
libopenvino.so.2420:_ZN2ov2op2v821DeformableConvolutionC2ERKNS_6OutputINS_4NodeEEES7_S7_S7_RKNS_7StridesERKNS_14CoordinateDiffESD_SA_RKNS0_7PadTypeEllb
libopenvino.so.2420:_ZN2ov2op2v82If10set_outputERKSt10shared_ptrINS0_2v06ResultEES8_
libopenvino.so.2420:_ZN2ov2op2v82If16visit_attributesERNS_16AttributeVisitorE
libopenvino.so.2420:_ZN2ov2op2v82If24validate_and_infer_typesEv
libopenvino.so.2420:_ZN2ov2op2v82If9set_inputERKNS_6OutputINS_4NodeEEERKSt10shared_ptrINS0_2v09ParameterEESD_
libopenvino.so.2420:_ZN2ov2op2v82IfC1ERKNS_6OutputINS_4NodeEEE
libopenvino.so.2420:_ZN2ov2op2v82IfC1Ev
libopenvino.so.2420:_ZN2ov2op2v82IfC2ERKNS_6OutputINS_4NodeEEE
libopenvino.so.2420:_ZN2ov2op2v82IfC2Ev
libopenvino.so.2420:_ZN2ov2op2v85Slice24validate_and_infer_typesEv
libopenvino.so.2420:_ZN2ov2op2v85SliceC1ERKNS_6OutputINS_4NodeEEES7_S7_S7_
libopenvino.so.2420:_ZN2ov2op2v85SliceC1ERKNS_6OutputINS_4NodeEEES7_S7_S7_S7_
libopenvino.so.2420:_ZN2ov2op2v85SliceC2ERKNS_6OutputINS_4NodeEEES7_S7_S7_
libopenvino.so.2420:_ZN2ov2op2v85SliceC2ERKNS_6OutputINS_4NodeEEES7_S7_S7_S7_
libopenvino.so.2420:_ZN2ov2op2v86Gather16visit_attributesERNS_16AttributeVisitorE
libopenvino.so.2420:_ZN2ov2op2v86Gather24validate_and_infer_typesEv
libopenvino.so.2420:_ZN2ov2op2v86GatherC1ERKNS_6OutputINS_4NodeEEES7_S7_l
libopenvino.so.2420:_ZN2ov2op2v86GatherC2ERKNS_6OutputINS_4NodeEEES7_S7_l
libopenvino.so.2420:_ZN2ov2op2v87MaxPool13set_dilationsERKNS_7StridesE
libopenvino.so.2420:_ZN2ov2op2v87MaxPool16visit_attributesERNS_16AttributeVisitorE
libopenvino.so.2420:_ZN2ov2op2v87MaxPool22set_index_element_typeENS_7element4TypeE
libopenvino.so.2420:_ZN2ov2op2v87MaxPool24validate_and_infer_typesEv
libopenvino.so.2420:_ZN2ov2op2v87MaxPool8set_axisEl
libopenvino.so.2420:_ZN2ov2op2v87MaxPoolC1ERKNS_6OutputINS_4NodeEEERKNS_7StridesESA_RKNS_5ShapeESD_SD_NS0_12RoundingTypeENS0_7PadTypeENS_7element4TypeEl
libopenvino.so.2420:_ZN2ov2op2v87MaxPoolC2ERKNS_6OutputINS_4NodeEEERKNS_7StridesESA_RKNS_5ShapeESD_SD_NS0_12RoundingTypeENS0_7PadTypeENS_7element4TypeEl
libopenvino.so.2420:_ZN2ov2op2v87Softmax16visit_attributesERNS_16AttributeVisitorE
libopenvino.so.2420:_ZN2ov2op2v87Softmax24validate_and_infer_typesEv
libopenvino.so.2420:_ZN2ov2op2v87SoftmaxC1ERKNS_6OutputINS_4NodeEEEl
libopenvino.so.2420:_ZN2ov2op2v87SoftmaxC2ERKNS_6OutputINS_4NodeEEEl
libopenvino.so.2420:_ZN2ov2op2v88GatherND24validate_and_infer_typesEv
libopenvino.so.2420:_ZN2ov2op2v88GatherNDC1ERKNS_6OutputINS_4NodeEEES7_m
libopenvino.so.2420:_ZN2ov2op2v88GatherNDC2ERKNS_6OutputINS_4NodeEEES7_m
libopenvino.so.2420:_ZN2ov2op2v88PriorBox16number_of_priorsERKNS2_10AttributesE
libopenvino.so.2420:_ZN2ov2op2v88PriorBox16visit_attributesERNS_16AttributeVisitorE
libopenvino.so.2420:_ZN2ov2op2v88PriorBox23normalized_aspect_ratioERKSt6vectorIfSaIfEEb
libopenvino.so.2420:_ZN2ov2op2v88PriorBox24validate_and_infer_typesEv
libopenvino.so.2420:_ZN2ov2op2v88PriorBox9set_attrsENS2_10AttributesE
libopenvino.so.2420:_ZN2ov2op2v88PriorBoxC1ERKNS_6OutputINS_4NodeEEES7_RKNS2_10AttributesE
libopenvino.so.2420:_ZN2ov2op2v88PriorBoxC2ERKNS_6OutputINS_4NodeEEES7_RKNS2_10AttributesE
libopenvino.so.2420:_ZN2ov2op2v89I420toBGRC1ERKNS_6OutputINS_4NodeEEE
libopenvino.so.2420:_ZN2ov2op2v89I420toBGRC1ERKNS_6OutputINS_4NodeEEES7_S7_
libopenvino.so.2420:_ZN2ov2op2v89I420toBGRC2ERKNS_6OutputINS_4NodeEEE
libopenvino.so.2420:_ZN2ov2op2v89I420toBGRC2ERKNS_6OutputINS_4NodeEEES7_S7_
libopenvino.so.2420:_ZN2ov2op2v89I420toRGBC1ERKNS_6OutputINS_4NodeEEE
libopenvino.so.2420:_ZN2ov2op2v89I420toRGBC1ERKNS_6OutputINS_4NodeEEES7_S7_
libopenvino.so.2420:_ZN2ov2op2v89I420toRGBC2ERKNS_6OutputINS_4NodeEEE
libopenvino.so.2420:_ZN2ov2op2v89I420toRGBC2ERKNS_6OutputINS_4NodeEEES7_S7_
libopenvino.so.2420:_ZN2ov2op2v89MatrixNms16visit_attributesERNS_16AttributeVisitorE
libopenvino.so.2420:_ZN2ov2op2v89MatrixNms24validate_and_infer_typesEv
libopenvino.so.2420:_ZN2ov2op2v89MatrixNms8validateEv
libopenvino.so.2420:_ZN2ov2op2v89MatrixNms9set_attrsENS2_10AttributesE
libopenvino.so.2420:_ZN2ov2op2v89MatrixNmsC1ERKNS_6OutputINS_4NodeEEES7_RKNS2_10AttributesE
libopenvino.so.2420:_ZN2ov2op2v89MatrixNmsC2ERKNS_6OutputINS_4NodeEEES7_RKNS2_10AttributesE
libopenvino.so.2420:_ZN2ov2op2v89NV12toBGRC1ERKNS_6OutputINS_4NodeEEE
libopenvino.so.2420:_ZN2ov2op2v89NV12toBGRC1ERKNS_6OutputINS_4NodeEEES7_
libopenvino.so.2420:_ZN2ov2op2v89NV12toBGRC2ERKNS_6OutputINS_4NodeEEE
libopenvino.so.2420:_ZN2ov2op2v89NV12toBGRC2ERKNS_6OutputINS_4NodeEEES7_
libopenvino.so.2420:_ZN2ov2op2v89NV12toRGBC1ERKNS_6OutputINS_4NodeEEE
libopenvino.so.2420:_ZN2ov2op2v89NV12toRGBC1ERKNS_6OutputINS_4NodeEEES7_
libopenvino.so.2420:_ZN2ov2op2v89NV12toRGBC2ERKNS_6OutputINS_4NodeEEE
libopenvino.so.2420:_ZN2ov2op2v89NV12toRGBC2ERKNS_6OutputINS_4NodeEEES7_
libopenvino.so.2420:_ZN2ov2op2v910GridSample16visit_attributesERNS_16AttributeVisitorE
libopenvino.so.2420:_ZN2ov2op2v910GridSample24validate_and_infer_typesEv
libopenvino.so.2420:_ZN2ov2op2v910GridSampleC1ERKNS_6OutputINS_4NodeEEES7_RKNS2_10AttributesE
libopenvino.so.2420:_ZN2ov2op2v910GridSampleC2ERKNS_6OutputINS_4NodeEEES7_RKNS2_10AttributesE
libopenvino.so.2420:_ZN2ov2op2v913MulticlassNms24validate_and_infer_typesEv
libopenvino.so.2420:_ZN2ov2op2v913MulticlassNmsC1ERKNS_6OutputINS_4NodeEEES7_RKNS0_4util17MulticlassNmsBase10AttributesE
libopenvino.so.2420:_ZN2ov2op2v913MulticlassNmsC1ERKNS_6OutputINS_4NodeEEES7_S7_RKNS0_4util17MulticlassNmsBase10AttributesE
libopenvino.so.2420:_ZN2ov2op2v913MulticlassNmsC2ERKNS_6OutputINS_4NodeEEES7_RKNS0_4util17MulticlassNmsBase10AttributesE
libopenvino.so.2420:_ZN2ov2op2v913MulticlassNmsC2ERKNS_6OutputINS_4NodeEEES7_S7_RKNS0_4util17MulticlassNmsBase10AttributesE
libopenvino.so.2420:_ZN2ov2op2v917GenerateProposals16visit_attributesERNS_16AttributeVisitorE
libopenvino.so.2420:_ZN2ov2op2v917GenerateProposals24validate_and_infer_typesEv
libopenvino.so.2420:_ZN2ov2op2v917GenerateProposals9set_attrsENS2_10AttributesE
libopenvino.so.2420:_ZN2ov2op2v917GenerateProposalsC1ERKNS_6OutputINS_4NodeEEES7_S7_S7_RKNS2_10AttributesERKNS_7element4TypeE
libopenvino.so.2420:_ZN2ov2op2v917GenerateProposalsC2ERKNS_6OutputINS_4NodeEEES7_S7_S7_RKNS2_10AttributesERKNS_7element4TypeE
libopenvino.so.2420:_ZN2ov2op2v917NonMaxSuppression16visit_attributesERNS_16AttributeVisitorE
libopenvino.so.2420:_ZN2ov2op2v917NonMaxSuppression24validate_and_infer_typesEv
libopenvino.so.2420:_ZN2ov2op2v917NonMaxSuppressionC1ERKNS_6OutputINS_4NodeEEES7_NS2_15BoxEncodingTypeEbRKNS_7element4TypeE
libopenvino.so.2420:_ZN2ov2op2v917NonMaxSuppressionC1ERKNS_6OutputINS_4NodeEEES7_S7_NS2_15BoxEncodingTypeEbRKNS_7element4TypeE
libopenvino.so.2420:_ZN2ov2op2v917NonMaxSuppressionC1ERKNS_6OutputINS_4NodeEEES7_S7_S7_NS2_15BoxEncodingTypeEbRKNS_7element4TypeE
libopenvino.so.2420:_ZN2ov2op2v917NonMaxSuppressionC1ERKNS_6OutputINS_4NodeEEES7_S7_S7_S7_NS2_15BoxEncodingTypeEbRKNS_7element4TypeE
libopenvino.so.2420:_ZN2ov2op2v917NonMaxSuppressionC1ERKNS_6OutputINS_4NodeEEES7_S7_S7_S7_S7_NS2_15BoxEncodingTypeEbRKNS_7element4TypeE
libopenvino.so.2420:_ZN2ov2op2v917NonMaxSuppressionC2ERKNS_6OutputINS_4NodeEEES7_NS2_15BoxEncodingTypeEbRKNS_7element4TypeE
libopenvino.so.2420:_ZN2ov2op2v917NonMaxSuppressionC2ERKNS_6OutputINS_4NodeEEES7_S7_NS2_15BoxEncodingTypeEbRKNS_7element4TypeE
libopenvino.so.2420:_ZN2ov2op2v917NonMaxSuppressionC2ERKNS_6OutputINS_4NodeEEES7_S7_S7_NS2_15BoxEncodingTypeEbRKNS_7element4TypeE
libopenvino.so.2420:_ZN2ov2op2v917NonMaxSuppressionC2ERKNS_6OutputINS_4NodeEEES7_S7_S7_S7_NS2_15BoxEncodingTypeEbRKNS_7element4TypeE
libopenvino.so.2420:_ZN2ov2op2v917NonMaxSuppressionC2ERKNS_6OutputINS_4NodeEEES7_S7_S7_S7_S7_NS2_15BoxEncodingTypeEbRKNS_7element4TypeE
libopenvino.so.2420:_ZN2ov2op2v93Eye16visit_attributesERNS_16AttributeVisitorE
libopenvino.so.2420:_ZN2ov2op2v93Eye24validate_and_infer_typesEv
libopenvino.so.2420:_ZN2ov2op2v93EyeC1ERKNS_6OutputINS_4NodeEEES7_S7_RKNS_7element4TypeE
libopenvino.so.2420:_ZN2ov2op2v93EyeC1ERKNS_6OutputINS_4NodeEEES7_S7_S7_RKNS_7element4TypeE
libopenvino.so.2420:_ZN2ov2op2v93EyeC2ERKNS_6OutputINS_4NodeEEES7_S7_RKNS_7element4TypeE
libopenvino.so.2420:_ZN2ov2op2v93EyeC2ERKNS_6OutputINS_4NodeEEES7_S7_S7_RKNS_7element4TypeE
libopenvino.so.2420:_ZN2ov2op2v94RDFT24validate_and_infer_typesEv
libopenvino.so.2420:_ZN2ov2op2v94RDFTC1ERKNS_6OutputINS_4NodeEEES7_
libopenvino.so.2420:_ZN2ov2op2v94RDFTC1ERKNS_6OutputINS_4NodeEEES7_S7_
libopenvino.so.2420:_ZN2ov2op2v94RDFTC2ERKNS_6OutputINS_4NodeEEES7_
libopenvino.so.2420:_ZN2ov2op2v94RDFTC2ERKNS_6OutputINS_4NodeEEES7_S7_
libopenvino.so.2420:_ZN2ov2op2v95IRDFT24validate_and_infer_typesEv
libopenvino.so.2420:_ZN2ov2op2v95IRDFTC1ERKNS_6OutputINS_4NodeEEES7_
libopenvino.so.2420:_ZN2ov2op2v95IRDFTC1ERKNS_6OutputINS_4NodeEEES7_S7_
libopenvino.so.2420:_ZN2ov2op2v95IRDFTC2ERKNS_6OutputINS_4NodeEEES7_
libopenvino.so.2420:_ZN2ov2op2v95IRDFTC2ERKNS_6OutputINS_4NodeEEES7_S7_
libopenvino.so.2420:_ZN2ov2op2v98ROIAlign16visit_attributesERNS_16AttributeVisitorE
libopenvino.so.2420:_ZN2ov2op2v98ROIAlign24validate_and_infer_typesEv
libopenvino.so.2420:_ZN2ov2op2v98ROIAlignC1ERKNS_6OutputINS_4NodeEEES7_S7_iiifNS2_11PoolingModeENS2_11AlignedModeE
libopenvino.so.2420:_ZN2ov2op2v98ROIAlignC2ERKNS_6OutputINS_4NodeEEES7_S7_iiifNS2_11PoolingModeENS2_11AlignedModeE
libopenvino.so.2420:_ZN2ov2op2v98SoftSign24validate_and_infer_typesEv
libopenvino.so.2420:_ZN2ov2op2v98SoftSignC1ERKNS_6OutputINS_4NodeEEE
libopenvino.so.2420:_ZN2ov2op2v98SoftSignC2ERKNS_6OutputINS_4NodeEEE
libopenvino.so.2420:_ZN2ov2op35get_output_tensors_of_original_typeERKSt6vectorINS_6TensorESaIS2_EERKS1_INS_7element4TypeESaIS8_EE
libopenvino.so.2420:_ZN2ov2op3v105IsInf16visit_attributesERNS_16AttributeVisitorE
libopenvino.so.2420:_ZN2ov2op3v105IsInf24validate_and_infer_typesEv
libopenvino.so.2420:_ZN2ov2op3v105IsInfC1ERKNS_6OutputINS_4NodeEEE
libopenvino.so.2420:_ZN2ov2op3v105IsInfC1ERKNS_6OutputINS_4NodeEEERKNS2_10AttributesE
libopenvino.so.2420:_ZN2ov2op3v105IsInfC2ERKNS_6OutputINS_4NodeEEE
libopenvino.so.2420:_ZN2ov2op3v105IsInfC2ERKNS_6OutputINS_4NodeEEERKNS2_10AttributesE
libopenvino.so.2420:_ZN2ov2op3v105IsNaN16visit_attributesERNS_16AttributeVisitorE
libopenvino.so.2420:_ZN2ov2op3v105IsNaN24validate_and_infer_typesEv
libopenvino.so.2420:_ZN2ov2op3v105IsNaNC1ERKNS_6OutputINS_4NodeEEE
libopenvino.so.2420:_ZN2ov2op3v105IsNaNC2ERKNS_6OutputINS_4NodeEEE
libopenvino.so.2420:_ZN2ov2op3v106Unique16visit_attributesERNS_16AttributeVisitorE
libopenvino.so.2420:_ZN2ov2op3v106Unique24validate_and_infer_typesEv
libopenvino.so.2420:_ZN2ov2op3v106UniqueC1ERKNS_6OutputINS_4NodeEEES7_bRKNS_7element4TypeESB_
libopenvino.so.2420:_ZN2ov2op3v106UniqueC1ERKNS_6OutputINS_4NodeEEEbRKNS_7element4TypeESB_
libopenvino.so.2420:_ZN2ov2op3v106UniqueC2ERKNS_6OutputINS_4NodeEEES7_bRKNS_7element4TypeESB_
libopenvino.so.2420:_ZN2ov2op3v106UniqueC2ERKNS_6OutputINS_4NodeEEEbRKNS_7element4TypeESB_
libopenvino.so.2420:_ZN2ov2op3v108IsFinite16visit_attributesERNS_16AttributeVisitorE
libopenvino.so.2420:_ZN2ov2op3v108IsFinite24validate_and_infer_typesEv
libopenvino.so.2420:_ZN2ov2op3v108IsFiniteC1ERKNS_6OutputINS_4NodeEEE
libopenvino.so.2420:_ZN2ov2op3v108IsFiniteC2ERKNS_6OutputINS_4NodeEEE
libopenvino.so.2420:_ZN2ov2op3v1111Interpolate24validate_and_infer_typesEv
libopenvino.so.2420:_ZN2ov2op3v1111InterpolateC1ERKNS_6OutputINS_4NodeEEES7_RKNS0_4util15InterpolateBase16InterpolateAttrsE
libopenvino.so.2420:_ZN2ov2op3v1111InterpolateC1ERKNS_6OutputINS_4NodeEEES7_S7_RKNS0_4util15InterpolateBase16InterpolateAttrsE
libopenvino.so.2420:_ZN2ov2op3v1111InterpolateC2ERKNS_6OutputINS_4NodeEEES7_RKNS0_4util15InterpolateBase16InterpolateAttrsE
libopenvino.so.2420:_ZN2ov2op3v1111InterpolateC2ERKNS_6OutputINS_4NodeEEES7_S7_RKNS0_4util15InterpolateBase16InterpolateAttrsE
libopenvino.so.2420:_ZN2ov2op3v114TopK16visit_attributesERNS_16AttributeVisitorE
libopenvino.so.2420:_ZN2ov2op3v114TopK24validate_and_infer_typesEv
libopenvino.so.2420:_ZN2ov2op3v114TopKC1ERKNS_6OutputINS_4NodeEEES7_lNS0_8TopKModeENS0_12TopKSortTypeERKNS_7element4TypeEb
libopenvino.so.2420:_ZN2ov2op3v114TopKC1ERKNS_6OutputINS_4NodeEEES7_lRKNSt7__cxx1112basic_stringIcSt11char_traitsIcESaIcEEESF_RKNS_7element4TypeEb
libopenvino.so.2420:_ZN2ov2op3v114TopKC2ERKNS_6OutputINS_4NodeEEES7_lNS0_8TopKModeENS0_12TopKSortTypeERKNS_7element4TypeEb
libopenvino.so.2420:_ZN2ov2op3v114TopKC2ERKNS_6OutputINS_4NodeEEES7_lRKNSt7__cxx1112basic_stringIcSt11char_traitsIcESaIcEEESF_RKNS_7element4TypeEb
libopenvino.so.2420:_ZN2ov2op3v1218GroupNormalization16visit_attributesERNS_16AttributeVisitorE
libopenvino.so.2420:_ZN2ov2op3v1218GroupNormalization24validate_and_infer_typesEv
libopenvino.so.2420:_ZN2ov2op3v1218GroupNormalizationC1ERKNS_6OutputINS_4NodeEEES7_S7_ld
libopenvino.so.2420:_ZN2ov2op3v1218GroupNormalizationC1Ev
libopenvino.so.2420:_ZN2ov2op3v1218GroupNormalizationC2ERKNS_6OutputINS_4NodeEEES7_S7_ld
libopenvino.so.2420:_ZN2ov2op3v1218GroupNormalizationC2Ev
libopenvino.so.2420:_ZN2ov2op3v1221ScatterElementsUpdate16visit_attributesERNS_16AttributeVisitorE
libopenvino.so.2420:_ZN2ov2op3v1221ScatterElementsUpdate24validate_and_infer_typesEv
libopenvino.so.2420:_ZN2ov2op3v1221ScatterElementsUpdateC1ERKNS_6OutputINS_4NodeEEES7_S7_S7_NS2_9ReductionEb
libopenvino.so.2420:_ZN2ov2op3v1221ScatterElementsUpdateC2ERKNS_6OutputINS_4NodeEEES7_S7_S7_NS2_9ReductionEb
libopenvino.so.2420:_ZN2ov2op3v123PadC1ERKNS_6OutputINS_4NodeEEES7_S7_NS0_7PadModeE
libopenvino.so.2420:_ZN2ov2op3v123PadC1ERKNS_6OutputINS_4NodeEEES7_S7_S7_NS0_7PadModeE
libopenvino.so.2420:_ZN2ov2op3v123PadC2ERKNS_6OutputINS_4NodeEEES7_S7_NS0_7PadModeE
libopenvino.so.2420:_ZN2ov2op3v123PadC2ERKNS_6OutputINS_4NodeEEES7_S7_S7_NS0_7PadModeE
libopenvino.so.2420:_ZN2ov2op3v1310BitwiseAndC1ERKNS_6OutputINS_4NodeEEES7_RKNS0_17AutoBroadcastSpecE
libopenvino.so.2420:_ZN2ov2op3v1310BitwiseAndC2ERKNS_6OutputINS_4NodeEEES7_RKNS0_17AutoBroadcastSpecE
libopenvino.so.2420:_ZN2ov2op3v1310BitwiseNot24validate_and_infer_typesEv
libopenvino.so.2420:_ZN2ov2op3v1310BitwiseNotC1ERKNS_6OutputINS_4NodeEEE
libopenvino.so.2420:_ZN2ov2op3v1310BitwiseNotC2ERKNS_6OutputINS_4NodeEEE
libopenvino.so.2420:_ZN2ov2op3v1310BitwiseXorC1ERKNS_6OutputINS_4NodeEEES7_RKNS0_17AutoBroadcastSpecE
libopenvino.so.2420:_ZN2ov2op3v1310BitwiseXorC2ERKNS_6OutputINS_4NodeEEES7_RKNS0_17AutoBroadcastSpecE
libopenvino.so.2420:_ZN2ov2op3v1310NMSRotated13set_clockwiseEb
libopenvino.so.2420:_ZN2ov2op3v1310NMSRotated16visit_attributesERNS_16AttributeVisitorE
libopenvino.so.2420:_ZN2ov2op3v1310NMSRotated20set_output_type_attrERKNS_7element4TypeE
libopenvino.so.2420:_ZN2ov2op3v1310NMSRotated24validate_and_infer_typesEv
libopenvino.so.2420:_ZN2ov2op3v1310NMSRotated26set_sort_result_descendingEb
libopenvino.so.2420:_ZN2ov2op3v1310NMSRotatedC1ERKNS_6OutputINS_4NodeEEES7_S7_S7_S7_bRKNS_7element4TypeEb
libopenvino.so.2420:_ZN2ov2op3v1310NMSRotatedC2ERKNS_6OutputINS_4NodeEEES7_S7_S7_S7_bRKNS_7element4TypeEb
libopenvino.so.2420:_ZN2ov2op3v1311FakeConvert16visit_attributesERNS_16AttributeVisitorE
libopenvino.so.2420:_ZN2ov2op3v1311FakeConvert24validate_and_infer_typesEv
libopenvino.so.2420:_ZN2ov2op3v1311FakeConvertC1ERKNS_6OutputINS_4NodeEEES7_NSt7__cxx1112basic_stringIcSt11char_traitsIcESaIcEEE
libopenvino.so.2420:_ZN2ov2op3v1311FakeConvertC1ERKNS_6OutputINS_4NodeEEES7_RKNS_7element4TypeE
libopenvino.so.2420:_ZN2ov2op3v1311FakeConvertC1ERKNS_6OutputINS_4NodeEEES7_S7_NSt7__cxx1112basic_stringIcSt11char_traitsIcESaIcEEE
libopenvino.so.2420:_ZN2ov2op3v1311FakeConvertC1ERKNS_6OutputINS_4NodeEEES7_S7_RKNS_7element4TypeE
libopenvino.so.2420:_ZN2ov2op3v1311FakeConvertC2ERKNS_6OutputINS_4NodeEEES7_NSt7__cxx1112basic_stringIcSt11char_traitsIcESaIcEEE
libopenvino.so.2420:_ZN2ov2op3v1311FakeConvertC2ERKNS_6OutputINS_4NodeEEES7_RKNS_7element4TypeE
libopenvino.so.2420:_ZN2ov2op3v1311FakeConvertC2ERKNS_6OutputINS_4NodeEEES7_S7_NSt7__cxx1112basic_stringIcSt11char_traitsIcESaIcEEE
libopenvino.so.2420:_ZN2ov2op3v1311FakeConvertC2ERKNS_6OutputINS_4NodeEEES7_S7_RKNS_7element4TypeE
libopenvino.so.2420:_ZN2ov2op3v1311Multinomial11set_op_seedEm
libopenvino.so.2420:_ZN2ov2op3v1311Multinomial13set_log_probsEb
libopenvino.so.2420:_ZN2ov2op3v1311Multinomial15set_global_seedEm
libopenvino.so.2420:_ZN2ov2op3v1311Multinomial16set_convert_typeENS_7element6Type_tE
libopenvino.so.2420:_ZN2ov2op3v1311Multinomial16visit_attributesERNS_16AttributeVisitorE
libopenvino.so.2420:_ZN2ov2op3v1311Multinomial20set_with_replacementEb
libopenvino.so.2420:_ZN2ov2op3v1311Multinomial24validate_and_infer_typesEv
libopenvino.so.2420:_ZN2ov2op3v1311MultinomialC1ERKNS_6OutputINS_4NodeEEES7_NS_7element6Type_tEbbmm
libopenvino.so.2420:_ZN2ov2op3v1311MultinomialC2ERKNS_6OutputINS_4NodeEEES7_NS_7element6Type_tEbbmm
libopenvino.so.2420:_ZN2ov2op3v1325ScaledDotProductAttention16visit_attributesERNS_16AttributeVisitorE
libopenvino.so.2420:_ZN2ov2op3v1325ScaledDotProductAttention24validate_and_infer_typesEv
libopenvino.so.2420:_ZN2ov2op3v1325ScaledDotProductAttentionC1ERKNS_6OutputINS_4NodeEEES7_S7_S7_S7_b
libopenvino.so.2420:_ZN2ov2op3v1325ScaledDotProductAttentionC1ERKNS_6OutputINS_4NodeEEES7_S7_S7_b
libopenvino.so.2420:_ZN2ov2op3v1325ScaledDotProductAttentionC1ERKNS_6OutputINS_4NodeEEES7_S7_b
libopenvino.so.2420:_ZN2ov2op3v1325ScaledDotProductAttentionC1ERKSt6vectorINS_6OutputINS_4NodeEEESaIS6_EEb
libopenvino.so.2420:_ZN2ov2op3v1325ScaledDotProductAttentionC2ERKNS_6OutputINS_4NodeEEES7_S7_S7_S7_b
libopenvino.so.2420:_ZN2ov2op3v1325ScaledDotProductAttentionC2ERKNS_6OutputINS_4NodeEEES7_S7_S7_b
libopenvino.so.2420:_ZN2ov2op3v1325ScaledDotProductAttentionC2ERKNS_6OutputINS_4NodeEEES7_S7_b
libopenvino.so.2420:_ZN2ov2op3v1325ScaledDotProductAttentionC2ERKSt6vectorINS_6OutputINS_4NodeEEESaIS6_EEb
libopenvino.so.2420:_ZN2ov2op3v139BitwiseOrC1ERKNS_6OutputINS_4NodeEEES7_RKNS0_17AutoBroadcastSpecE
libopenvino.so.2420:_ZN2ov2op3v139BitwiseOrC2ERKNS_6OutputINS_4NodeEEES7_RKNS0_17AutoBroadcastSpecE
libopenvino.so.2420:_ZN2ov2op3v1419ConvertPromoteTypes16visit_attributesERNS_16AttributeVisitorE
libopenvino.so.2420:_ZN2ov2op3v1419ConvertPromoteTypes18set_promote_unsafeEb
libopenvino.so.2420:_ZN2ov2op3v1419ConvertPromoteTypes24validate_and_infer_typesEv
libopenvino.so.2420:_ZN2ov2op3v1419ConvertPromoteTypes28set_pytorch_scalar_promotionEb
libopenvino.so.2420:_ZN2ov2op3v1419ConvertPromoteTypes32set_u64_integer_promotion_targetERKNS_7element4TypeE
libopenvino.so.2420:_ZN2ov2op3v1419ConvertPromoteTypesC1ERKNS_6OutputINS_4NodeEEES7_bbRKNS_7element4TypeE
libopenvino.so.2420:_ZN2ov2op3v1419ConvertPromoteTypesC2ERKNS_6OutputINS_4NodeEEES7_bbRKNS_7element4TypeE
libopenvino.so.2420:_ZN2ov2op3v147AvgPool24validate_and_infer_typesEv
libopenvino.so.2420:_ZN2ov2op3v147AvgPoolC1ERKNS_6OutputINS_4NodeEEERKNS_7StridesERKNS_5ShapeESD_SD_bNS0_12RoundingTypeERKNS0_7PadTypeE
libopenvino.so.2420:_ZN2ov2op3v147AvgPoolC2ERKNS_6OutputINS_4NodeEEERKNS_7StridesERKNS_5ShapeESD_SD_bNS0_12RoundingTypeERKNS0_7PadTypeE
libopenvino.so.2420:_ZN2ov2op3v147Inverse11set_adjointEb
libopenvino.so.2420:_ZN2ov2op3v147Inverse16visit_attributesERNS_16AttributeVisitorE
libopenvino.so.2420:_ZN2ov2op3v147Inverse24validate_and_infer_typesEv
libopenvino.so.2420:_ZN2ov2op3v147InverseC1ERKNS_6OutputINS_4NodeEEEb
libopenvino.so.2420:_ZN2ov2op3v147InverseC2ERKNS_6OutputINS_4NodeEEEb
libopenvino.so.2420:_ZN2ov2op3v147MaxPool13set_dilationsERKNS_7StridesE
libopenvino.so.2420:_ZN2ov2op3v147MaxPool16visit_attributesERNS_16AttributeVisitorE
libopenvino.so.2420:_ZN2ov2op3v147MaxPool22set_index_element_typeENS_7element4TypeE
libopenvino.so.2420:_ZN2ov2op3v147MaxPool24validate_and_infer_typesEv
libopenvino.so.2420:_ZN2ov2op3v147MaxPool8set_axisEl
libopenvino.so.2420:_ZN2ov2op3v147MaxPoolC1ERKNS_6OutputINS_4NodeEEERKNS_7StridesESA_RKNS_5ShapeESD_SD_NS0_12RoundingTypeENS0_7PadTypeENS_7element4TypeEl
libopenvino.so.2420:_ZN2ov2op3v147MaxPoolC2ERKNS_6OutputINS_4NodeEEERKNS_7StridesESA_RKNS_5ShapeESD_SD_NS0_12RoundingTypeENS0_7PadTypeENS_7element4TypeEl
libopenvino.so.2420:_ZN2ov2op3v1515ROIAlignRotated16visit_attributesERNS_16AttributeVisitorE
libopenvino.so.2420:_ZN2ov2op3v1515ROIAlignRotated24validate_and_infer_typesEv
libopenvino.so.2420:_ZN2ov2op3v1515ROIAlignRotatedC1ERKNS_6OutputINS_4NodeEEES7_S7_iiifb
libopenvino.so.2420:_ZN2ov2op3v1515ROIAlignRotatedC2ERKNS_6OutputINS_4NodeEEES7_S7_iiifb
libopenvino.so.2420:_ZN2ov2op3v1515ScatterNDUpdate13set_reductionENS2_9ReductionE
libopenvino.so.2420:_ZN2ov2op3v1515ScatterNDUpdate16visit_attributesERNS_16AttributeVisitorE
libopenvino.so.2420:_ZN2ov2op3v1515ScatterNDUpdateC1ERKNS_6OutputINS_4NodeEEES7_S7_NS2_9ReductionE
libopenvino.so.2420:_ZN2ov2op3v1515ScatterNDUpdateC2ERKNS_6OutputINS_4NodeEEES7_S7_NS2_9ReductionE
libopenvino.so.2420:_ZN2ov2op3v1518EmbeddingBagPackedC1ERKNS_6OutputINS_4NodeEEES7_RKNS0_4util22EmbeddingBagPackedBase9ReductionE
libopenvino.so.2420:_ZN2ov2op3v1518EmbeddingBagPackedC1ERKNS_6OutputINS_4NodeEEES7_S7_RKNS0_4util22EmbeddingBagPackedBase9ReductionE
libopenvino.so.2420:_ZN2ov2op3v1518EmbeddingBagPackedC2ERKNS_6OutputINS_4NodeEEES7_RKNS0_4util22EmbeddingBagPackedBase9ReductionE
libopenvino.so.2420:_ZN2ov2op3v1518EmbeddingBagPackedC2ERKNS_6OutputINS_4NodeEEES7_S7_RKNS0_4util22EmbeddingBagPackedBase9ReductionE
libopenvino.so.2420:_ZN2ov2op3v1519EmbeddingBagOffsetsC1ERKNS_6OutputINS_4NodeEEES7_S7_RKNS0_4util23EmbeddingBagOffsetsBase9ReductionE
libopenvino.so.2420:_ZN2ov2op3v1519EmbeddingBagOffsetsC1ERKNS_6OutputINS_4NodeEEES7_S7_S7_RKNS0_4util23EmbeddingBagOffsetsBase9ReductionE
libopenvino.so.2420:_ZN2ov2op3v1519EmbeddingBagOffsetsC1ERKNS_6OutputINS_4NodeEEES7_S7_S7_S7_RKNS0_4util23EmbeddingBagOffsetsBase9ReductionE
libopenvino.so.2420:_ZN2ov2op3v1519EmbeddingBagOffsetsC2ERKNS_6OutputINS_4NodeEEES7_S7_RKNS0_4util23EmbeddingBagOffsetsBase9ReductionE
libopenvino.so.2420:_ZN2ov2op3v1519EmbeddingBagOffsetsC2ERKNS_6OutputINS_4NodeEEES7_S7_S7_RKNS0_4util23EmbeddingBagOffsetsBase9ReductionE
libopenvino.so.2420:_ZN2ov2op3v1519EmbeddingBagOffsetsC2ERKNS_6OutputINS_4NodeEEES7_S7_S7_S7_RKNS0_4util23EmbeddingBagOffsetsBase9ReductionE
libopenvino.so.2420:_ZN2ov2op3v156Col2Im16visit_attributesERNS_16AttributeVisitorE
libopenvino.so.2420:_ZN2ov2op3v156Col2Im24validate_and_infer_typesEv
libopenvino.so.2420:_ZN2ov2op3v156Col2ImC1ERKNS_6OutputINS_4NodeEEES7_S7_RKNS_7StridesESA_RKNS_5ShapeESD_
libopenvino.so.2420:_ZN2ov2op3v156Col2ImC2ERKNS_6OutputINS_4NodeEEES7_S7_RKNS_7StridesESA_RKNS_5ShapeESD_
libopenvino.so.2420:_ZN2ov2op4SinkD0Ev
libopenvino.so.2420:_ZN2ov2op4SinkD1Ev
libopenvino.so.2420:_ZN2ov2op4SinkD2Ev
libopenvino.so.2420:_ZN2ov2op4util10GatherBase13constant_foldERSt6vectorINS_6OutputINS_4NodeEEESaIS6_EERKS8_
libopenvino.so.2420:_ZN2ov2op4util10GatherBase14set_batch_dimsEl
libopenvino.so.2420:_ZN2ov2op4util10GatherBase24validate_and_infer_typesEv
libopenvino.so.2420:_ZN2ov2op4util10GatherBaseC1ERKNS_6OutputINS_4NodeEEES7_S7_l
libopenvino.so.2420:_ZN2ov2op4util10GatherBaseC2ERKNS_6OutputINS_4NodeEEES7_S7_l
libopenvino.so.2420:_ZN2ov2op4util10SubGraphOp14get_iter_valueERKNS_6OutputINS_4NodeEEEl
libopenvino.so.2420:_ZN2ov2op4util10SubGraphOp15input_for_valueERKNS_6OutputINS_4NodeEEE
libopenvino.so.2420:_ZN2ov2op4util10SubGraphOp16set_merged_inputERKSt10shared_ptrINS0_2v09ParameterEERKNS_6OutputINS_4NodeEEESD_
libopenvino.so.2420:_ZN2ov2op4util10SubGraphOp16set_sliced_inputERKSt10shared_ptrINS0_2v09ParameterEERKNS_6OutputINS_4NodeEEElllll
libopenvino.so.2420:_ZN2ov2op4util10SubGraphOp19set_invariant_inputERKSt10shared_ptrINS0_2v09ParameterEERKNS_6OutputINS_4NodeEEE
libopenvino.so.2420:_ZN2ov2op4util10SubGraphOp23get_concatenated_slicesERKNS_6OutputINS_4NodeEEElllll
libopenvino.so.2420:_ZN2ov2op4util10SubGraphOpC1ERKSt6vectorINS_6OutputINS_4NodeEEESaIS6_EE
libopenvino.so.2420:_ZN2ov2op4util10SubGraphOpC1Ev
libopenvino.so.2420:_ZN2ov2op4util10SubGraphOpC2ERKSt6vectorINS_6OutputINS_4NodeEEESaIS6_EE
libopenvino.so.2420:_ZN2ov2op4util10SubGraphOpC2Ev
libopenvino.so.2420:_ZN2ov2op4util10activationERKNSt7__cxx1112basic_stringIcSt11char_traitsIcESaIcEEERKNS_6OutputINS_4NodeEEE
libopenvino.so.2420:_ZN2ov2op4util11AvgPoolBase10set_kernelERKNS_5ShapeE
libopenvino.so.2420:_ZN2ov2op4util11AvgPoolBase11set_stridesERKNS_7StridesE
libopenvino.so.2420:_ZN2ov2op4util11AvgPoolBase12set_auto_padERKNS0_7PadTypeE
libopenvino.so.2420:_ZN2ov2op4util11AvgPoolBase12set_pads_endERKNS_5ShapeE
libopenvino.so.2420:_ZN2ov2op4util11AvgPoolBase14set_pads_beginERKNS_5ShapeE
libopenvino.so.2420:_ZN2ov2op4util11AvgPoolBase15set_exclude_padEb
libopenvino.so.2420:_ZN2ov2op4util11AvgPoolBase16visit_attributesERNS_16AttributeVisitorE
libopenvino.so.2420:_ZN2ov2op4util11AvgPoolBase17set_rounding_typeENS0_12RoundingTypeE
libopenvino.so.2420:_ZN2ov2op4util11AvgPoolBase24validate_and_infer_typesEv
libopenvino.so.2420:_ZN2ov2op4util11AvgPoolBaseC1ERKNS_6OutputINS_4NodeEEERKNS_7StridesERKNS_5ShapeESD_SD_bNS0_12RoundingTypeERKNS0_7PadTypeE
libopenvino.so.2420:_ZN2ov2op4util11AvgPoolBaseC2ERKNS_6OutputINS_4NodeEEERKNS_7StridesERKNS_5ShapeESD_SD_bNS0_12RoundingTypeERKNS0_7PadTypeE
libopenvino.so.2420:_ZN2ov2op4util11MaxPoolBase12set_pads_endENS_5ShapeE
libopenvino.so.2420:_ZN2ov2op4util11MaxPoolBase24validate_and_infer_typesEv
libopenvino.so.2420:_ZN2ov2op4util11MaxPoolBaseC1ERKNS_6OutputINS_4NodeEEERKNS_7StridesERKNS_5ShapeESD_SD_NS0_12RoundingTypeENS0_7PadTypeE
libopenvino.so.2420:_ZN2ov2op4util11MaxPoolBaseC2ERKNS_6OutputINS_4NodeEEERKNS_7StridesERKNS_5ShapeESD_SD_NS0_12RoundingTypeENS0_7PadTypeE
libopenvino.so.2420:_ZN2ov2op4util11RNNCellBase16visit_attributesERNS_16AttributeVisitorE
libopenvino.so.2420:_ZN2ov2op4util11RNNCellBase29validate_input_rank_dimensionERKSt6vectorINS_12PartialShapeESaIS4_EE
libopenvino.so.2420:_ZN2ov2op4util11RNNCellBase3addERKNS_6OutputINS_4NodeEEES7_
libopenvino.so.2420:_ZN2ov2op4util11RNNCellBase3mulERKNS_6OutputINS_4NodeEEES7_
libopenvino.so.2420:_ZN2ov2op4util11RNNCellBase3subERKNS_6OutputINS_4NodeEEES7_
libopenvino.so.2420:_ZN2ov2op4util11RNNCellBaseC1ERKSt6vectorINS_6OutputINS_4NodeEEESaIS6_EEmfRKS3_INSt7__cxx1112basic_stringIcSt11char_traitsIcESaIcEEESaISG_EERKS3_IfSaIfEESO_
libopenvino.so.2420:_ZN2ov2op4util11RNNCellBaseC1Ev
libopenvino.so.2420:_ZN2ov2op4util11RNNCellBaseC2ERKSt6vectorINS_6OutputINS_4NodeEEESaIS6_EEmfRKS3_INSt7__cxx1112basic_stringIcSt11char_traitsIcESaIcEEESaISG_EERKS3_IfSaIfEESO_
libopenvino.so.2420:_ZN2ov2op4util11RNNCellBaseC2Ev
libopenvino.so.2420:_ZN2ov2op4util11ScatterBase16visit_attributesERNS_16AttributeVisitorE
libopenvino.so.2420:_ZN2ov2op4util11ScatterBase24validate_and_infer_typesEv
libopenvino.so.2420:_ZN2ov2op4util11ScatterBaseC1ERKNS_6OutputINS_4NodeEEES7_S7_S7_
libopenvino.so.2420:_ZN2ov2op4util11ScatterBaseC2ERKNS_6OutputINS_4NodeEEES7_S7_S7_
libopenvino.so.2420:_ZN2ov2op4util11broadcastToERKNS_6OutputINS_4NodeEEERKNS_5ShapeE
libopenvino.so.2420:_ZN2ov2op4util11is_constantEPKNS_4NodeE
libopenvino.so.2420:_ZN2ov2op4util11is_constantERKSt10shared_ptrINS_4NodeEE
libopenvino.so.2420:_ZN2ov2op4util12GatherNDBase16visit_attributesERNS_16AttributeVisitorE
libopenvino.so.2420:_ZN2ov2op4util12GatherNDBase31validate_inputs_and_infer_shapeEv
libopenvino.so.2420:_ZN2ov2op4util12GatherNDBaseC1ERKNS_6OutputINS_4NodeEEES7_m
libopenvino.so.2420:_ZN2ov2op4util12GatherNDBaseC2ERKNS_6OutputINS_4NodeEEES7_m
libopenvino.so.2420:_ZN2ov2op4util12ROIAlignBase16visit_attributesERNS_16AttributeVisitorE
libopenvino.so.2420:_ZN2ov2op4util12ROIAlignBase24validate_and_infer_typesEv
libopenvino.so.2420:_ZN2ov2op4util12ROIAlignBaseC1ERKNS_6OutputINS_4NodeEEES7_S7_iiif
libopenvino.so.2420:_ZN2ov2op4util12ROIAlignBaseC2ERKNS_6OutputINS_4NodeEEES7_S7_iiif
libopenvino.so.2420:_ZN2ov2op4util12is_parameterEPKNS_4NodeE
libopenvino.so.2420:_ZN2ov2op4util12is_parameterERKSt10shared_ptrINS_4NodeEE
libopenvino.so.2420:_ZN2ov2op4util13BroadcastBase23get_broadcast_axes_noneERKNS_10AxisVectorEm
libopenvino.so.2420:_ZN2ov2op4util13BroadcastBase24validate_and_infer_typesEv
libopenvino.so.2420:_ZN2ov2op4util13BroadcastBase29get_broadcast_axes_numpy_pdpdERKNS_5ShapeES5_RKNS0_17BroadcastModeSpecE
libopenvino.so.2420:_ZN2ov2op4util13BroadcastBaseC1ERKNS_6OutputINS_4NodeEEES7_RKNS0_17BroadcastModeSpecE
libopenvino.so.2420:_ZN2ov2op4util13BroadcastBaseC1ERKNS_6OutputINS_4NodeEEES7_S7_RKNS0_17BroadcastModeSpecE
libopenvino.so.2420:_ZN2ov2op4util13BroadcastBaseC2ERKNS_6OutputINS_4NodeEEES7_RKNS0_17BroadcastModeSpecE
libopenvino.so.2420:_ZN2ov2op4util13BroadcastBaseC2ERKNS_6OutputINS_4NodeEEES7_S7_RKNS0_17BroadcastModeSpecE
libopenvino.so.2420:_ZN2ov2op4util13FrameworkNode16visit_attributesERNS_16AttributeVisitorE
libopenvino.so.2420:_ZN2ov2op4util13FrameworkNode23cache_output_descriptorEv
libopenvino.so.2420:_ZN2ov2op4util13FrameworkNode24validate_and_infer_typesEv
libopenvino.so.2420:_ZN2ov2op4util13FrameworkNodeC1ERKS2_
libopenvino.so.2420:_ZN2ov2op4util13FrameworkNodeC1ERKSt6vectorINS_6OutputINS_4NodeEEESaIS6_EEmm
libopenvino.so.2420:_ZN2ov2op4util13FrameworkNodeC2ERKS2_
libopenvino.so.2420:_ZN2ov2op4util13FrameworkNodeC2ERKSt6vectorINS_6OutputINS_4NodeEEESaIS6_EEmm
libopenvino.so.2420:_ZN2ov2op4util13ReductionBase18set_reduction_axesERKNS_7AxisSetE
libopenvino.so.2420:_ZN2ov2op4util13ReductionBase28infer_reduction_output_shapeEb
libopenvino.so.2420:_ZN2ov2op4util13ReductionBaseC1ERKNS_6OutputINS_4NodeEEES7_
libopenvino.so.2420:_ZN2ov2op4util13ReductionBaseC1Ev
libopenvino.so.2420:_ZN2ov2op4util13ReductionBaseC2ERKNS_6OutputINS_4NodeEEES7_
libopenvino.so.2420:_ZN2ov2op4util13ReductionBaseC2Ev
libopenvino.so.2420:_ZN2ov2op4util13ScatterNDBase16visit_attributesERNS_16AttributeVisitorE
libopenvino.so.2420:_ZN2ov2op4util13ScatterNDBase24validate_and_infer_typesEv
libopenvino.so.2420:_ZN2ov2op4util13ScatterNDBaseC1ERKNS_6OutputINS_4NodeEEES7_S7_
libopenvino.so.2420:_ZN2ov2op4util13ScatterNDBaseC2ERKNS_6OutputINS_4NodeEEES7_S7_
libopenvino.so.2420:_ZN2ov2op4util13VariableValue9set_resetEb
libopenvino.so.2420:_ZN2ov2op4util13VariableValue9set_stateERKNS_6TensorE
libopenvino.so.2420:_ZN2ov2op4util13VariableValueC1ERKNS_6TensorE
libopenvino.so.2420:_ZN2ov2op4util13VariableValueC1ERKNS_6TensorEb
libopenvino.so.2420:_ZN2ov2op4util13VariableValueC2ERKNS_6TensorE
libopenvino.so.2420:_ZN2ov2op4util13VariableValueC2ERKNS_6TensorEb
libopenvino.so.2420:_ZN2ov2op4util14IndexReduction16visit_attributesERNS_16AttributeVisitorE
libopenvino.so.2420:_ZN2ov2op4util14IndexReduction18set_reduction_axisEm
libopenvino.so.2420:_ZN2ov2op4util14IndexReduction22set_index_element_typeERKNS_7element4TypeE
libopenvino.so.2420:_ZN2ov2op4util14IndexReduction24validate_and_infer_typesEv
libopenvino.so.2420:_ZN2ov2op4util14IndexReductionC1ERKNS_6OutputINS_4NodeEEEmRKNS_7element4TypeE
libopenvino.so.2420:_ZN2ov2op4util14IndexReductionC1Ev
libopenvino.so.2420:_ZN2ov2op4util14IndexReductionC2ERKNS_6OutputINS_4NodeEEEmRKNS_7element4TypeE
libopenvino.so.2420:_ZN2ov2op4util14IndexReductionC2Ev
libopenvino.so.2420:_ZN2ov2op4util14clone_try_foldERKSt10shared_ptrINS_4NodeEERKSt6vectorINS_6OutputIS3_EESaIS9_EE
libopenvino.so.2420:_ZN2ov2op4util14is_commutativeEPKNS_4NodeE
libopenvino.so.2420:_ZN2ov2op4util14is_commutativeERKSt10shared_ptrINS_4NodeEE
libopenvino.so.2420:_ZN2ov2op4util15InterpolateBase16visit_attributesERNS_16AttributeVisitorE
libopenvino.so.2420:_ZN2ov2op4util15InterpolateBase24validate_and_infer_typesEv
libopenvino.so.2420:_ZN2ov2op4util15InterpolateBaseC1ERKNS_6OutputINS_4NodeEEES7_RKNS2_16InterpolateAttrsE
libopenvino.so.2420:_ZN2ov2op4util15InterpolateBaseC1ERKNS_6OutputINS_4NodeEEES7_S7_RKNS2_16InterpolateAttrsE
libopenvino.so.2420:_ZN2ov2op4util15InterpolateBaseC1ERKNS_6OutputINS_4NodeEEES7_S7_S7_RKNS2_16InterpolateAttrsE
libopenvino.so.2420:_ZN2ov2op4util15InterpolateBaseC2ERKNS_6OutputINS_4NodeEEES7_RKNS2_16InterpolateAttrsE
libopenvino.so.2420:_ZN2ov2op4util15InterpolateBaseC2ERKNS_6OutputINS_4NodeEEES7_S7_RKNS2_16InterpolateAttrsE
libopenvino.so.2420:_ZN2ov2op4util15InterpolateBaseC2ERKNS_6OutputINS_4NodeEEES7_S7_S7_RKNS2_16InterpolateAttrsE
libopenvino.so.2420:_ZN2ov2op4util15MultiSubGraphOp15input_for_valueERKNS_6OutputINS_4NodeEEE
libopenvino.so.2420:_ZN2ov2op4util15MultiSubGraphOp16InputDescriptionC1Emm
libopenvino.so.2420:_ZN2ov2op4util15MultiSubGraphOp16InputDescriptionC2Emm
libopenvino.so.2420:_ZN2ov2op4util15MultiSubGraphOp16set_body_outputsERKSt6vectorISt10shared_ptrINS0_2v06ResultEESaIS7_EE
libopenvino.so.2420:_ZN2ov2op4util15MultiSubGraphOp17OutputDescriptionC1Emm
libopenvino.so.2420:_ZN2ov2op4util15MultiSubGraphOp17OutputDescriptionC2Emm
libopenvino.so.2420:_ZN2ov2op4util15MultiSubGraphOp20set_invariant_inputsERKNS_6OutputINS_4NodeEEERKSt6vectorISt10shared_ptrINS0_2v09ParameterEESaISC_EE
libopenvino.so.2420:_ZN2ov2op4util15MultiSubGraphOp21BodyOutputDescriptionC1Emml
libopenvino.so.2420:_ZN2ov2op4util15MultiSubGraphOp21BodyOutputDescriptionC2Emml
libopenvino.so.2420:_ZN2ov2op4util15MultiSubGraphOp21SliceInputDescriptionC1Emmlllll
libopenvino.so.2420:_ZN2ov2op4util15MultiSubGraphOp21SliceInputDescriptionC2Emmlllll
libopenvino.so.2420:_ZN2ov2op4util15MultiSubGraphOp22MergedInputDescriptionC1Emmm
libopenvino.so.2420:_ZN2ov2op4util15MultiSubGraphOp22MergedInputDescriptionC2Emmm
libopenvino.so.2420:_ZN2ov2op4util15MultiSubGraphOp23ConcatOutputDescriptionC1Emmlllll
libopenvino.so.2420:_ZN2ov2op4util15MultiSubGraphOp23ConcatOutputDescriptionC2Emmlllll
libopenvino.so.2420:_ZN2ov2op4util15MultiSubGraphOp25InvariantInputDescriptionC1Emm
libopenvino.so.2420:_ZN2ov2op4util15MultiSubGraphOp25InvariantInputDescriptionC2Emm
libopenvino.so.2420:_ZN2ov2op4util15MultiSubGraphOp28validate_and_infer_type_bodyERKSt10shared_ptrINS_5ModelEERKSt6vectorIS3_INS2_16InputDescriptionEESaISA_EE
libopenvino.so.2420:_ZN2ov2op4util15MultiSubGraphOp39get_mapping_outputs_on_body_descriptionERKSt6vectorISt10shared_ptrINS2_17OutputDescriptionEESaIS6_EE
libopenvino.so.2420:_ZN2ov2op4util15MultiSubGraphOpC1ERKSt6vectorINS_6OutputINS_4NodeEEESaIS6_EE
libopenvino.so.2420:_ZN2ov2op4util15MultiSubGraphOpC1ERKSt6vectorINS_6OutputINS_4NodeEEESaIS6_EEm
libopenvino.so.2420:_ZN2ov2op4util15MultiSubGraphOpC1Em
libopenvino.so.2420:_ZN2ov2op4util15MultiSubGraphOpC2ERKSt6vectorINS_6OutputINS_4NodeEEESaIS6_EE
libopenvino.so.2420:_ZN2ov2op4util15MultiSubGraphOpC2ERKSt6vectorINS_6OutputINS_4NodeEEESaIS6_EEm
libopenvino.so.2420:_ZN2ov2op4util15MultiSubGraphOpC2Em
libopenvino.so.2420:_ZN2ov2op4util15make_slice_planERKNS_5ShapeERKSt6vectorIlSaIlEES9_S9_RKNS_7AxisSetESC_SC_SC_SC_
libopenvino.so.2420:_ZN2ov2op4util16LogicalReduction24validate_and_infer_typesEv
libopenvino.so.2420:_ZN2ov2op4util16LogicalReductionC1ERKNS_6OutputINS_4NodeEEERKNS_7AxisSetE
libopenvino.so.2420:_ZN2ov2op4util16LogicalReductionC1ERKNS_6OutputINS_4NodeEEES7_
libopenvino.so.2420:_ZN2ov2op4util16LogicalReductionC1Ev
libopenvino.so.2420:_ZN2ov2op4util16LogicalReductionC2ERKNS_6OutputINS_4NodeEEERKNS_7AxisSetE
libopenvino.so.2420:_ZN2ov2op4util16LogicalReductionC2ERKNS_6OutputINS_4NodeEEES7_
libopenvino.so.2420:_ZN2ov2op4util16LogicalReductionC2Ev
libopenvino.so.2420:_ZN2ov2op4util16get_single_valueERKSt10shared_ptrINS0_2v08ConstantEERfb
libopenvino.so.2420:_ZN2ov2op4util16process_subgraphERNS_4pass9ModelPassERKSt10shared_ptrINS_4NodeEE
libopenvino.so.2420:_ZN2ov2op4util16visit_shape_pathEPNS_4NodeERSt13unordered_setIS3_St4hashIS3_ESt8equal_toIS3_ESaIS3_EESt8functionIFvS3_EE
libopenvino.so.2420:_ZN2ov2op4util17MulticlassNmsBase16visit_attributesERNS_16AttributeVisitorE
libopenvino.so.2420:_ZN2ov2op4util17MulticlassNmsBase8validateEv
libopenvino.so.2420:_ZN2ov2op4util17MulticlassNmsBase9set_attrsENS2_10AttributesE
libopenvino.so.2420:_ZN2ov2op4util17MulticlassNmsBaseC1ERKSt6vectorINS_6OutputINS_4NodeEEESaIS6_EERKNS2_10AttributesE
libopenvino.so.2420:_ZN2ov2op4util17MulticlassNmsBaseC2ERKSt6vectorINS_6OutputINS_4NodeEEESaIS6_EERKNS2_10AttributesE
libopenvino.so.2420:_ZN2ov2op4util17constantIsEqualToERKSt10shared_ptrINS0_2v08ConstantEEff
libopenvino.so.2420:_ZN2ov2op4util17has_f16_constantsERKSt10shared_ptrIKNS_5ModelEE
libopenvino.so.2420:_ZN2ov2op4util18ActivationFunctionC1EPFSt10shared_ptrINS_4NodeEERKS5_ffE
libopenvino.so.2420:_ZN2ov2op4util18ActivationFunctionC1EPFSt10shared_ptrINS_4NodeEERKS5_ffEf
libopenvino.so.2420:_ZN2ov2op4util18ActivationFunctionC1EPFSt10shared_ptrINS_4NodeEERKS5_ffEff
libopenvino.so.2420:_ZN2ov2op4util18ActivationFunctionC2EPFSt10shared_ptrINS_4NodeEERKS5_ffE
libopenvino.so.2420:_ZN2ov2op4util18ActivationFunctionC2EPFSt10shared_ptrINS_4NodeEERKS5_ffEf
libopenvino.so.2420:_ZN2ov2op4util18ActivationFunctionC2EPFSt10shared_ptrINS_4NodeEERKS5_ffEff
libopenvino.so.2420:_ZN2ov2op4util18normalize_constantERKSt10shared_ptrINS0_2v08ConstantEERKNS_12PartialShapeE
libopenvino.so.2420:_ZN2ov2op4util19ArithmeticReduction24validate_and_infer_typesEv
libopenvino.so.2420:_ZN2ov2op4util19ArithmeticReductionC1ERKNS_6OutputINS_4NodeEEES7_
libopenvino.so.2420:_ZN2ov2op4util19ArithmeticReductionC1Ev
libopenvino.so.2420:_ZN2ov2op4util19ArithmeticReductionC2ERKNS_6OutputINS_4NodeEEES7_
libopenvino.so.2420:_ZN2ov2op4util19ArithmeticReductionC2Ev
libopenvino.so.2420:_ZN2ov2op4util19DetectionOutputBase13validate_baseERKNS2_14AttributesBaseE
libopenvino.so.2420:_ZN2ov2op4util19DetectionOutputBase19compute_num_classesERKNS2_14AttributesBaseE
libopenvino.so.2420:_ZN2ov2op4util19DetectionOutputBase21visit_attributes_baseERNS_16AttributeVisitorERNS2_14AttributesBaseE
libopenvino.so.2420:_ZN2ov2op4util19DetectionOutputBaseC1ERKSt6vectorINS_6OutputINS_4NodeEEESaIS6_EE
libopenvino.so.2420:_ZN2ov2op4util19DetectionOutputBaseC2ERKSt6vectorINS_6OutputINS_4NodeEEESaIS6_EE
libopenvino.so.2420:_ZN2ov2op4util19check_for_broadcastERKNS_12PartialShapeES4_
libopenvino.so.2420:_ZN2ov2op4util19is_on_constant_pathERKNS_6OutputINS_4NodeEEE
libopenvino.so.2420:_ZN2ov2op4util19is_seq_len_providedERKSt10shared_ptrINS_4NodeEES6_
libopenvino.so.2420:_ZN2ov2op4util19visit_constant_pathEPNS_4NodeERSt13unordered_setIS3_St4hashIS3_ESt8equal_toIS3_ESaIS3_EESt8functionIFvS3_EE
libopenvino.so.2420:_ZN2ov2op4util20ConvertColorI420Base16visit_attributesERNS_16AttributeVisitorE
libopenvino.so.2420:_ZN2ov2op4util20ConvertColorI420Base24validate_and_infer_typesEv
libopenvino.so.2420:_ZN2ov2op4util20ConvertColorI420BaseC1ERKNS_6OutputINS_4NodeEEENS2_15ColorConversionE
libopenvino.so.2420:_ZN2ov2op4util20ConvertColorI420BaseC1ERKNS_6OutputINS_4NodeEEES7_S7_NS2_15ColorConversionE
libopenvino.so.2420:_ZN2ov2op4util20ConvertColorI420BaseC2ERKNS_6OutputINS_4NodeEEENS2_15ColorConversionE
libopenvino.so.2420:_ZN2ov2op4util20ConvertColorI420BaseC2ERKNS_6OutputINS_4NodeEEES7_S7_NS2_15ColorConversionE
libopenvino.so.2420:_ZN2ov2op4util20ConvertColorNV12Base16visit_attributesERNS_16AttributeVisitorE
libopenvino.so.2420:_ZN2ov2op4util20ConvertColorNV12Base24validate_and_infer_typesEv
libopenvino.so.2420:_ZN2ov2op4util20ConvertColorNV12BaseC1ERKNS_6OutputINS_4NodeEEENS2_15ColorConversionE
libopenvino.so.2420:_ZN2ov2op4util20ConvertColorNV12BaseC1ERKNS_6OutputINS_4NodeEEES7_NS2_15ColorConversionE
libopenvino.so.2420:_ZN2ov2op4util20ConvertColorNV12BaseC2ERKNS_6OutputINS_4NodeEEENS2_15ColorConversionE
libopenvino.so.2420:_ZN2ov2op4util20ConvertColorNV12BaseC2ERKNS_6OutputINS_4NodeEEES7_NS2_15ColorConversionE
libopenvino.so.2420:_ZN2ov2op4util21try_fold_unary_outputERKSt10shared_ptrINS_4NodeEE
libopenvino.so.2420:_ZN2ov2op4util22EmbeddingBagPackedBase16visit_attributesERNS_16AttributeVisitorE
libopenvino.so.2420:_ZN2ov2op4util22EmbeddingBagPackedBase24validate_and_infer_typesEv
libopenvino.so.2420:_ZN2ov2op4util22EmbeddingBagPackedBaseC1ERKNS_6OutputINS_4NodeEEES7_
libopenvino.so.2420:_ZN2ov2op4util22EmbeddingBagPackedBaseC1ERKNS_6OutputINS_4NodeEEES7_RKNS2_9ReductionE
libopenvino.so.2420:_ZN2ov2op4util22EmbeddingBagPackedBaseC1ERKNS_6OutputINS_4NodeEEES7_S7_
libopenvino.so.2420:_ZN2ov2op4util22EmbeddingBagPackedBaseC1ERKNS_6OutputINS_4NodeEEES7_S7_RKNS2_9ReductionE
libopenvino.so.2420:_ZN2ov2op4util22EmbeddingBagPackedBaseC2ERKNS_6OutputINS_4NodeEEES7_
libopenvino.so.2420:_ZN2ov2op4util22EmbeddingBagPackedBaseC2ERKNS_6OutputINS_4NodeEEES7_RKNS2_9ReductionE
libopenvino.so.2420:_ZN2ov2op4util22EmbeddingBagPackedBaseC2ERKNS_6OutputINS_4NodeEEES7_S7_
libopenvino.so.2420:_ZN2ov2op4util22EmbeddingBagPackedBaseC2ERKNS_6OutputINS_4NodeEEES7_S7_RKNS2_9ReductionE
libopenvino.so.2420:_ZN2ov2op4util22get_node_target_inputsERKSt10shared_ptrINS_4NodeEE
libopenvino.so.2420:_ZN2ov2op4util23EmbeddingBagOffsetsBase16visit_attributesERNS_16AttributeVisitorE
libopenvino.so.2420:_ZN2ov2op4util23EmbeddingBagOffsetsBase24validate_and_infer_typesEv
libopenvino.so.2420:_ZN2ov2op4util23EmbeddingBagOffsetsBaseC1ERKNS_6OutputINS_4NodeEEES7_S7_
libopenvino.so.2420:_ZN2ov2op4util23EmbeddingBagOffsetsBaseC1ERKNS_6OutputINS_4NodeEEES7_S7_RKNS2_9ReductionE
libopenvino.so.2420:_ZN2ov2op4util23EmbeddingBagOffsetsBaseC1ERKNS_6OutputINS_4NodeEEES7_S7_S7_
libopenvino.so.2420:_ZN2ov2op4util23EmbeddingBagOffsetsBaseC1ERKNS_6OutputINS_4NodeEEES7_S7_S7_RKNS2_9ReductionE
libopenvino.so.2420:_ZN2ov2op4util23EmbeddingBagOffsetsBaseC1ERKNS_6OutputINS_4NodeEEES7_S7_S7_S7_
libopenvino.so.2420:_ZN2ov2op4util23EmbeddingBagOffsetsBaseC1ERKNS_6OutputINS_4NodeEEES7_S7_S7_S7_RKNS2_9ReductionE
libopenvino.so.2420:_ZN2ov2op4util23EmbeddingBagOffsetsBaseC2ERKNS_6OutputINS_4NodeEEES7_S7_
libopenvino.so.2420:_ZN2ov2op4util23EmbeddingBagOffsetsBaseC2ERKNS_6OutputINS_4NodeEEES7_S7_RKNS2_9ReductionE
libopenvino.so.2420:_ZN2ov2op4util23EmbeddingBagOffsetsBaseC2ERKNS_6OutputINS_4NodeEEES7_S7_S7_
libopenvino.so.2420:_ZN2ov2op4util23EmbeddingBagOffsetsBaseC2ERKNS_6OutputINS_4NodeEEES7_S7_S7_RKNS2_9ReductionE
libopenvino.so.2420:_ZN2ov2op4util23EmbeddingBagOffsetsBaseC2ERKNS_6OutputINS_4NodeEEES7_S7_S7_S7_
libopenvino.so.2420:_ZN2ov2op4util23EmbeddingBagOffsetsBaseC2ERKNS_6OutputINS_4NodeEEES7_S7_S7_S7_RKNS2_9ReductionE
libopenvino.so.2420:_ZN2ov2op4util23supports_auto_broadcastEPKNS_4NodeE
libopenvino.so.2420:_ZN2ov2op4util23supports_auto_broadcastERKSt10shared_ptrINS_4NodeEE
libopenvino.so.2420:_ZN2ov2op4util24BinaryElementwiseBitwise16visit_attributesERNS_16AttributeVisitorE
libopenvino.so.2420:_ZN2ov2op4util24BinaryElementwiseBitwise24validate_and_infer_typesEv
libopenvino.so.2420:_ZN2ov2op4util24BinaryElementwiseBitwise9set_autobERKNS0_17AutoBroadcastSpecE
libopenvino.so.2420:_ZN2ov2op4util24BinaryElementwiseBitwiseC1ERKNS_6OutputINS_4NodeEEES7_RKNS0_17AutoBroadcastSpecE
libopenvino.so.2420:_ZN2ov2op4util24BinaryElementwiseBitwiseC1Ev
libopenvino.so.2420:_ZN2ov2op4util24BinaryElementwiseBitwiseC2ERKNS_6OutputINS_4NodeEEES7_RKNS0_17AutoBroadcastSpecE
libopenvino.so.2420:_ZN2ov2op4util24BinaryElementwiseBitwiseC2Ev
libopenvino.so.2420:_ZN2ov2op4util24BinaryElementwiseLogical16visit_attributesERNS_16AttributeVisitorE
libopenvino.so.2420:_ZN2ov2op4util24BinaryElementwiseLogical24validate_and_infer_typesEv
libopenvino.so.2420:_ZN2ov2op4util24BinaryElementwiseLogicalC1ERKNS_6OutputINS_4NodeEEES7_RKNS0_17AutoBroadcastSpecE
libopenvino.so.2420:_ZN2ov2op4util24BinaryElementwiseLogicalC1Ev
libopenvino.so.2420:_ZN2ov2op4util24BinaryElementwiseLogicalC2ERKNS_6OutputINS_4NodeEEES7_RKNS0_17AutoBroadcastSpecE
libopenvino.so.2420:_ZN2ov2op4util24BinaryElementwiseLogicalC2Ev
libopenvino.so.2420:_ZN2ov2op4util24LogicalReductionKeepDims16visit_attributesERNS_16AttributeVisitorE
libopenvino.so.2420:_ZN2ov2op4util24LogicalReductionKeepDims24validate_and_infer_typesEv
libopenvino.so.2420:_ZN2ov2op4util24LogicalReductionKeepDimsC1ERKNS_6OutputINS_4NodeEEES7_b
libopenvino.so.2420:_ZN2ov2op4util24LogicalReductionKeepDimsC2ERKNS_6OutputINS_4NodeEEES7_b
libopenvino.so.2420:_ZN2ov2op4util24convert_lstm_node_formatERKNS_6OutputINS_4NodeEEENS1_17LSTMWeightsFormatES7_l
libopenvino.so.2420:_ZN2ov2op4util25DeformableConvolutionBase16visit_attributesERNS_16AttributeVisitorE
libopenvino.so.2420:_ZN2ov2op4util25DeformableConvolutionBaseC1ERKSt6vectorINS_6OutputINS_4NodeEEESaIS6_EERKNS_7StridesERKNS_14CoordinateDiffESG_SD_RKNS0_7PadTypeEll
libopenvino.so.2420:_ZN2ov2op4util25DeformableConvolutionBaseC2ERKSt6vectorINS_6OutputINS_4NodeEEESaIS6_EERKNS_7StridesERKNS_14CoordinateDiffESG_SD_RKNS0_7PadTypeEll
libopenvino.so.2420:_ZN2ov2op4util25ScatterElementsUpdateBase24validate_and_infer_typesEv
libopenvino.so.2420:_ZN2ov2op4util25ScatterElementsUpdateBaseC1ERKNS_6OutputINS_4NodeEEES7_S7_S7_
libopenvino.so.2420:_ZN2ov2op4util25ScatterElementsUpdateBaseC2ERKNS_6OutputINS_4NodeEEES7_S7_S7_
libopenvino.so.2420:_ZN2ov2op4util26UnaryElementwiseArithmetic16visit_attributesERNS_16AttributeVisitorE
libopenvino.so.2420:_ZN2ov2op4util26UnaryElementwiseArithmetic24validate_and_infer_typesEv
libopenvino.so.2420:_ZN2ov2op4util26UnaryElementwiseArithmetic41validate_and_infer_elementwise_arithmeticEv
libopenvino.so.2420:_ZN2ov2op4util26UnaryElementwiseArithmeticC1ERKNS_6OutputINS_4NodeEEE
libopenvino.so.2420:_ZN2ov2op4util26UnaryElementwiseArithmeticC1Ev
libopenvino.so.2420:_ZN2ov2op4util26UnaryElementwiseArithmeticC2ERKNS_6OutputINS_4NodeEEE
libopenvino.so.2420:_ZN2ov2op4util26UnaryElementwiseArithmeticC2Ev
libopenvino.so.2420:_ZN2ov2op4util26can_eliminate_eltwise_nodeERKSt10shared_ptrINS_4NodeEERKNS_6OutputIS3_EESA_
libopenvino.so.2420:_ZN2ov2op4util26is_dequantization_subgraphERKNS_6OutputINS_4NodeEEE
libopenvino.so.2420:_ZN2ov2op4util27ArithmeticReductionKeepDims16visit_attributesERNS_16AttributeVisitorE
libopenvino.so.2420:_ZN2ov2op4util27ArithmeticReductionKeepDims24validate_and_infer_typesEv
libopenvino.so.2420:_ZN2ov2op4util27ArithmeticReductionKeepDimsC1ERKNS_6OutputINS_4NodeEEES7_b
libopenvino.so.2420:_ZN2ov2op4util27ArithmeticReductionKeepDimsC2ERKNS_6OutputINS_4NodeEEES7_b
libopenvino.so.2420:_ZN2ov2op4util27BinaryElementwiseArithmetic16visit_attributesERNS_16AttributeVisitorE
libopenvino.so.2420:_ZN2ov2op4util27BinaryElementwiseArithmetic24validate_and_infer_typesEv
libopenvino.so.2420:_ZN2ov2op4util27BinaryElementwiseArithmetic41validate_and_infer_elementwise_arithmeticEv
libopenvino.so.2420:_ZN2ov2op4util27BinaryElementwiseArithmeticC1ERKNS0_17AutoBroadcastSpecE
libopenvino.so.2420:_ZN2ov2op4util27BinaryElementwiseArithmeticC1ERKNS_6OutputINS_4NodeEEES7_RKNS0_17AutoBroadcastSpecE
libopenvino.so.2420:_ZN2ov2op4util27BinaryElementwiseArithmeticC2ERKNS0_17AutoBroadcastSpecE
libopenvino.so.2420:_ZN2ov2op4util27BinaryElementwiseArithmeticC2ERKNS_6OutputINS_4NodeEEES7_RKNS0_17AutoBroadcastSpecE
libopenvino.so.2420:_ZN2ov2op4util27BinaryElementwiseComparison16visit_attributesERNS_16AttributeVisitorE
libopenvino.so.2420:_ZN2ov2op4util27BinaryElementwiseComparison24validate_and_infer_typesEv
libopenvino.so.2420:_ZN2ov2op4util27BinaryElementwiseComparisonC1ERKNS0_17AutoBroadcastSpecE
libopenvino.so.2420:_ZN2ov2op4util27BinaryElementwiseComparisonC1ERKNS_6OutputINS_4NodeEEES7_RKNS0_17AutoBroadcastSpecE
libopenvino.so.2420:_ZN2ov2op4util27BinaryElementwiseComparisonC2ERKNS0_17AutoBroadcastSpecE
libopenvino.so.2420:_ZN2ov2op4util27BinaryElementwiseComparisonC2ERKNS_6OutputINS_4NodeEEES7_RKNS0_17AutoBroadcastSpecE
libopenvino.so.2420:_ZN2ov2op4util29convert_lstm_peepholes_formatERKNS_6OutputINS_4NodeEEENS1_19LSTMPeepholesFormatES7_l
libopenvino.so.2420:_ZN2ov2op4util29is_binary_elementwise_logicalEPKNS_4NodeE
libopenvino.so.2420:_ZN2ov2op4util29is_binary_elementwise_logicalERKSt10shared_ptrINS_4NodeEE
libopenvino.so.2420:_ZN2ov2op4util31is_unary_elementwise_arithmeticEPKNS_4NodeE
libopenvino.so.2420:_ZN2ov2op4util31is_unary_elementwise_arithmeticERKSt10shared_ptrINS_4NodeEE
libopenvino.so.2420:_ZN2ov2op4util32is_binary_elementwise_arithmeticEPKNS_4NodeE
libopenvino.so.2420:_ZN2ov2op4util32is_binary_elementwise_arithmeticERKSt10shared_ptrINS_4NodeEE
libopenvino.so.2420:_ZN2ov2op4util32is_binary_elementwise_comparisonEPKNS_4NodeE
libopenvino.so.2420:_ZN2ov2op4util32is_binary_elementwise_comparisonERKSt10shared_ptrINS_4NodeEE
libopenvino.so.2420:_ZN2ov2op4util33validate_seq_input_rank_dimensionERKSt6vectorINS_12PartialShapeESaIS3_EE
libopenvino.so.2420:_ZN2ov2op4util36is_constant_and_all_values_equal_intERKNS_6OutputINS_4NodeEEERKl
libopenvino.so.2420:_ZN2ov2op4util42shapes_equal_except_dynamic_expected_batchERKNS_12PartialShapeES4_
libopenvino.so.2420:_ZN2ov2op4util50node_to_get_shape_value_of_indices_from_shape_nodeERKSt10shared_ptrINS_4NodeEERKSt6vectorImSaImEERKS7_IS4_SaIS4_EERKNS_7element4TypeE
libopenvino.so.2420:_ZN2ov2op4util52node_to_get_shape_value_of_indices_from_shape_sourceERKNS_6OutputINS_4NodeEEERKSt6vectorImSaImEERKS7_ISt10shared_ptrIS3_ESaISD_EERKNS_7element4TypeE
libopenvino.so.2420:_ZN2ov2op4util5is_opEPKNS_4NodeE
libopenvino.so.2420:_ZN2ov2op4util5is_opERKSt10shared_ptrINS_4NodeEE
libopenvino.so.2420:_ZN2ov2op4util7FFTBase14validate_typesEv
libopenvino.so.2420:_ZN2ov2op4util7FFTBase16visit_attributesERNS_16AttributeVisitorE
libopenvino.so.2420:_ZN2ov2op4util7FFTBase24validate_and_infer_typesEv
libopenvino.so.2420:_ZN2ov2op4util7FFTBaseC1ERKNS_6OutputINS_4NodeEEES7_
libopenvino.so.2420:_ZN2ov2op4util7FFTBaseC1ERKNS_6OutputINS_4NodeEEES7_S7_
libopenvino.so.2420:_ZN2ov2op4util7FFTBaseC2ERKNS_6OutputINS_4NodeEEES7_
libopenvino.so.2420:_ZN2ov2op4util7FFTBaseC2ERKNS_6OutputINS_4NodeEEES7_S7_
libopenvino.so.2420:_ZN2ov2op4util7PadBase16visit_attributesERNS_16AttributeVisitorE
libopenvino.so.2420:_ZN2ov2op4util7PadBase24validate_and_infer_typesEv
libopenvino.so.2420:_ZN2ov2op4util7PadBaseC1ERKNS_6OutputINS_4NodeEEES7_S7_NS0_7PadModeE
libopenvino.so.2420:_ZN2ov2op4util7PadBaseC1ERKNS_6OutputINS_4NodeEEES7_S7_S7_NS0_7PadModeE
libopenvino.so.2420:_ZN2ov2op4util7PadBaseC2ERKNS_6OutputINS_4NodeEEES7_S7_NS0_7PadModeE
libopenvino.so.2420:_ZN2ov2op4util7PadBaseC2ERKNS_6OutputINS_4NodeEEES7_S7_S7_NS0_7PadModeE
libopenvino.so.2420:_ZN2ov2op4util7is_sinkEPKNS_4NodeE
libopenvino.so.2420:_ZN2ov2op4util7is_sinkERKSt10shared_ptrINS_4NodeEE
libopenvino.so.2420:_ZN2ov2op4util8TopKBase16visit_attributesERNS_16AttributeVisitorE
libopenvino.so.2420:_ZN2ov2op4util8TopKBase24validate_and_infer_typesEv
libopenvino.so.2420:_ZN2ov2op4util8TopKBase5set_kEm
libopenvino.so.2420:_ZN2ov2op4util8TopKBase8set_axisERKNS_9DimensionEl
libopenvino.so.2420:_ZN2ov2op4util8TopKBase8set_axisEl
libopenvino.so.2420:_ZN2ov2op4util8TopKBaseC1ERKNS_6OutputINS_4NodeEEES7_lNS0_8TopKModeENS0_12TopKSortTypeERKNS_7element4TypeE
libopenvino.so.2420:_ZN2ov2op4util8TopKBaseC1ERKNS_6OutputINS_4NodeEEES7_lRKNSt7__cxx1112basic_stringIcSt11char_traitsIcESaIcEEESF_RKNS_7element4TypeE
libopenvino.so.2420:_ZN2ov2op4util8TopKBaseC2ERKNS_6OutputINS_4NodeEEES7_lNS0_8TopKModeENS0_12TopKSortTypeERKNS_7element4TypeE
libopenvino.so.2420:_ZN2ov2op4util8TopKBaseC2ERKNS_6OutputINS_4NodeEEES7_lRKNSt7__cxx1112basic_stringIcSt11char_traitsIcESaIcEEESF_RKNS_7element4TypeE
libopenvino.so.2420:_ZN2ov2op4util9is_outputEPKNS_4NodeE
libopenvino.so.2420:_ZN2ov2op4util9is_outputERKSt10shared_ptrINS_4NodeEE
libopenvino.so.2420:_ZN2ov2op4util9reshapeToERKNS_6OutputINS_4NodeEEERKNS_5ShapeE
libopenvino.so.2420:_ZN2ov2op8internal13AUGRUSequence16visit_attributesERNS_16AttributeVisitorE
libopenvino.so.2420:_ZN2ov2op8internal13AUGRUSequence24validate_and_infer_typesEv
libopenvino.so.2420:_ZN2ov2op8internal13AUGRUSequenceC1ERKNS_6OutputINS_4NodeEEES7_S7_S7_S7_S7_S7_m
libopenvino.so.2420:_ZN2ov2op8internal13AUGRUSequenceC1Ev
libopenvino.so.2420:_ZN2ov2op8internal13AUGRUSequenceC2ERKNS_6OutputINS_4NodeEEES7_S7_S7_S7_S7_S7_m
libopenvino.so.2420:_ZN2ov2op8internal13AUGRUSequenceC2Ev
libopenvino.so.2420:_ZN2ov2op8internal16GatherCompressed24validate_and_infer_typesEv
libopenvino.so.2420:_ZN2ov2op8internal16GatherCompressedC1ERKNS_6OutputINS_4NodeEEES7_S7_lS7_
libopenvino.so.2420:_ZN2ov2op8internal16GatherCompressedC1ERKNS_6OutputINS_4NodeEEES7_S7_lS7_S7_
libopenvino.so.2420:_ZN2ov2op8internal16GatherCompressedC2ERKNS_6OutputINS_4NodeEEES7_S7_lS7_
libopenvino.so.2420:_ZN2ov2op8internal16GatherCompressedC2ERKNS_6OutputINS_4NodeEEES7_S7_lS7_S7_
libopenvino.so.2420:_ZN2ov2op8internal23MulticlassNmsIEInternal24validate_and_infer_typesEv
libopenvino.so.2420:_ZN2ov2op8internal23MulticlassNmsIEInternalC1ERKNS_6OutputINS_4NodeEEES7_RKNS0_4util17MulticlassNmsBase10AttributesE
libopenvino.so.2420:_ZN2ov2op8internal23MulticlassNmsIEInternalC1ERKNS_6OutputINS_4NodeEEES7_S7_RKNS0_4util17MulticlassNmsBase10AttributesE
libopenvino.so.2420:_ZN2ov2op8internal23MulticlassNmsIEInternalC2ERKNS_6OutputINS_4NodeEEES7_RKNS0_4util17MulticlassNmsBase10AttributesE
libopenvino.so.2420:_ZN2ov2op8internal23MulticlassNmsIEInternalC2ERKNS_6OutputINS_4NodeEEES7_S7_RKNS0_4util17MulticlassNmsBase10AttributesE
libopenvino.so.2420:_ZN2ov2op8internal27GenerateProposalsIEInternal24validate_and_infer_typesEv
libopenvino.so.2420:_ZN2ov2op8internal27GenerateProposalsIEInternalC1ERKNS_6OutputINS_4NodeEEES7_S7_S7_RKNS0_2v917GenerateProposals10AttributesERKNS_7element4TypeE
libopenvino.so.2420:_ZN2ov2op8internal27GenerateProposalsIEInternalC2ERKNS_6OutputINS_4NodeEEES7_S7_S7_RKNS0_2v917GenerateProposals10AttributesERKNS_7element4TypeE
libopenvino.so.2420:_ZN2ov2op8internal27NonMaxSuppressionIEInternal16visit_attributesERNS_16AttributeVisitorE
libopenvino.so.2420:_ZN2ov2op8internal27NonMaxSuppressionIEInternal24validate_and_infer_typesEv
libopenvino.so.2420:_ZN2ov2op8internal27NonMaxSuppressionIEInternalC1ERKNS_6OutputINS_4NodeEEES7_S7_S7_S7_S7_ibRKNS_7element4TypeESB_i
libopenvino.so.2420:_ZN2ov2op8internal27NonMaxSuppressionIEInternalC1ERKNS_6OutputINS_4NodeEEES7_S7_S7_S7_ibRKNS_7element4TypeESB_i
libopenvino.so.2420:_ZN2ov2op8internal27NonMaxSuppressionIEInternalC2ERKNS_6OutputINS_4NodeEEES7_S7_S7_S7_S7_ibRKNS_7element4TypeESB_i
libopenvino.so.2420:_ZN2ov2op8internal27NonMaxSuppressionIEInternalC2ERKNS_6OutputINS_4NodeEEES7_S7_S7_S7_ibRKNS_7element4TypeESB_i
libopenvino.so.2420:_ZN2ov2op8internal3RMS16visit_attributesERNS_16AttributeVisitorE
libopenvino.so.2420:_ZN2ov2op8internal3RMS24validate_and_infer_typesEv
libopenvino.so.2420:_ZN2ov2op8internal3RMSC1ERKNS_6OutputINS_4NodeEEES7_dNS_7element4TypeE
libopenvino.so.2420:_ZN2ov2op8internal3RMSC2ERKNS_6OutputINS_4NodeEEES7_dNS_7element4TypeE
libopenvino.so.2420:_ZN2ov2op8internal3RPE16visit_attributesERNS_16AttributeVisitorE
libopenvino.so.2420:_ZN2ov2op8internal3RPE24validate_and_infer_typesEv
libopenvino.so.2420:_ZN2ov2op8internal3RPE8set_axisEl
libopenvino.so.2420:_ZN2ov2op8internal3RPEC1ERKNS_6OutputINS_4NodeEEES7_S7_l
libopenvino.so.2420:_ZN2ov2op8internal3RPEC2ERKNS_6OutputINS_4NodeEEES7_S7_l
libopenvino.so.2420:_ZN2ov2op8internal7RMSNorm16visit_attributesERNS_16AttributeVisitorE
libopenvino.so.2420:_ZN2ov2op8internal7RMSNorm24validate_and_infer_typesEv
libopenvino.so.2420:_ZN2ov2op8internal7RMSNormC1ERKNS_6OutputINS_4NodeEEES7_S7_dRKNS_7element4TypeE
libopenvino.so.2420:_ZN2ov2op8internal7RMSNormC1ERKNS_6OutputINS_4NodeEEES7_dRKNS_7element4TypeE
libopenvino.so.2420:_ZN2ov2op8internal7RMSNormC2ERKNS_6OutputINS_4NodeEEES7_S7_dRKNS_7element4TypeE
libopenvino.so.2420:_ZN2ov2op8internal7RMSNormC2ERKNS_6OutputINS_4NodeEEES7_dRKNS_7element4TypeE
libopenvino.so.2420:_ZN2ov2op8internal9AUGRUCell16visit_attributesERNS_16AttributeVisitorE
libopenvino.so.2420:_ZN2ov2op8internal9AUGRUCell24validate_and_infer_typesEv
libopenvino.so.2420:_ZN2ov2op8internal9AUGRUCellC1ERKNS_6OutputINS_4NodeEEES7_S7_S7_S7_S7_m
libopenvino.so.2420:_ZN2ov2op8internal9AUGRUCellC1Ev
libopenvino.so.2420:_ZN2ov2op8internal9AUGRUCellC2ERKNS_6OutputINS_4NodeEEES7_S7_S7_S7_S7_m
libopenvino.so.2420:_ZN2ov2op8internal9AUGRUCellC2Ev
libopenvino.so.2420:_ZN2ov2oplsERSoRKNS0_10MVNEpsModeE
libopenvino.so.2420:_ZN2ov2oplsERSoRKNS0_12RoundingTypeE
libopenvino.so.2420:_ZN2ov2oplsERSoRKNS0_12TopKSortTypeE
libopenvino.so.2420:_ZN2ov2oplsERSoRKNS0_13BroadcastTypeE
libopenvino.so.2420:_ZN2ov2oplsERSoRKNS0_17AutoBroadcastTypeE
libopenvino.so.2420:_ZN2ov2oplsERSoRKNS0_21GeluApproximationModeE
libopenvino.so.2420:_ZN2ov2oplsERSoRKNS0_26RecurrentSequenceDirectionE
libopenvino.so.2420:_ZN2ov2oplsERSoRKNS0_3v1221ScatterElementsUpdate9ReductionE
libopenvino.so.2420:_ZN2ov2oplsERSoRKNS0_7EpsModeE
libopenvino.so.2420:_ZN2ov2oplsERSoRKNS0_7PadModeE
libopenvino.so.2420:_ZN2ov2oplsERSoRKNS0_7PadTypeE
libopenvino.so.2420:_ZN2ov2oplsERSoRKNS0_8TopKModeE
libopenvino.so.2420:_ZN2ov30QuantizationAlignmentAttribute16merge_attributesERSt6vectorINS_3AnyESaIS2_EE
libopenvino.so.2420:_ZN2ov30QuantizationAlignmentAttribute6createERKSt10shared_ptrINS_4NodeEERK19AttributeParameters
libopenvino.so.2420:_ZN2ov30QuantizationAlignmentAttributeC1Eb
libopenvino.so.2420:_ZN2ov30QuantizationAlignmentAttributeC2Eb
libopenvino.so.2420:_ZN2ov31get_number_of_logical_cpu_coresEb
libopenvino.so.2420:_ZN2ov32do_not_postpone_fp16_compressionERSt3mapINSt7__cxx1112basic_stringIcSt11char_traitsIcESaIcEEENS_3AnyESt4lessIS6_ESaISt4pairIKS6_S7_EEE
libopenvino.so.2420:_ZN2ov32mem_bandwidth_pressure_toleranceESt10shared_ptrINS_5ModelEEff
libopenvino.so.2420:_ZN2ov32set_original_precision_attributeERKSt10shared_ptrINS_4NodeEENS_7element6Type_tE
libopenvino.so.2420:_ZN2ov33with_cpu_x86_avx512_core_amx_bf16Ev
libopenvino.so.2420:_ZN2ov33with_cpu_x86_avx512_core_amx_int8Ev
libopenvino.so.2420:_ZN2ov34AvgPoolPrecisionPreservedAttribute16merge_attributesERSt6vectorINS_3AnyESaIS2_EE
libopenvino.so.2420:_ZN2ov34node_validation_failure_loc_stringB5cxx11EPKNS_4NodeE
libopenvino.so.2420:_ZN2ov34reset_original_precision_attributeERKSt10shared_ptrINS_4NodeEE
libopenvino.so.2420:_ZN2ov36populate_tensor_with_missing_symbolsERNS_10descriptor6TensorE
libopenvino.so.2420:_ZN2ov3Any4Base16visit_attributesERNS_16AttributeVisitorE
libopenvino.so.2420:_ZN2ov3Any4Base4initERKSt10shared_ptrINS_4NodeEE
libopenvino.so.2420:_ZN2ov3Any4Base5mergeERKSt6vectorISt10shared_ptrINS_4NodeEESaIS5_EE
libopenvino.so.2420:_ZN2ov3Any4Base9to_stringB5cxx11Ev
libopenvino.so.2420:_ZN2ov3Any4readERSi
libopenvino.so.2420:_ZN2ov3Any9addressofEv
libopenvino.so.2420:_ZN2ov3AnyC1EDn
libopenvino.so.2420:_ZN2ov3AnyC1EPKc
libopenvino.so.2420:_ZN2ov3AnyC1ERKS0_
libopenvino.so.2420:_ZN2ov3AnyC1ERKS0_RKSt10shared_ptrIvE
libopenvino.so.2420:_ZN2ov3AnyC2EDn
libopenvino.so.2420:_ZN2ov3AnyC2EPKc
libopenvino.so.2420:_ZN2ov3AnyC2ERKS0_
libopenvino.so.2420:_ZN2ov3AnyC2ERKS0_RKSt10shared_ptrIvE
libopenvino.so.2420:_ZN2ov3AnyD1Ev
libopenvino.so.2420:_ZN2ov3AnyD2Ev
libopenvino.so.2420:_ZN2ov3AnyaSERKS0_
libopenvino.so.2420:_ZN2ov4Busy6createERKNSt7__cxx1112basic_stringIcSt11char_traitsIcESaIcEEE
libopenvino.so.2420:_ZN2ov4BusyD0Ev
libopenvino.so.2420:_ZN2ov4BusyD1Ev
libopenvino.so.2420:_ZN2ov4BusyD2Ev
libopenvino.so.2420:_ZN2ov4Core12import_modelERSiRKNS_13RemoteContextERKSt3mapINSt7__cxx1112basic_stringIcSt11char_traitsIcESaIcEEENS_3AnyESt4lessISB_ESaISt4pairIKSB_SC_EEE
libopenvino.so.2420:_ZN2ov4Core12import_modelERSiRKNSt7__cxx1112basic_stringIcSt11char_traitsIcESaIcEEERKSt3mapIS7_NS_3AnyESt4lessIS7_ESaISt4pairIS8_SB_EEE
libopenvino.so.2420:_ZN2ov4Core12set_propertyERKNSt7__cxx1112basic_stringIcSt11char_traitsIcESaIcEEERKSt3mapIS6_NS_3AnyESt4lessIS6_ESaISt4pairIS7_SA_EEE
libopenvino.so.2420:_ZN2ov4Core12set_propertyERKSt3mapINSt7__cxx1112basic_stringIcSt11char_traitsIcESaIcEEENS_3AnyESt4lessIS7_ESaISt4pairIKS7_S8_EEE
libopenvino.so.2420:_ZN2ov4Core13add_extensionERKNSt7__cxx1112basic_stringIcSt11char_traitsIcESaIcEEE
libopenvino.so.2420:_ZN2ov4Core13add_extensionERKNSt7__cxx1112basic_stringIwSt11char_traitsIwESaIwEEE
libopenvino.so.2420:_ZN2ov4Core13add_extensionERKSt10shared_ptrINS_9ExtensionEE
libopenvino.so.2420:_ZN2ov4Core13add_extensionERKSt6vectorISt10shared_ptrINS_9ExtensionEESaIS4_EE
libopenvino.so.2420:_ZN2ov4Core13compile_modelERKNSt7__cxx1112basic_stringIcSt11char_traitsIcESaIcEEERKNS_6TensorES8_RKSt3mapIS6_NS_3AnyESt4lessIS6_ESaISt4pairIS7_SD_EEE
libopenvino.so.2420:_ZN2ov4Core13compile_modelERKNSt7__cxx1112basic_stringIcSt11char_traitsIcESaIcEEERKSt3mapIS6_NS_3AnyESt4lessIS6_ESaISt4pairIS7_SA_EEE
libopenvino.so.2420:_ZN2ov4Core13compile_modelERKNSt7__cxx1112basic_stringIcSt11char_traitsIcESaIcEEES8_RKSt3mapIS6_NS_3AnyESt4lessIS6_ESaISt4pairIS7_SA_EEE
libopenvino.so.2420:_ZN2ov4Core13compile_modelERKNSt7__cxx1112basic_stringIwSt11char_traitsIwESaIwEEERKNS2_IcS3_IcESaIcEEERKSt3mapISB_NS_3AnyESt4lessISB_ESaISt4pairISC_SF_EEE
libopenvino.so.2420:_ZN2ov4Core13compile_modelERKNSt7__cxx1112basic_stringIwSt11char_traitsIwESaIwEEERKSt3mapINS2_IcS3_IcESaIcEEENS_3AnyESt4lessISC_ESaISt4pairIKSC_SD_EEE
libopenvino.so.2420:_ZN2ov4Core13compile_modelERKSt10shared_ptrIKNS_5ModelEERKNS_13RemoteContextERKSt3mapINSt7__cxx1112basic_stringIcSt11char_traitsIcESaIcEEENS_3AnyESt4lessISG_ESaISt4pairIKSG_SH_EEE
libopenvino.so.2420:_ZN2ov4Core13compile_modelERKSt10shared_ptrIKNS_5ModelEERKNSt7__cxx1112basic_stringIcSt11char_traitsIcESaIcEEERKSt3mapISC_NS_3AnyESt4lessISC_ESaISt4pairISD_SG_EEE
libopenvino.so.2420:_ZN2ov4Core13compile_modelERKSt10shared_ptrIKNS_5ModelEERKSt3mapINSt7__cxx1112basic_stringIcSt11char_traitsIcESaIcEEENS_3AnyESt4lessISD_ESaISt4pairIKSD_SE_EEE
libopenvino.so.2420:_ZN2ov4Core13unload_pluginERKNSt7__cxx1112basic_stringIcSt11char_traitsIcESaIcEEE
libopenvino.so.2420:_ZN2ov4Core14create_contextERKNSt7__cxx1112basic_stringIcSt11char_traitsIcESaIcEEERKSt3mapIS6_NS_3AnyESt4lessIS6_ESaISt4pairIS7_SA_EEE
libopenvino.so.2420:_ZN2ov4Core15register_pluginERKNSt7__cxx1112basic_stringIcSt11char_traitsIcESaIcEEES8_RKSt3mapIS6_NS_3AnyESt4lessIS6_ESaISt4pairIS7_SA_EEE
libopenvino.so.2420:_ZN2ov4Core16register_pluginsERKNSt7__cxx1112basic_stringIcSt11char_traitsIcESaIcEEE
libopenvino.so.2420:_ZN2ov4Core19get_default_contextERKNSt7__cxx1112basic_stringIcSt11char_traitsIcESaIcEEE
libopenvino.so.2420:_ZN2ov4CoreC1ERKNSt7__cxx1112basic_stringIcSt11char_traitsIcESaIcEEE
libopenvino.so.2420:_ZN2ov4CoreC2ERKNSt7__cxx1112basic_stringIcSt11char_traitsIcESaIcEEE
libopenvino.so.2420:_ZN2ov4Node10match_nodeEPNS_4pass7pattern7MatcherERKNS_6OutputIS0_EE
libopenvino.so.2420:_ZN2ov4Node11insert_infoESt10shared_ptrINS_12SharedRTInfoEE
libopenvino.so.2420:_ZN2ov4Node11match_valueEPNS_4pass7pattern7MatcherERKNS_6OutputIS0_EES8_
libopenvino.so.2420:_ZN2ov4Node11safe_deleteERSt6vectorISt10shared_ptrIS0_ESaIS3_EEb
libopenvino.so.2420:_ZN2ov4Node12set_argumentEmRKNS_6OutputIS0_EE
libopenvino.so.2420:_ZN2ov4Node13constant_foldERSt6vectorINS_6OutputIS0_EESaIS3_EERKS5_
libopenvino.so.2420:_ZN2ov4Node13set_argumentsERKSt6vectorINS_6OutputIS0_EESaIS3_EE
libopenvino.so.2420:_ZN2ov4Node13set_argumentsERKSt6vectorISt10shared_ptrIS0_ESaIS3_EE
libopenvino.so.2420:_ZN2ov4Node15set_output_sizeEm
libopenvino.so.2420:_ZN2ov4Node15set_output_typeEmRKNS_7element4TypeERKNS_12PartialShapeE
libopenvino.so.2420:_ZN2ov4Node16visit_attributesERNS_16AttributeVisitorE
libopenvino.so.2420:_ZN2ov4Node17invalidate_valuesEv
libopenvino.so.2420:_ZN2ov4Node17set_friendly_nameERKNSt7__cxx1112basic_stringIcSt11char_traitsIcESaIcEEE
libopenvino.so.2420:_ZN2ov4Node18get_default_outputEv
libopenvino.so.2420:_ZN2ov4Node20get_input_descriptorEm
libopenvino.so.2420:_ZN2ov4Node21get_output_descriptorEm
libopenvino.so.2420:_ZN2ov4Node22add_control_dependencyESt10shared_ptrIS0_E
libopenvino.so.2420:_ZN2ov4Node24clear_control_dependentsEv
libopenvino.so.2420:_ZN2ov4Node24validate_and_infer_typesEv
libopenvino.so.2420:_ZN2ov4Node25remove_control_dependencyESt10shared_ptrIS0_E
libopenvino.so.2420:_ZN2ov4Node26clear_control_dependenciesEv
libopenvino.so.2420:_ZN2ov4Node27add_node_control_dependentsERKSt10shared_ptrIKS0_E
libopenvino.so.2420:_ZN2ov4Node27transfer_control_dependentsESt10shared_ptrIS0_E
libopenvino.so.2420:_ZN2ov4Node29add_node_control_dependenciesERKSt10shared_ptrIKS0_E
libopenvino.so.2420:_ZN2ov4Node30set_input_is_relevant_to_shapeEmb
libopenvino.so.2420:_ZN2ov4Node30set_input_is_relevant_to_valueEmb
libopenvino.so.2420:_ZN2ov4Node36constructor_validate_and_infer_typesEv
libopenvino.so.2420:_ZN2ov4Node5inputEm
libopenvino.so.2420:_ZN2ov4Node6inputsEv
libopenvino.so.2420:_ZN2ov4Node6outputEm
libopenvino.so.2420:_ZN2ov4Node7outputsEv
libopenvino.so.2420:_ZN2ov4NodeC1ERKS0_
libopenvino.so.2420:_ZN2ov4NodeC1ERKSt6vectorINS_6OutputIS0_EESaIS3_EEm
libopenvino.so.2420:_ZN2ov4NodeC1Em
libopenvino.so.2420:_ZN2ov4NodeC1Ev
libopenvino.so.2420:_ZN2ov4NodeC2ERKS0_
libopenvino.so.2420:_ZN2ov4NodeC2ERKSt6vectorINS_6OutputIS0_EESaIS3_EEm
libopenvino.so.2420:_ZN2ov4NodeC2Em
libopenvino.so.2420:_ZN2ov4NodeC2Ev
libopenvino.so.2420:_ZN2ov4NodeD0Ev
libopenvino.so.2420:_ZN2ov4NodeD1Ev
libopenvino.so.2420:_ZN2ov4NodeD2Ev
libopenvino.so.2420:_ZN2ov4NodeaSERKS0_
libopenvino.so.2420:_ZN2ov4pass10AbsSinkingC1Ev
libopenvino.so.2420:_ZN2ov4pass10AbsSinkingC2Ev
libopenvino.so.2420:_ZN2ov4pass10Attributes19create_by_type_infoERKNS_16DiscreteTypeInfoE
libopenvino.so.2420:_ZN2ov4pass10AttributesC1Ev
libopenvino.so.2420:_ZN2ov4pass10AttributesC2Ev
libopenvino.so.2420:_ZN2ov4pass10ConvertModC1Ev
libopenvino.so.2420:_ZN2ov4pass10ConvertModC2Ev
libopenvino.so.2420:_ZN2ov4pass10MishFusionC1Ev
libopenvino.so.2420:_ZN2ov4pass10MishFusionC2Ev
libopenvino.so.2420:_ZN2ov4pass10PassConfig19add_disabled_passesERKS1_
libopenvino.so.2420:_ZN2ov4pass10PassConfig6enableERKNS_16DiscreteTypeInfoE
libopenvino.so.2420:_ZN2ov4pass10PassConfig7disableERKNS_16DiscreteTypeInfoE
libopenvino.so.2420:_ZN2ov4pass10PassConfigC1Ev
libopenvino.so.2420:_ZN2ov4pass10PassConfigC2Ev
libopenvino.so.2420:_ZN2ov4pass10RPE_FusionC1Ev
libopenvino.so.2420:_ZN2ov4pass10RPE_FusionC2Ev
libopenvino.so.2420:_ZN2ov4pass11ClampFusionC1Ev
libopenvino.so.2420:_ZN2ov4pass11ClampFusionC2Ev
libopenvino.so.2420:_ZN2ov4pass11ConvertGELUC1Ev
libopenvino.so.2420:_ZN2ov4pass11ConvertGELUC2Ev
libopenvino.so.2420:_ZN2ov4pass11LowLatency212run_on_modelERKSt10shared_ptrINS_5ModelEE
libopenvino.so.2420:_ZN2ov4pass11MatcherPass16register_matcherERKSt10shared_ptrINS0_7pattern7MatcherEERKSt8functionIFbRS4_EE
libopenvino.so.2420:_ZN2ov4pass11MatcherPass16register_matcherERKSt10shared_ptrINS0_7pattern7MatcherEERKSt8functionIFbRS4_EERKNS_8EnumMaskINS0_12PassPropertyEEE
libopenvino.so.2420:_ZN2ov4pass11MatcherPass5applyESt10shared_ptrINS_4NodeEE
libopenvino.so.2420:_ZN2ov4pass11ReduceMergeC1Ev
libopenvino.so.2420:_ZN2ov4pass11ReduceMergeC2Ev
libopenvino.so.2420:_ZN2ov4pass11ReshapeTo1DC1Ev
libopenvino.so.2420:_ZN2ov4pass11ReshapeTo1DC2Ev
libopenvino.so.2420:_ZN2ov4pass12AddAddFusionC1Ev
libopenvino.so.2420:_ZN2ov4pass12AddAddFusionC2Ev
libopenvino.so.2420:_ZN2ov4pass12ConcatFusionC1Ev
libopenvino.so.2420:_ZN2ov4pass12ConcatFusionC2Ev
libopenvino.so.2420:_ZN2ov4pass12ConvertTopK3C1Ev
libopenvino.so.2420:_ZN2ov4pass12ConvertTopK3C2Ev
libopenvino.so.2420:_ZN2ov4pass12DivideFusionC1Ev
libopenvino.so.2420:_ZN2ov4pass12DivideFusionC2Ev
libopenvino.so.2420:_ZN2ov4pass12EliminatePadC1Ev
libopenvino.so.2420:_ZN2ov4pass12EliminatePadC2Ev
libopenvino.so.2420:_ZN2ov4pass12GraphRewrite12run_on_modelERKSt10shared_ptrINS_5ModelEE
libopenvino.so.2420:_ZN2ov4pass12GraphRewrite15set_pass_configERKSt10shared_ptrINS0_10PassConfigEE
libopenvino.so.2420:_ZN2ov4pass12GraphRewrite20apply_matcher_passesESt10shared_ptrINS_5ModelEESt5dequeISt8weak_ptrINS_4NodeEESaIS8_EE
libopenvino.so.2420:_ZN2ov4pass12InitNodeInfo12run_on_modelERKSt10shared_ptrINS_5ModelEE
libopenvino.so.2420:_ZN2ov4pass12MakeStateful12run_on_modelERKSt10shared_ptrINS_5ModelEE
libopenvino.so.2420:_ZN2ov4pass12NopBroadcastC1Ev
libopenvino.so.2420:_ZN2ov4pass12NopBroadcastC2Ev
libopenvino.so.2420:_ZN2ov4pass12ReshapePReluC1Ev
libopenvino.so.2420:_ZN2ov4pass12ReshapePReluC2Ev
libopenvino.so.2420:_ZN2ov4pass12SmartReshape12run_on_modelERKSt10shared_ptrINS_5ModelEE
libopenvino.so.2420:_ZN2ov4pass13ConvertDivideC1Ev
libopenvino.so.2420:_ZN2ov4pass13ConvertDivideC2Ev
libopenvino.so.2420:_ZN2ov4pass13GRUCellFusionC1Ev
libopenvino.so.2420:_ZN2ov4pass13GRUCellFusionC2Ev
libopenvino.so.2420:_ZN2ov4pass13SoftmaxFusionC1Ev
libopenvino.so.2420:_ZN2ov4pass13SoftmaxFusionC2Ev
libopenvino.so.2420:_ZN2ov4pass13TransposeFuseC1Ev
libopenvino.so.2420:_ZN2ov4pass13TransposeFuseC2Ev
libopenvino.so.2420:_ZN2ov4pass13VisualizeTree12run_on_modelERKSt10shared_ptrINS_5ModelEE
libopenvino.so.2420:_ZN2ov4pass13VisualizeTree13get_node_nameB5cxx11ESt10shared_ptrINS_4NodeEE
libopenvino.so.2420:_ZN2ov4pass13VisualizeTree14add_attributesB5cxx11ESt10shared_ptrINS_4NodeEE
libopenvino.so.2420:_ZN2ov4pass13VisualizeTree14get_attributesB5cxx11ESt10shared_ptrINS_4NodeEE
libopenvino.so.2420:_ZN2ov4pass13VisualizeTree18add_node_argumentsESt10shared_ptrINS_4NodeEERSt13unordered_mapIPS3_9HeightMapSt4hashIS6_ESt8equal_toIS6_ESaISt4pairIKS6_S7_EEERm
libopenvino.so.2420:_ZN2ov4pass13VisualizeTree18get_constant_valueB5cxx11ESt10shared_ptrINS_4NodeEEm
libopenvino.so.2420:_ZN2ov4pass13VisualizeTreeC1ERKNSt7__cxx1112basic_stringIcSt11char_traitsIcESaIcEEESt8functionIFvRKNS_4NodeERSt6vectorIS7_SaIS7_EEEEb
libopenvino.so.2420:_ZN2ov4pass13VisualizeTreeC2ERKNSt7__cxx1112basic_stringIcSt11char_traitsIcESaIcEEESt8functionIFvRKNS_4NodeERSt6vectorIS7_SaIS7_EEEEb
libopenvino.so.2420:_ZN2ov4pass13low_precision10MarkupBiasC1Ev
libopenvino.so.2420:_ZN2ov4pass13low_precision10MarkupBiasC2Ev
libopenvino.so.2420:_ZN2ov4pass13low_precision12LowPrecision12run_on_modelERKSt10shared_ptrINS_5ModelEE
libopenvino.so.2420:_ZN2ov4pass13low_precision12LowPrecision17isFQLevelsPresentERKSt10shared_ptrIKNS_5ModelEERKSt3setImSt4lessImESaImEE
libopenvino.so.2420:_ZN2ov4pass13low_precision12LowPrecision19isFunctionQuantizedERKSt10shared_ptrIKNS_5ModelEERKSt3setINS1_6levelsESt4lessISA_ESaISA_EE
libopenvino.so.2420:_ZN2ov4pass13low_precision12LowPrecisionC1ERKSt6vectorINS1_21PrecisionsRestrictionESaIS4_EERKS3_INS1_34QuantizationGranularityRestrictionESaIS9_EENS1_19LayerTransformation6ParamsE
libopenvino.so.2420:_ZN2ov4pass13low_precision12LowPrecisionC2ERKSt6vectorINS1_21PrecisionsRestrictionESaIS4_EERKS3_INS1_34QuantizationGranularityRestrictionESaIS9_EENS1_19LayerTransformation6ParamsE
libopenvino.so.2420:_ZN2ov4pass13low_precision13NetworkHelper11fuseConvertERKSt10shared_ptrINS_2op2v012FakeQuantizeEE
libopenvino.so.2420:_ZN2ov4pass13low_precision13NetworkHelper11isZeroConstERKSt10shared_ptrINS_4NodeEE
libopenvino.so.2420:_ZN2ov4pass13low_precision13NetworkHelper11removeLayerESt10shared_ptrINS_4NodeEE
libopenvino.so.2420:_ZN2ov4pass13low_precision13NetworkHelper12isScalarLikeESt10shared_ptrINS_2op2v08ConstantEE
libopenvino.so.2420:_ZN2ov4pass13low_precision13NetworkHelper14checkZeroPointERKSt10shared_ptrINS_4NodeEERKNS1_13DataPrecisionE
libopenvino.so.2420:_ZN2ov4pass13low_precision13NetworkHelper14getGroupsCountESt10shared_ptrINS_4NodeEE
libopenvino.so.2420:_ZN2ov4pass13low_precision13NetworkHelper14isConstantPathERKSt10shared_ptrINS_4NodeEE
libopenvino.so.2420:_ZN2ov4pass13low_precision13NetworkHelper15calculateLevelsEffffffRfS3_S3_S3_
libopenvino.so.2420:_ZN2ov4pass13low_precision13NetworkHelper15consumer_inputsESt10shared_ptrINS_4NodeEE
libopenvino.so.2420:_ZN2ov4pass13low_precision13NetworkHelper16foldFakeQuantizeERKSt10shared_ptrINS_2op2v012FakeQuantizeEEbb
libopenvino.so.2420:_ZN2ov4pass13low_precision13NetworkHelper16getConstantInputERKSt10shared_ptrIKNS_4NodeEEb
libopenvino.so.2420:_ZN2ov4pass13low_precision13NetworkHelper16optimizeSubtractESt10shared_ptrINS_2op2v18SubtractEE
libopenvino.so.2420:_ZN2ov4pass13low_precision13NetworkHelper17createEmptyValuesERKNS1_26FakeQuantizeDequantizationENS_7element4TypeE
libopenvino.so.2420:_ZN2ov4pass13low_precision13NetworkHelper17getDequantizationERKSt10shared_ptrIKNS_4NodeEESt6vectorINS_7element4TypeESaISB_EEmb
libopenvino.so.2420:_ZN2ov4pass13low_precision13NetworkHelper18foldDequantizationERKSt10shared_ptrINS_4NodeEEmRKSt6vectorINS_7element4TypeESaISA_EEb
libopenvino.so.2420:_ZN2ov4pass13low_precision13NetworkHelper18fold_fake_quantizeERKSt10shared_ptrINS_2op2v012FakeQuantizeEE
libopenvino.so.2420:_ZN2ov4pass13low_precision13NetworkHelper18fold_fake_quantizeERKSt10shared_ptrINS_2op2v012FakeQuantizeEEb
libopenvino.so.2420:_ZN2ov4pass13low_precision13NetworkHelper18getChildInputIndexERKSt10shared_ptrINS_4NodeEES7_
libopenvino.so.2420:_ZN2ov4pass13low_precision13NetworkHelper18makeDequantizationEffNS_7element4TypeERKNS_12PartialShapeES4_S4_St10shared_ptrINS_4NodeEE
libopenvino.so.2420:_ZN2ov4pass13low_precision13NetworkHelper18swapMultiplyAndAddESt10shared_ptrINS_2op2v13AddEEi
libopenvino.so.2420:_ZN2ov4pass13low_precision13NetworkHelper18toScalarIfPossibleESt10shared_ptrINS_4NodeEE
libopenvino.so.2420:_ZN2ov4pass13low_precision13NetworkHelper18updateFakeQuantizeESt10shared_ptrINS_2op2v012FakeQuantizeEENS_7element4TypeEffb
libopenvino.so.2420:_ZN2ov4pass13low_precision13NetworkHelper19checkConstantNotInfESt10shared_ptrINS_4NodeEE
libopenvino.so.2420:_ZN2ov4pass13low_precision13NetworkHelper19composeFakeQuantizeERKSt10shared_ptrINS_2op2v012FakeQuantizeEERKSt6vectorINS_7element4TypeESaISC_EE
libopenvino.so.2420:_ZN2ov4pass13low_precision13NetworkHelper19isQuantizeSupportedERKSt10shared_ptrINS_2op2v012FakeQuantizeEE
libopenvino.so.2420:_ZN2ov4pass13low_precision13NetworkHelper19updateReshapeValuesERKNS_5ShapeES5_RKSt6vectorImSaImEE
libopenvino.so.2420:_ZN2ov4pass13low_precision13NetworkHelper20getParentOutputIndexERKSt10shared_ptrINS_4NodeEES7_
libopenvino.so.2420:_ZN2ov4pass13low_precision13NetworkHelper20isPrecisionPreservedERKSt10shared_ptrINS_4NodeEE
libopenvino.so.2420:_ZN2ov4pass13low_precision13NetworkHelper21decomposeFakeQuantizeESt10shared_ptrINS_2op2v012FakeQuantizeEENS_7element4TypeEffbbS9_m
libopenvino.so.2420:_ZN2ov4pass13low_precision13NetworkHelper21getInputChannelsCountESt10shared_ptrINS_4NodeEE
libopenvino.so.2420:_ZN2ov4pass13low_precision13NetworkHelper21is_castable_to_one_ofENS_16DiscreteTypeInfoERKSt13unordered_setIS3_St4hashIS3_ESt8equal_toIS3_ESaIS3_EE
libopenvino.so.2420:_ZN2ov4pass13low_precision13NetworkHelper21precisionIntersectionERKSt6vectorINS_7element4TypeESaIS5_EES9_
libopenvino.so.2420:_ZN2ov4pass13low_precision13NetworkHelper22getDequantizationBelowERKSt10shared_ptrINS_4NodeEEb
libopenvino.so.2420:_ZN2ov4pass13low_precision13NetworkHelper22getOutputChannelsCountESt10shared_ptrIKNS_4NodeEEb
libopenvino.so.2420:_ZN2ov4pass13low_precision13NetworkHelper23moveDequantizationAfterERKSt10shared_ptrINS_4NodeEERKNS1_26FakeQuantizeDequantizationEbbRKSt6vectorINS_7element4TypeESaISD_EE
libopenvino.so.2420:_ZN2ov4pass13low_precision13NetworkHelper23normalizeDequantizationENS1_26FakeQuantizeDequantizationE
libopenvino.so.2420:_ZN2ov4pass13low_precision13NetworkHelper23optimizeMultipliesAfterESt10shared_ptrINS_4NodeEE
libopenvino.so.2420:_ZN2ov4pass13low_precision13NetworkHelper24moveDequantizationBeforeERKSt10shared_ptrINS_4NodeEERKNS1_26FakeQuantizeDequantizationEb
libopenvino.so.2420:_ZN2ov4pass13low_precision13NetworkHelper25getSingleConsumerConstantERKNS_6OutputINS_4NodeEEE
libopenvino.so.2420:_ZN2ov4pass13low_precision13NetworkHelper25insertDequantizationAfterERKSt10shared_ptrINS_4NodeEES7_S7_
libopenvino.so.2420:_ZN2ov4pass13low_precision13NetworkHelper26foldDequantizationConstantERKSt10shared_ptrINS_2op2v08ConstantEERKS3_INS_4NodeEEm
libopenvino.so.2420:_ZN2ov4pass13low_precision13NetworkHelper26makeDequantizationSubtractERKNS_6OutputINS_4NodeEEES7_
libopenvino.so.2420:_ZN2ov4pass13low_precision13NetworkHelper26separateInStandaloneBranchESt10shared_ptrINS_4NodeEERKSt6vectorINS_7element4TypeESaIS8_EE
libopenvino.so.2420:_ZN2ov4pass13low_precision13NetworkHelper26splitConstantsBeforeConcatESt10shared_ptrINS_4NodeEESt6vectorIS3_INS_2op2v08ConstantEESaISA_EE
libopenvino.so.2420:_ZN2ov4pass13low_precision13NetworkHelper27checkConstantValuePrecisionENS_7element4TypeERKSt10shared_ptrINS_4NodeEE
libopenvino.so.2420:_ZN2ov4pass13low_precision13NetworkHelper28normalizeDequantizationShapeERKSt10shared_ptrINS_4NodeEEb
libopenvino.so.2420:_ZN2ov4pass13low_precision13NetworkHelper32getParentsRecursivelyExceptTypesESt10shared_ptrINS_4NodeEERKSt13unordered_setINS_16DiscreteTypeInfoESt4hashIS7_ESt8equal_toIS7_ESaIS7_EEi
libopenvino.so.2420:_ZN2ov4pass13low_precision13NetworkHelper44areQuantizeAndDequantizeSupportedForMultiplyERKSt10shared_ptrIKNS_4NodeEERKSt6vectorINS_7element4TypeESaISB_EE
libopenvino.so.2420:_ZN2ov4pass13low_precision13NetworkHelper44areQuantizeAndDequantizeSupportedForSubtractERKSt10shared_ptrIKNS_4NodeEERKSt6vectorINS_7element4TypeESaISB_EE
libopenvino.so.2420:_ZN2ov4pass13low_precision13NetworkHelper5roundESt10shared_ptrINS_4NodeEENS_7element4TypeE
libopenvino.so.2420:_ZN2ov4pass13low_precision13NetworkHelper6isZeroESt10shared_ptrINS_2op2v08ConstantEE
libopenvino.so.2420:_ZN2ov4pass13low_precision13NetworkHelper8copyInfoERKSt10shared_ptrINS_4NodeEES7_b
libopenvino.so.2420:_ZN2ov4pass13low_precision13NetworkHelper8copyInfoERKSt6vectorISt10shared_ptrINS_4NodeEESaIS6_EERKS6_b
libopenvino.so.2420:_ZN2ov4pass13low_precision13NetworkHelper8copyInfoERKSt6vectorISt10shared_ptrINS_4NodeEESaIS6_EESA_b
libopenvino.so.2420:_ZN2ov4pass13low_precision13NetworkHelper8toScalarESt10shared_ptrINS_2op2v08ConstantEE
libopenvino.so.2420:_ZN2ov4pass13low_precision13NetworkHelper9consumersESt10shared_ptrINS_4NodeEE
libopenvino.so.2420:_ZN2ov4pass13low_precision13precision_set16get_int8_supportEv
libopenvino.so.2420:_ZN2ov4pass13low_precision13precision_set28get_int8_int16_int32_supportEv
libopenvino.so.2420:_ZN2ov4pass13low_precision15BaseMatcherPassC1ERK19AttributeParameters
libopenvino.so.2420:_ZN2ov4pass13low_precision15BaseMatcherPassC2ERK19AttributeParameters
libopenvino.so.2420:_ZN2ov4pass13low_precision16MarkupPrecisions11isSupportedERKSt10shared_ptrINS_4NodeEE
libopenvino.so.2420:_ZN2ov4pass13low_precision16MarkupPrecisions12run_on_modelERKSt10shared_ptrINS_5ModelEE
libopenvino.so.2420:_ZN2ov4pass13low_precision16MarkupPrecisions20isPrecisionPreservedERKSt10shared_ptrINS_4NodeEE
libopenvino.so.2420:_ZN2ov4pass13low_precision16MarkupPrecisionsC1ERKSt6vectorINS1_21PrecisionsRestrictionESaIS4_EERKS3_INS_7element4TypeESaISA_EE
libopenvino.so.2420:_ZN2ov4pass13low_precision16MarkupPrecisionsC2ERKSt6vectorINS1_21PrecisionsRestrictionESaIS4_EERKS3_INS_7element4TypeESaISA_EE
libopenvino.so.2420:_ZN2ov4pass13low_precision16MoveFakeQuantize9transformERNS1_21TransformationContextERNS0_7pattern7MatcherE
libopenvino.so.2420:_ZN2ov4pass13low_precision16MoveFakeQuantizeC1ERKNS1_19LayerTransformation6ParamsE
libopenvino.so.2420:_ZN2ov4pass13low_precision16MoveFakeQuantizeC2ERKNS1_19LayerTransformation6ParamsE
libopenvino.so.2420:_ZN2ov4pass13low_precision17AddTransformation9transformERNS1_21TransformationContextERNS0_7pattern7MatcherE
libopenvino.so.2420:_ZN2ov4pass13low_precision17AddTransformationC1ERKNS1_19LayerTransformation6ParamsE
libopenvino.so.2420:_ZN2ov4pass13low_precision17AddTransformationC2ERKNS1_19LayerTransformation6ParamsE
libopenvino.so.2420:_ZN2ov4pass13low_precision17MVNTransformation9transformERNS1_21TransformationContextERNS0_7pattern7MatcherE
libopenvino.so.2420:_ZN2ov4pass13low_precision17MVNTransformationC1ERKNS1_19LayerTransformation6ParamsE
libopenvino.so.2420:_ZN2ov4pass13low_precision17MVNTransformationC2ERKNS1_19LayerTransformation6ParamsE
libopenvino.so.2420:_ZN2ov4pass13low_precision17PadTransformation9transformERNS1_21TransformationContextERNS0_7pattern7MatcherE
libopenvino.so.2420:_ZN2ov4pass13low_precision17PadTransformationC1ERKNS1_19LayerTransformation6ParamsE
libopenvino.so.2420:_ZN2ov4pass13low_precision17PadTransformationC2ERKNS1_19LayerTransformation6ParamsE
libopenvino.so.2420:_ZN2ov4pass13low_precision18ReluTransformation9transformERNS1_21TransformationContextERNS0_7pattern7MatcherE
libopenvino.so.2420:_ZN2ov4pass13low_precision18ReluTransformationC1ERKNS1_19LayerTransformation6ParamsE
libopenvino.so.2420:_ZN2ov4pass13low_precision18ReluTransformationC2ERKNS1_19LayerTransformation6ParamsE
libopenvino.so.2420:_ZN2ov4pass13low_precision19ClampTransformation9transformERNS1_21TransformationContextERNS0_7pattern7MatcherE
libopenvino.so.2420:_ZN2ov4pass13low_precision19ClampTransformationC1ERKNS1_19LayerTransformation6ParamsE
libopenvino.so.2420:_ZN2ov4pass13low_precision19ClampTransformationC2ERKNS1_19LayerTransformation6ParamsE
libopenvino.so.2420:_ZN2ov4pass13low_precision19LayerTransformation10addPatternERNS0_12GraphRewriteERNS1_21TransformationContextESt10shared_ptrINS_4NodeEE
libopenvino.so.2420:_ZN2ov4pass13low_precision19LayerTransformation10setContextEPNS1_21TransformationContextE
libopenvino.so.2420:_ZN2ov4pass13low_precision19LayerTransformation16getDataPrecisionERKSt10shared_ptrINS_4NodeEERKNS1_19QuantizationDetailsERKSt6vectorINS_7element4TypeESaISD_EE
libopenvino.so.2420:_ZN2ov4pass13low_precision19LayerTransformation19getPrecisionDetailsERKNS1_19QuantizationDetailsE
libopenvino.so.2420:_ZN2ov4pass13low_precision19LayerTransformation19getPrecisionDetailsEmRKSt6vectorIfSaIfEES7_
libopenvino.so.2420:_ZN2ov4pass13low_precision19LayerTransformation19setUpdatePrecisionsEb
libopenvino.so.2420:_ZN2ov4pass13low_precision19LayerTransformation20setDefaultPrecisionsERKSt6vectorINS_7element4TypeESaIS5_EE
libopenvino.so.2420:_ZN2ov4pass13low_precision19LayerTransformation22canBeTransformedStaticERKSt10shared_ptrINS_4NodeEERKSt6vectorINS_7element4TypeESaISA_EE
libopenvino.so.2420:_ZN2ov4pass13low_precision19LayerTransformation24isAsymmetricQuantizationERKSt10shared_ptrIKNS_4NodeEERKSt6vectorINS_7element4TypeESaISB_EE
libopenvino.so.2420:_ZN2ov4pass13low_precision19LayerTransformationC1ERKNS2_6ParamsE
libopenvino.so.2420:_ZN2ov4pass13low_precision19LayerTransformationC2ERKNS2_6ParamsE
libopenvino.so.2420:_ZN2ov4pass13low_precision19MarkupOptimizations12run_on_modelERKSt10shared_ptrINS_5ModelEE
libopenvino.so.2420:_ZN2ov4pass13low_precision19MarkupOptimizationsC1ERKSt6vectorINS1_21PrecisionsRestrictionESaIS4_EERKS3_INS1_34QuantizationGranularityRestrictionESaIS9_EERK19AttributeParameters
libopenvino.so.2420:_ZN2ov4pass13low_precision19MarkupOptimizationsC2ERKSt6vectorINS1_21PrecisionsRestrictionESaIS4_EERKS3_INS1_34QuantizationGranularityRestrictionESaIS9_EERK19AttributeParameters
libopenvino.so.2420:_ZN2ov4pass13low_precision19PReluTransformation9transformERNS1_21TransformationContextERNS0_7pattern7MatcherE
libopenvino.so.2420:_ZN2ov4pass13low_precision19PReluTransformationC1ERKNS1_19LayerTransformation6ParamsE
libopenvino.so.2420:_ZN2ov4pass13low_precision19PReluTransformationC2ERKNS1_19LayerTransformation6ParamsE
libopenvino.so.2420:_ZN2ov4pass13low_precision19PropagatePrecisions12run_on_modelERKSt10shared_ptrINS_5ModelEE
libopenvino.so.2420:_ZN2ov4pass13low_precision19PropagatePrecisionsC1ERK19AttributeParameters
libopenvino.so.2420:_ZN2ov4pass13low_precision19PropagatePrecisionsC2ERK19AttributeParameters
libopenvino.so.2420:_ZN2ov4pass13low_precision19QuantizationDetails10getDetailsESt10shared_ptrINS_2op2v012FakeQuantizeEE
libopenvino.so.2420:_ZN2ov4pass13low_precision19QuantizationDetails12getBlobValueESt10shared_ptrINS_4NodeEE
libopenvino.so.2420:_ZN2ov4pass13low_precision19QuantizationDetails16isSupportedLevelEmRKSt3setINS1_6levelsESt4lessIS4_ESaIS4_EE
libopenvino.so.2420:_ZN2ov4pass13low_precision19QuantizationDetails17getInputIntervalsESt10shared_ptrINS_2op2v012FakeQuantizeEERSt6vectorIfSaIfEESB_
libopenvino.so.2420:_ZN2ov4pass13low_precision19QuantizationDetails18getOutputIntervalsESt10shared_ptrINS_2op2v012FakeQuantizeEERSt6vectorIfSaIfEESB_
libopenvino.so.2420:_ZN2ov4pass13low_precision19QuantizationDetails23outputLayoutIsSupportedESt10shared_ptrINS_2op2v012FakeQuantizeEEb
libopenvino.so.2420:_ZN2ov4pass13low_precision19QuantizationDetailsC1ERKS2_
libopenvino.so.2420:_ZN2ov4pass13low_precision19QuantizationDetailsC1EmRKSt6vectorIfSaIfEES7_S7_S7_
libopenvino.so.2420:_ZN2ov4pass13low_precision19QuantizationDetailsC1Ev
libopenvino.so.2420:_ZN2ov4pass13low_precision19QuantizationDetailsC2ERKS2_
libopenvino.so.2420:_ZN2ov4pass13low_precision19QuantizationDetailsC2EmRKSt6vectorIfSaIfEES7_S7_S7_
libopenvino.so.2420:_ZN2ov4pass13low_precision19QuantizationDetailsC2Ev
libopenvino.so.2420:_ZN2ov4pass13low_precision19SplitTransformation9transformERNS1_21TransformationContextERNS0_7pattern7MatcherE
libopenvino.so.2420:_ZN2ov4pass13low_precision19SplitTransformationC1ERKNS1_19LayerTransformation6ParamsE
libopenvino.so.2420:_ZN2ov4pass13low_precision19SplitTransformationC2ERKNS1_19LayerTransformation6ParamsE
libopenvino.so.2420:_ZN2ov4pass13low_precision19TypeRelaxedReplacerC1Ev
libopenvino.so.2420:_ZN2ov4pass13low_precision19TypeRelaxedReplacerC2Ev
libopenvino.so.2420:_ZN2ov4pass13low_precision20ConcatTransformation17isQuantizedStaticERKSt10shared_ptrIKNS_4NodeEE
libopenvino.so.2420:_ZN2ov4pass13low_precision20ConcatTransformation9transformERNS1_21TransformationContextERNS0_7pattern7MatcherE
libopenvino.so.2420:_ZN2ov4pass13low_precision20ConcatTransformationC1ERKNS1_19LayerTransformation6ParamsE
libopenvino.so.2420:_ZN2ov4pass13low_precision20ConcatTransformationC2ERKNS1_19LayerTransformation6ParamsE
libopenvino.so.2420:_ZN2ov4pass13low_precision20GatherTransformation9transformERNS1_21TransformationContextERNS0_7pattern7MatcherE
libopenvino.so.2420:_ZN2ov4pass13low_precision20GatherTransformationC1ERKNS1_19LayerTransformation6ParamsE
libopenvino.so.2420:_ZN2ov4pass13low_precision20GatherTransformationC2ERKNS1_19LayerTransformation6ParamsE
libopenvino.so.2420:_ZN2ov4pass13low_precision20MarkupCanBeQuantized12run_on_modelERKSt10shared_ptrINS_5ModelEE
libopenvino.so.2420:_ZN2ov4pass13low_precision20MarkupCanBeQuantizedC1ESt6vectorINS_7element4TypeESaIS5_EE
libopenvino.so.2420:_ZN2ov4pass13low_precision20MarkupCanBeQuantizedC2ESt6vectorINS_7element4TypeESaIS5_EE
libopenvino.so.2420:_ZN2ov4pass13low_precision20MatMulTransformation9transformERNS1_21TransformationContextERNS0_7pattern7MatcherE
libopenvino.so.2420:_ZN2ov4pass13low_precision20MatMulTransformationC1ERKNS1_19LayerTransformation6ParamsE
libopenvino.so.2420:_ZN2ov4pass13low_precision20MatMulTransformationC2ERKNS1_19LayerTransformation6ParamsE
libopenvino.so.2420:_ZN2ov4pass13low_precision21AvgPoolTransformation9transformERNS1_21TransformationContextERNS0_7pattern7MatcherE
libopenvino.so.2420:_ZN2ov4pass13low_precision21AvgPoolTransformationC1ERKNS1_19LayerTransformation6ParamsE
libopenvino.so.2420:_ZN2ov4pass13low_precision21AvgPoolTransformationC2ERKNS1_19LayerTransformation6ParamsE
libopenvino.so.2420:_ZN2ov4pass13low_precision21CleanupTransformation22canBeTransformedStaticERKSt10shared_ptrINS_4NodeEERKSt6vectorINS_7element4TypeESaISA_EE
libopenvino.so.2420:_ZN2ov4pass13low_precision21CleanupTransformationC1ERKNS1_19LayerTransformation6ParamsE
libopenvino.so.2420:_ZN2ov4pass13low_precision21CleanupTransformationC2ERKNS1_19LayerTransformation6ParamsE
libopenvino.so.2420:_ZN2ov4pass13low_precision21ConvertTransformation9transformERNS1_21TransformationContextERNS0_7pattern7MatcherE
libopenvino.so.2420:_ZN2ov4pass13low_precision21ConvertTransformationC1ERKNS1_19LayerTransformation6ParamsE
libopenvino.so.2420:_ZN2ov4pass13low_precision21ConvertTransformationC2ERKNS1_19LayerTransformation6ParamsE
libopenvino.so.2420:_ZN2ov4pass13low_precision21MaxPoolTransformation9transformERNS1_21TransformationContextERNS0_7pattern7MatcherE
libopenvino.so.2420:_ZN2ov4pass13low_precision21MaxPoolTransformationC1ERKNS1_19LayerTransformation6ParamsE
libopenvino.so.2420:_ZN2ov4pass13low_precision21MaxPoolTransformationC2ERKNS1_19LayerTransformation6ParamsE
libopenvino.so.2420:_ZN2ov4pass13low_precision21ReshapeTransformation16canBeTransformedERKNS_5ShapeES5_RKNS_12PartialShapeES8_
libopenvino.so.2420:_ZN2ov4pass13low_precision21ReshapeTransformation9transformERNS1_21TransformationContextERNS0_7pattern7MatcherE
libopenvino.so.2420:_ZN2ov4pass13low_precision21ReshapeTransformationC1ERKNS1_19LayerTransformation6ParamsE
libopenvino.so.2420:_ZN2ov4pass13low_precision21ReshapeTransformationC2ERKNS1_19LayerTransformation6ParamsE
libopenvino.so.2420:_ZN2ov4pass13low_precision21SqueezeTransformation9transformERNS1_21TransformationContextERNS0_7pattern7MatcherE
libopenvino.so.2420:_ZN2ov4pass13low_precision21SqueezeTransformationC1ERKNS1_19LayerTransformation6ParamsE
libopenvino.so.2420:_ZN2ov4pass13low_precision21SqueezeTransformationC2ERKNS1_19LayerTransformation6ParamsE
libopenvino.so.2420:_ZN2ov4pass13low_precision21TransformationContextC1ESt10shared_ptrINS_5ModelEE
libopenvino.so.2420:_ZN2ov4pass13low_precision21TransformationContextC1Ev
libopenvino.so.2420:_ZN2ov4pass13low_precision21TransformationContextC2ESt10shared_ptrINS_5ModelEE
libopenvino.so.2420:_ZN2ov4pass13low_precision21TransformationContextC2Ev
libopenvino.so.2420:_ZN2ov4pass13low_precision22MultiplyTransformation9transformERNS1_21TransformationContextERNS0_7pattern7MatcherE
libopenvino.so.2420:_ZN2ov4pass13low_precision22MultiplyTransformationC1ERKNS1_19LayerTransformation6ParamsE
libopenvino.so.2420:_ZN2ov4pass13low_precision22MultiplyTransformationC2ERKNS1_19LayerTransformation6ParamsE
libopenvino.so.2420:_ZN2ov4pass13low_precision22SubtractTransformation9transformERNS1_21TransformationContextERNS0_7pattern7MatcherE
libopenvino.so.2420:_ZN2ov4pass13low_precision22SubtractTransformationC1ERKNS1_19LayerTransformation6ParamsE
libopenvino.so.2420:_ZN2ov4pass13low_precision22SubtractTransformationC2ERKNS1_19LayerTransformation6ParamsE
libopenvino.so.2420:_ZN2ov4pass13low_precision23ConvertSubtractConstantC1ERKSt6vectorINS_7element4TypeESaIS5_EE
libopenvino.so.2420:_ZN2ov4pass13low_precision23ConvertSubtractConstantC2ERKSt6vectorINS_7element4TypeESaIS5_EE
libopenvino.so.2420:_ZN2ov4pass13low_precision23ReduceMaxTransformationC1ERKNS1_19LayerTransformation6ParamsE
libopenvino.so.2420:_ZN2ov4pass13low_precision23ReduceMaxTransformationC2ERKNS1_19LayerTransformation6ParamsE
libopenvino.so.2420:_ZN2ov4pass13low_precision23ReduceMinTransformationC1ERKNS1_19LayerTransformation6ParamsE
libopenvino.so.2420:_ZN2ov4pass13low_precision23ReduceMinTransformationC2ERKNS1_19LayerTransformation6ParamsE
libopenvino.so.2420:_ZN2ov4pass13low_precision23ReduceSumTransformationC1ERKNS1_19LayerTransformation6ParamsE
libopenvino.so.2420:_ZN2ov4pass13low_precision23ReduceSumTransformationC2ERKNS1_19LayerTransformation6ParamsE
libopenvino.so.2420:_ZN2ov4pass13low_precision23TransposeTransformation9transformERNS1_21TransformationContextERNS0_7pattern7MatcherE
libopenvino.so.2420:_ZN2ov4pass13low_precision23TransposeTransformationC1ERKNS1_19LayerTransformation6ParamsE
libopenvino.so.2420:_ZN2ov4pass13low_precision23TransposeTransformationC2ERKNS1_19LayerTransformation6ParamsE
libopenvino.so.2420:_ZN2ov4pass13low_precision23UnsqueezeTransformation9transformERNS1_21TransformationContextERNS0_7pattern7MatcherE
libopenvino.so.2420:_ZN2ov4pass13low_precision23UnsqueezeTransformationC1ERKNS1_19LayerTransformation6ParamsE
libopenvino.so.2420:_ZN2ov4pass13low_precision23UnsqueezeTransformationC2ERKNS1_19LayerTransformation6ParamsE
libopenvino.so.2420:_ZN2ov4pass13low_precision24ReduceBaseTransformation9transformERNS1_21TransformationContextERNS0_7pattern7MatcherE
libopenvino.so.2420:_ZN2ov4pass13low_precision24ReduceBaseTransformationC1ERKNS1_19LayerTransformation6ParamsE
libopenvino.so.2420:_ZN2ov4pass13low_precision24ReduceBaseTransformationC2ERKNS1_19LayerTransformation6ParamsE
libopenvino.so.2420:_ZN2ov4pass13low_precision24ReduceMeanTransformationC1ERKNS1_19LayerTransformation6ParamsE
libopenvino.so.2420:_ZN2ov4pass13low_precision24ReduceMeanTransformationC2ERKNS1_19LayerTransformation6ParamsE
libopenvino.so.2420:_ZN2ov4pass13low_precision25ConvolutionTransformation17isQuantizedStaticERKSt10shared_ptrIKNS_4NodeEERKSt6vectorINS_7element4TypeESaISB_EE
libopenvino.so.2420:_ZN2ov4pass13low_precision25ConvolutionTransformation9transformERNS1_21TransformationContextERNS0_7pattern7MatcherE
libopenvino.so.2420:_ZN2ov4pass13low_precision25ConvolutionTransformationC1ERKNS1_19LayerTransformation6ParamsE
libopenvino.so.2420:_ZN2ov4pass13low_precision25ConvolutionTransformationC2ERKNS1_19LayerTransformation6ParamsE
libopenvino.so.2420:_ZN2ov4pass13low_precision25EltwiseBaseTransformation13isBroadcastedERKNS_12PartialShapeE
libopenvino.so.2420:_ZN2ov4pass13low_precision25FoldConvertTransformation9transformERNS1_21TransformationContextERNS0_7pattern7MatcherE
libopenvino.so.2420:_ZN2ov4pass13low_precision25FoldConvertTransformationC1ERKNS1_19LayerTransformation6ParamsE
libopenvino.so.2420:_ZN2ov4pass13low_precision25FoldConvertTransformationC2ERKNS1_19LayerTransformation6ParamsE
libopenvino.so.2420:_ZN2ov4pass13low_precision25FuseConvertTransformation9transformERNS1_21TransformationContextERNS0_7pattern7MatcherE
libopenvino.so.2420:_ZN2ov4pass13low_precision25FuseConvertTransformationC1ERKNS1_19LayerTransformation6ParamsE
libopenvino.so.2420:_ZN2ov4pass13low_precision25FuseConvertTransformationC2ERKNS1_19LayerTransformation6ParamsE
libopenvino.so.2420:_ZN2ov4pass13low_precision25InterpolateTransformation9transformERNS1_21TransformationContextERNS0_7pattern7MatcherE
libopenvino.so.2420:_ZN2ov4pass13low_precision25InterpolateTransformationC1ERKNS1_19LayerTransformation6ParamsE
libopenvino.so.2420:_ZN2ov4pass13low_precision25InterpolateTransformationC2ERKNS1_19LayerTransformation6ParamsE
libopenvino.so.2420:_ZN2ov4pass13low_precision25NormalizeL2Transformation9transformERNS1_21TransformationContextERNS0_7pattern7MatcherE
libopenvino.so.2420:_ZN2ov4pass13low_precision25NormalizeL2TransformationC1ERKNS1_19LayerTransformation6ParamsE
libopenvino.so.2420:_ZN2ov4pass13low_precision25NormalizeL2TransformationC2ERKNS1_19LayerTransformation6ParamsE
libopenvino.so.2420:_ZN2ov4pass13low_precision26AlignQuantizationIntervals12run_on_modelERKSt10shared_ptrINS_5ModelEE
libopenvino.so.2420:_ZN2ov4pass13low_precision26AlignQuantizationIntervalsC1ERKSt6vectorINS_7element4TypeESaIS5_EE
libopenvino.so.2420:_ZN2ov4pass13low_precision26AlignQuantizationIntervalsC2ERKSt6vectorINS_7element4TypeESaIS5_EE
libopenvino.so.2420:_ZN2ov4pass13low_precision26BatchToSpaceTransformation9transformERNS1_21TransformationContextERNS0_7pattern7MatcherE
libopenvino.so.2420:_ZN2ov4pass13low_precision26BatchToSpaceTransformationC1ERKNS1_19LayerTransformation6ParamsE
libopenvino.so.2420:_ZN2ov4pass13low_precision26BatchToSpaceTransformationC2ERKNS1_19LayerTransformation6ParamsE
libopenvino.so.2420:_ZN2ov4pass13low_precision26DepthToSpaceTransformationC1ERKNS1_19LayerTransformation6ParamsE
libopenvino.so.2420:_ZN2ov4pass13low_precision26DepthToSpaceTransformationC2ERKNS1_19LayerTransformation6ParamsE
libopenvino.so.2420:_ZN2ov4pass13low_precision26FakeQuantizeDequantization10checkShapeERKSt10shared_ptrINS_4NodeEE
libopenvino.so.2420:_ZN2ov4pass13low_precision26FakeQuantizeDequantization24fillDequantizationParamsERKSt10shared_ptrINS_4NodeEERS3_INS_2op2v07ConvertEERS3_INS9_8ConstantEE
libopenvino.so.2420:_ZN2ov4pass13low_precision26FakeQuantizeDequantization24fillDequantizationParamsERKSt10shared_ptrINS_4NodeEERS3_INS_2op2v08ConstantEE
libopenvino.so.2420:_ZN2ov4pass13low_precision26FakeQuantizeDequantizationC1ERKNS_6OutputINS_4NodeEEERKSt10shared_ptrINS_2op2v07ConvertEERKS8_INS9_2v18SubtractEESE_RKS8_INSA_8ConstantEERKS8_INSF_8MultiplyEESN_
libopenvino.so.2420:_ZN2ov4pass13low_precision26FakeQuantizeDequantizationC1Ev
libopenvino.so.2420:_ZN2ov4pass13low_precision26FakeQuantizeDequantizationC2ERKNS_6OutputINS_4NodeEEERKSt10shared_ptrINS_2op2v07ConvertEERKS8_INS9_2v18SubtractEESE_RKS8_INSA_8ConstantEERKS8_INSF_8MultiplyEESN_
libopenvino.so.2420:_ZN2ov4pass13low_precision26FakeQuantizeDequantizationC2Ev
libopenvino.so.2420:_ZN2ov4pass13low_precision26FakeQuantizeTransformation15fuseElementwiseERNS1_21TransformationContextEPNS0_11MatcherPassERKSt10shared_ptrINS_2op2v012FakeQuantizeEEb
libopenvino.so.2420:_ZN2ov4pass13low_precision26FakeQuantizeTransformation16checkElementwiseERKSt10shared_ptrINS_4NodeEE
libopenvino.so.2420:_ZN2ov4pass13low_precision26FakeQuantizeTransformation9transformERNS1_21TransformationContextERNS0_7pattern7MatcherE
libopenvino.so.2420:_ZN2ov4pass13low_precision26FakeQuantizeTransformationC1ERKNS1_19LayerTransformation6ParamsE
libopenvino.so.2420:_ZN2ov4pass13low_precision26FakeQuantizeTransformationC2ERKNS1_19LayerTransformation6ParamsE
libopenvino.so.2420:_ZN2ov4pass13low_precision26SpaceToBatchTransformation9transformERNS1_21TransformationContextERNS0_7pattern7MatcherE
libopenvino.so.2420:_ZN2ov4pass13low_precision26SpaceToBatchTransformationC1ERKNS1_19LayerTransformation6ParamsE
libopenvino.so.2420:_ZN2ov4pass13low_precision26SpaceToBatchTransformationC2ERKNS1_19LayerTransformation6ParamsE
libopenvino.so.2420:_ZN2ov4pass13low_precision26StridedSliceTransformation9transformERNS1_21TransformationContextERNS0_7pattern7MatcherE
libopenvino.so.2420:_ZN2ov4pass13low_precision26StridedSliceTransformationC1ERKNS1_19LayerTransformation6ParamsE
libopenvino.so.2420:_ZN2ov4pass13low_precision26StridedSliceTransformationC2ERKNS1_19LayerTransformation6ParamsE
libopenvino.so.2420:_ZN2ov4pass13low_precision27AlignQuantizationParameters12run_on_modelERKSt10shared_ptrINS_5ModelEE
libopenvino.so.2420:_ZN2ov4pass13low_precision27AlignQuantizationParametersC1ESt6vectorINS_7element4TypeESaIS5_EE
libopenvino.so.2420:_ZN2ov4pass13low_precision27AlignQuantizationParametersC2ESt6vectorINS_7element4TypeESaIS5_EE
libopenvino.so.2420:_ZN2ov4pass13low_precision27RecurrentCellTransformation17wrap_quantizationESt10shared_ptrINS_4NodeEE
libopenvino.so.2420:_ZN2ov4pass13low_precision27RecurrentCellTransformation18wrap_fake_quantizeESt10shared_ptrINS_4NodeEE
libopenvino.so.2420:_ZN2ov4pass13low_precision27RecurrentCellTransformation19wrap_dequantizationESt10shared_ptrINS_4NodeEEb
libopenvino.so.2420:_ZN2ov4pass13low_precision27RecurrentCellTransformation29propagateSkipCleanupAttributeESt10shared_ptrINS_4NodeEE
libopenvino.so.2420:_ZN2ov4pass13low_precision27RecurrentCellTransformation9transformERNS1_21TransformationContextERNS0_7pattern7MatcherE
libopenvino.so.2420:_ZN2ov4pass13low_precision27RecurrentCellTransformationC1ERKNS1_19LayerTransformation6ParamsE
libopenvino.so.2420:_ZN2ov4pass13low_precision27RecurrentCellTransformationC2ERKNS1_19LayerTransformation6ParamsE
libopenvino.so.2420:_ZN2ov4pass13low_precision27VariadicSplitTransformationC1ERKNS1_19LayerTransformation6ParamsE
libopenvino.so.2420:_ZN2ov4pass13low_precision27VariadicSplitTransformationC2ERKNS1_19LayerTransformation6ParamsE
libopenvino.so.2420:_ZN2ov4pass13low_precision29MarkupQuantizationGranularity12run_on_modelERKSt10shared_ptrINS_5ModelEE
libopenvino.so.2420:_ZN2ov4pass13low_precision29MarkupQuantizationGranularityC1ERKSt6vectorINS1_34QuantizationGranularityRestrictionESaIS4_EE
libopenvino.so.2420:_ZN2ov4pass13low_precision29MarkupQuantizationGranularityC2ERKSt6vectorINS1_34QuantizationGranularityRestrictionESaIS4_EE
libopenvino.so.2420:_ZN2ov4pass13low_precision29MultiplyPartialTransformation9transformERNS1_21TransformationContextERNS0_7pattern7MatcherE
libopenvino.so.2420:_ZN2ov4pass13low_precision29MultiplyPartialTransformationC1ERKNS1_19LayerTransformation6ParamsE
libopenvino.so.2420:_ZN2ov4pass13low_precision29MultiplyPartialTransformationC2ERKNS1_19LayerTransformation6ParamsE
libopenvino.so.2420:_ZN2ov4pass13low_precision29ShuffleChannelsTransformation9transformERNS1_21TransformationContextERNS0_7pattern7MatcherE
libopenvino.so.2420:_ZN2ov4pass13low_precision29ShuffleChannelsTransformationC1ERKNS1_19LayerTransformation6ParamsE
libopenvino.so.2420:_ZN2ov4pass13low_precision29ShuffleChannelsTransformationC2ERKNS1_19LayerTransformation6ParamsE
libopenvino.so.2420:_ZN2ov4pass13low_precision29TransparentBaseTransformation9transformERNS1_21TransformationContextERNS0_7pattern7MatcherE
libopenvino.so.2420:_ZN2ov4pass13low_precision29WeightableLayerTransformation11isDepthwiseERKSt10shared_ptrINS_4NodeEE
libopenvino.so.2420:_ZN2ov4pass13low_precision29WeightableLayerTransformation17isQuantizedStaticERKSt10shared_ptrIKNS_4NodeEEbRKSt6vectorINS_7element4TypeESaISB_EE
libopenvino.so.2420:_ZN2ov4pass13low_precision29WeightableLayerTransformation21isAsymmetricOnWeightsERKSt10shared_ptrIKNS_4NodeEERKSt6vectorINS_7element4TypeESaISB_EE
libopenvino.so.2420:_ZN2ov4pass13low_precision29WeightableLayerTransformation24getFakeQuantizeOnWeightsERKSt10shared_ptrINS_4NodeEE
libopenvino.so.2420:_ZN2ov4pass13low_precision29WeightableLayerTransformation25getDataPrecisionOnWeightsERKSt10shared_ptrINS_4NodeEERKSt6vectorINS_7element4TypeESaISA_EE
libopenvino.so.2420:_ZN2ov4pass13low_precision29WeightableLayerTransformation7isGroupERKSt10shared_ptrINS_4NodeEE
libopenvino.so.2420:_ZN2ov4pass13low_precision29WeightableLayerTransformationC1ERKNS1_19LayerTransformation6ParamsERKNS2_22CanBeTransformedParamsE
libopenvino.so.2420:_ZN2ov4pass13low_precision29WeightableLayerTransformationC2ERKNS1_19LayerTransformation6ParamsERKNS2_22CanBeTransformedParamsE
libopenvino.so.2420:_ZN2ov4pass13low_precision30FoldFakeQuantizeTransformation9transformERNS1_21TransformationContextERNS0_7pattern7MatcherE
libopenvino.so.2420:_ZN2ov4pass13low_precision30FoldFakeQuantizeTransformationC1ERKNS1_19LayerTransformation6ParamsE
libopenvino.so.2420:_ZN2ov4pass13low_precision30FoldFakeQuantizeTransformationC2ERKNS1_19LayerTransformation6ParamsE
libopenvino.so.2420:_ZN2ov4pass13low_precision30GroupConvolutionTransformation17isQuantizedStaticERKSt10shared_ptrIKNS_4NodeEERKSt6vectorINS_7element4TypeESaISB_EE
libopenvino.so.2420:_ZN2ov4pass13low_precision30GroupConvolutionTransformation9transformERNS1_21TransformationContextERNS0_7pattern7MatcherE
libopenvino.so.2420:_ZN2ov4pass13low_precision30GroupConvolutionTransformationC1ERKNS1_19LayerTransformation6ParamsE
libopenvino.so.2420:_ZN2ov4pass13low_precision30GroupConvolutionTransformationC2ERKNS1_19LayerTransformation6ParamsE
libopenvino.so.2420:_ZN2ov4pass13low_precision31MarkupAvgPoolPrecisionPreserved12run_on_modelERKSt10shared_ptrINS_5ModelEE
libopenvino.so.2420:_ZN2ov4pass13low_precision31MarkupAvgPoolPrecisionPreservedC1ESt6vectorINS_7element4TypeESaIS5_EE
libopenvino.so.2420:_ZN2ov4pass13low_precision31MarkupAvgPoolPrecisionPreservedC2ESt6vectorINS_7element4TypeESaIS5_EE
libopenvino.so.2420:_ZN2ov4pass13low_precision32AssignAndReadValueTransformation9transformERNS1_21TransformationContextERNS0_7pattern7MatcherE
libopenvino.so.2420:_ZN2ov4pass13low_precision32AssignAndReadValueTransformationC1ESt10shared_ptrINS_5ModelEERKNS1_19LayerTransformation6ParamsE
libopenvino.so.2420:_ZN2ov4pass13low_precision32AssignAndReadValueTransformationC2ESt10shared_ptrINS_5ModelEERKNS1_19LayerTransformation6ParamsE
libopenvino.so.2420:_ZN2ov4pass13low_precision32PullReshapeThroughDequantizationC1ERKSt6vectorINS_7element4TypeESaIS5_EE
libopenvino.so.2420:_ZN2ov4pass13low_precision32PullReshapeThroughDequantizationC2ERKSt6vectorINS_7element4TypeESaIS5_EE
libopenvino.so.2420:_ZN2ov4pass13low_precision34PullTransposeThroughDequantizationC1ERKSt6vectorINS_7element4TypeESaIS5_EE
libopenvino.so.2420:_ZN2ov4pass13low_precision34PullTransposeThroughDequantizationC2ERKSt6vectorINS_7element4TypeESaIS5_EE
libopenvino.so.2420:_ZN2ov4pass13low_precision35EliminateFakeQuantizeTransformation9transformERNS1_21TransformationContextERNS0_7pattern7MatcherE
libopenvino.so.2420:_ZN2ov4pass13low_precision35EliminateFakeQuantizeTransformationC1ERKNS1_19LayerTransformation6ParamsE
libopenvino.so.2420:_ZN2ov4pass13low_precision35EliminateFakeQuantizeTransformationC2ERKNS1_19LayerTransformation6ParamsE
libopenvino.so.2420:_ZN2ov4pass13low_precision37ConvolutionBackpropDataTransformation17isQuantizedStaticERKSt10shared_ptrIKNS_4NodeEERKSt6vectorINS_7element4TypeESaISB_EE
libopenvino.so.2420:_ZN2ov4pass13low_precision37ConvolutionBackpropDataTransformation9transformERNS1_21TransformationContextERNS0_7pattern7MatcherE
libopenvino.so.2420:_ZN2ov4pass13low_precision37ConvolutionBackpropDataTransformationC1ERKNS1_19LayerTransformation6ParamsE
libopenvino.so.2420:_ZN2ov4pass13low_precision37ConvolutionBackpropDataTransformationC2ERKNS1_19LayerTransformation6ParamsE
libopenvino.so.2420:_ZN2ov4pass13low_precision39FakeQuantizeDecompositionTransformation9transformERNS1_21TransformationContextERNS0_7pattern7MatcherE
libopenvino.so.2420:_ZN2ov4pass13low_precision39FakeQuantizeDecompositionTransformationC1ERKNS1_19LayerTransformation6ParamsE
libopenvino.so.2420:_ZN2ov4pass13low_precision39FakeQuantizeDecompositionTransformationC2ERKNS1_19LayerTransformation6ParamsE
libopenvino.so.2420:_ZN2ov4pass13low_precision40FuseMultiplyToFakeQuantizeTransformation9transformERNS1_21TransformationContextERNS0_7pattern7MatcherE
libopenvino.so.2420:_ZN2ov4pass13low_precision40FuseMultiplyToFakeQuantizeTransformationC1ERKNS1_19LayerTransformation6ParamsE
libopenvino.so.2420:_ZN2ov4pass13low_precision40FuseMultiplyToFakeQuantizeTransformationC2ERKNS1_19LayerTransformation6ParamsE
libopenvino.so.2420:_ZN2ov4pass13low_precision40FuseSubtractToFakeQuantizeTransformation9transformERNS1_21TransformationContextERNS0_7pattern7MatcherE
libopenvino.so.2420:_ZN2ov4pass13low_precision40FuseSubtractToFakeQuantizeTransformationC1ERKNS1_19LayerTransformation6ParamsE
libopenvino.so.2420:_ZN2ov4pass13low_precision40FuseSubtractToFakeQuantizeTransformationC2ERKNS1_19LayerTransformation6ParamsE
libopenvino.so.2420:_ZN2ov4pass13low_precision40MultiplyToGroupConvolutionTransformation12setGroupSizeEm
libopenvino.so.2420:_ZN2ov4pass13low_precision40MultiplyToGroupConvolutionTransformation17isDynamicOrScalarERKSt10shared_ptrIKNS_4NodeEE
libopenvino.so.2420:_ZN2ov4pass13low_precision40MultiplyToGroupConvolutionTransformation34canBeTransformedToGroupConvolutionERKSt10shared_ptrIKNS_4NodeEE
libopenvino.so.2420:_ZN2ov4pass13low_precision40MultiplyToGroupConvolutionTransformation9transformERNS1_21TransformationContextERNS0_7pattern7MatcherE
libopenvino.so.2420:_ZN2ov4pass13low_precision40MultiplyToGroupConvolutionTransformationC1ERKNS1_19LayerTransformation6ParamsERKSt6vectorISt4pairIS7_ImSaImEES7_INS_7element4TypeESaISC_EEESaISF_EE
libopenvino.so.2420:_ZN2ov4pass13low_precision40MultiplyToGroupConvolutionTransformationC2ERKNS1_19LayerTransformation6ParamsERKSt6vectorISt4pairIS7_ImSaImEES7_INS_7element4TypeESaISC_EEESaISF_EE
libopenvino.so.2420:_ZN2ov4pass13low_precision43FuseElementwiseToFakeQuantizeTransformationC1ERKNS1_19LayerTransformation6ParamsE
libopenvino.so.2420:_ZN2ov4pass13low_precision43FuseElementwiseToFakeQuantizeTransformationC2ERKNS1_19LayerTransformation6ParamsE
libopenvino.so.2420:_ZN2ov4pass14ConvertMinimumC1Ev
libopenvino.so.2420:_ZN2ov4pass14ConvertMinimumC2Ev
libopenvino.so.2420:_ZN2ov4pass14EliminateSplitC1Ev
libopenvino.so.2420:_ZN2ov4pass14EliminateSplitC2Ev
libopenvino.so.2420:_ZN2ov4pass14Gelu7DowngradeC1Ev
libopenvino.so.2420:_ZN2ov4pass14Gelu7DowngradeC2Ev
libopenvino.so.2420:_ZN2ov4pass14LSTMCellFusionC1Ev
libopenvino.so.2420:_ZN2ov4pass14LSTMCellFusionC2Ev
libopenvino.so.2420:_ZN2ov4pass14NopEliminationC1Eb
libopenvino.so.2420:_ZN2ov4pass14NopEliminationC2Eb
libopenvino.so.2420:_ZN2ov4pass14ReshapeAMatMulC1Ev
libopenvino.so.2420:_ZN2ov4pass14ReshapeAMatMulC2Ev
libopenvino.so.2420:_ZN2ov4pass14ReshapeBMatMulC1Ev
libopenvino.so.2420:_ZN2ov4pass14ReshapeBMatMulC2Ev
libopenvino.so.2420:_ZN2ov4pass14SequenceFusionC1Ev
libopenvino.so.2420:_ZN2ov4pass14SequenceFusionC2Ev
libopenvino.so.2420:_ZN2ov4pass14SoftPlusFusionC1Ev
libopenvino.so.2420:_ZN2ov4pass14SoftPlusFusionC2Ev
libopenvino.so.2420:_ZN2ov4pass14SubtractFusionC1Ev
libopenvino.so.2420:_ZN2ov4pass14SubtractFusionC2Ev
libopenvino.so.2420:_ZN2ov4pass15AUGRUCellFusionC1Ev
libopenvino.so.2420:_ZN2ov4pass15AUGRUCellFusionC2Ev
libopenvino.so.2420:_ZN2ov4pass15BinarizeWeightsC1Ev
libopenvino.so.2420:_ZN2ov4pass15BinarizeWeightsC2Ev
libopenvino.so.2420:_ZN2ov4pass15ConstantFolding12run_on_modelERKSt10shared_ptrINS_5ModelEE
libopenvino.so.2420:_ZN2ov4pass15ConstantFolding29pre_calculated_values_foldingERKSt10shared_ptrINS_5ModelEE
libopenvino.so.2420:_ZN2ov4pass15ConstantFolding35copy_runtime_info_from_input_valuesERKSt10shared_ptrINS_4NodeEE
libopenvino.so.2420:_ZN2ov4pass15ConvertGather0DC1Ev
libopenvino.so.2420:_ZN2ov4pass15ConvertGather0DC2Ev
libopenvino.so.2420:_ZN2ov4pass15ConvertNegativeC1Ev
libopenvino.so.2420:_ZN2ov4pass15ConvertNegativeC2Ev
libopenvino.so.2420:_ZN2ov4pass15ConvertShapeOf3C1Ev
libopenvino.so.2420:_ZN2ov4pass15ConvertShapeOf3C2Ev
libopenvino.so.2420:_ZN2ov4pass15ConvertSubtractC1Ev
libopenvino.so.2420:_ZN2ov4pass15ConvertSubtractC2Ev
libopenvino.so.2420:_ZN2ov4pass15DeReshapeMatMulC1Ev
libopenvino.so.2420:_ZN2ov4pass15DeReshapeMatMulC2Ev
libopenvino.so.2420:_ZN2ov4pass15EliminateConcatC1Ev
libopenvino.so.2420:_ZN2ov4pass15EliminateConcatC2Ev
libopenvino.so.2420:_ZN2ov4pass15LeakyReluFusionC1Ev
libopenvino.so.2420:_ZN2ov4pass15LeakyReluFusionC2Ev
libopenvino.so.2420:_ZN2ov4pass15NopStridedSliceC1Ev
libopenvino.so.2420:_ZN2ov4pass15NopStridedSliceC2Ev
libopenvino.so.2420:_ZN2ov4pass15Proposal1ScalesC1Ev
libopenvino.so.2420:_ZN2ov4pass15Proposal1ScalesC2Ev
libopenvino.so.2420:_ZN2ov4pass15Proposal4ScalesC1Ev
libopenvino.so.2420:_ZN2ov4pass15Proposal4ScalesC2Ev
libopenvino.so.2420:_ZN2ov4pass15StreamSerialize12run_on_modelERKSt10shared_ptrINS_5ModelEE
libopenvino.so.2420:_ZN2ov4pass15StreamSerializeC1ERSoRKSt8functionIFvS2_EERKS3_IFNSt7__cxx1112basic_stringIcSt11char_traitsIcESaIcEEERKSD_EENS0_9Serialize7VersionE
libopenvino.so.2420:_ZN2ov4pass15StreamSerializeC2ERSoRKSt8functionIFvS2_EERKS3_IFNSt7__cxx1112basic_stringIcSt11char_traitsIcESaIcEEERKSD_EENS0_9Serialize7VersionE
libopenvino.so.2420:_ZN2ov4pass15TransposeMatMulC1Ev
libopenvino.so.2420:_ZN2ov4pass15TransposeMatMulC2Ev
libopenvino.so.2420:_ZN2ov4pass16ConvToBinaryConvC1Ev
libopenvino.so.2420:_ZN2ov4pass16ConvToBinaryConvC2Ev
libopenvino.so.2420:_ZN2ov4pass16ConvertPrecision12run_on_modelERKSt10shared_ptrINS_5ModelEE
libopenvino.so.2420:_ZN2ov4pass16EliminateConvertC1Ev
libopenvino.so.2420:_ZN2ov4pass16EliminateConvertC2Ev
libopenvino.so.2420:_ZN2ov4pass16EliminateEltwiseC1Ev
libopenvino.so.2420:_ZN2ov4pass16EliminateEltwiseC2Ev
libopenvino.so.2420:_ZN2ov4pass16EliminateSqueezeC1Ev
libopenvino.so.2420:_ZN2ov4pass16EliminateSqueezeC2Ev
libopenvino.so.2420:_ZN2ov4pass16EyeDecompositionC1Ev
libopenvino.so.2420:_ZN2ov4pass16EyeDecompositionC2Ev
libopenvino.so.2420:_ZN2ov4pass16PadFusionAvgPoolC1Ev
libopenvino.so.2420:_ZN2ov4pass16PadFusionAvgPoolC2Ev
libopenvino.so.2420:_ZN2ov4pass16TransposeConvertC1Ev
libopenvino.so.2420:_ZN2ov4pass16TransposeConvertC2Ev
libopenvino.so.2420:_ZN2ov4pass16TransposeEltwiseC1Ev
libopenvino.so.2420:_ZN2ov4pass16TransposeEltwiseC2Ev
libopenvino.so.2420:_ZN2ov4pass17AddMultiplyFusionC1Ev
libopenvino.so.2420:_ZN2ov4pass17AddMultiplyFusionC2Ev
libopenvino.so.2420:_ZN2ov4pass17ConcatToBroadcastC1Ev
libopenvino.so.2420:_ZN2ov4pass17ConcatToBroadcastC2Ev
libopenvino.so.2420:_ZN2ov4pass17ConvertBroadcast3C1Ev
libopenvino.so.2420:_ZN2ov4pass17ConvertBroadcast3C2Ev
libopenvino.so.2420:_ZN2ov4pass17ConvertFP32ToFP1612run_on_modelERKSt10shared_ptrINS_5ModelEE
libopenvino.so.2420:_ZN2ov4pass17ConvertMVN1ToMVN6C1Ev
libopenvino.so.2420:_ZN2ov4pass17ConvertMVN1ToMVN6C2Ev
libopenvino.so.2420:_ZN2ov4pass17ConvertNMS1ToNMS5C1Ev
libopenvino.so.2420:_ZN2ov4pass17ConvertNMS1ToNMS5C2Ev
libopenvino.so.2420:_ZN2ov4pass17ConvertNMS1ToNMS9C1Ev
libopenvino.so.2420:_ZN2ov4pass17ConvertNMS1ToNMS9C2Ev
libopenvino.so.2420:_ZN2ov4pass17ConvertNMS3ToNMS5C1Ev
libopenvino.so.2420:_ZN2ov4pass17ConvertNMS3ToNMS5C2Ev
libopenvino.so.2420:_ZN2ov4pass17ConvertNMS3ToNMS9C1Ev
libopenvino.so.2420:_ZN2ov4pass17ConvertNMS3ToNMS9C2Ev
libopenvino.so.2420:_ZN2ov4pass17ConvertNMS4ToNMS5C1Ev
libopenvino.so.2420:_ZN2ov4pass17ConvertNMS4ToNMS5C2Ev
libopenvino.so.2420:_ZN2ov4pass17ConvertNMS4ToNMS9C1Ev
libopenvino.so.2420:_ZN2ov4pass17ConvertNMS4ToNMS9C2Ev
libopenvino.so.2420:_ZN2ov4pass17ConvertNMS5ToNMS9C1Ev
libopenvino.so.2420:_ZN2ov4pass17ConvertNMS5ToNMS9C2Ev
libopenvino.so.2420:_ZN2ov4pass17FusedNamesCleanup12run_on_modelERKSt10shared_ptrINS_5ModelEE
libopenvino.so.2420:_ZN2ov4pass17MVN6DecompositionC1Ev
libopenvino.so.2420:_ZN2ov4pass17MVN6DecompositionC2Ev
libopenvino.so.2420:_ZN2ov4pass17NormalizeL2FusionC1Ev
libopenvino.so.2420:_ZN2ov4pass17NormalizeL2FusionC2Ev
libopenvino.so.2420:_ZN2ov4pass17transpose_sinking13TSForwardBase17transpose_sinkingERKNSt7__cxx1112basic_stringIcSt11char_traitsIcESaIcEEERKSt8functionIFbRKSt10shared_ptrINS_4NodeEERKNS1_5utils19TransposeInputsInfoEEE
libopenvino.so.2420:_ZN2ov4pass17transpose_sinking13TSForwardBase21default_inputs_updateERKSt10shared_ptrINS_4NodeEERKNS1_5utils19TransposeInputsInfoE
libopenvino.so.2420:_ZN2ov4pass17transpose_sinking13TSForwardBase22default_outputs_updateERKSt10shared_ptrINS_4NodeEERKNS1_5utils19TransposeInputsInfoE
libopenvino.so.2420:_ZN2ov4pass17transpose_sinking13TSForwardBase28if_node_has_transpose_inputsERKNS_6OutputINS_4NodeEEERKSt6vectorImSaImEERKSt8functionIFbRKSt10shared_ptrINS_2op2v19TransposeEERKSE_INSF_2v08ConstantEEEE
libopenvino.so.2420:_ZN2ov4pass17transpose_sinking13TSTileForwardC1Ev
libopenvino.so.2420:_ZN2ov4pass17transpose_sinking13TSTileForwardC2Ev
libopenvino.so.2420:_ZN2ov4pass17transpose_sinking14TSSliceForwardC1Ev
libopenvino.so.2420:_ZN2ov4pass17transpose_sinking14TSSliceForwardC2Ev
libopenvino.so.2420:_ZN2ov4pass17transpose_sinking14TSSplitForwardC1Ev
libopenvino.so.2420:_ZN2ov4pass17transpose_sinking14TSSplitForwardC2Ev
libopenvino.so.2420:_ZN2ov4pass17transpose_sinking14TSTileBackwardC1Ev
libopenvino.so.2420:_ZN2ov4pass17transpose_sinking14TSTileBackwardC2Ev
libopenvino.so.2420:_ZN2ov4pass17transpose_sinking14TSUnaryForwardC1Ev
libopenvino.so.2420:_ZN2ov4pass17transpose_sinking14TSUnaryForwardC2Ev
libopenvino.so.2420:_ZN2ov4pass17transpose_sinking15TSBinaryForwardC1Ev
libopenvino.so.2420:_ZN2ov4pass17transpose_sinking15TSBinaryForwardC2Ev
libopenvino.so.2420:_ZN2ov4pass17transpose_sinking15TSConcatForwardC1Ev
libopenvino.so.2420:_ZN2ov4pass17transpose_sinking15TSConcatForwardC2Ev
libopenvino.so.2420:_ZN2ov4pass17transpose_sinking15TSCumSumForwardC1Ev
libopenvino.so.2420:_ZN2ov4pass17transpose_sinking15TSCumSumForwardC2Ev
libopenvino.so.2420:_ZN2ov4pass17transpose_sinking15TSGatherForwardC1Ev
libopenvino.so.2420:_ZN2ov4pass17transpose_sinking15TSGatherForwardC2Ev
libopenvino.so.2420:_ZN2ov4pass17transpose_sinking15TSSliceBackwardC1Ev
libopenvino.so.2420:_ZN2ov4pass17transpose_sinking15TSSliceBackwardC2Ev
libopenvino.so.2420:_ZN2ov4pass17transpose_sinking15TSSplitBackwardC1Ev
libopenvino.so.2420:_ZN2ov4pass17transpose_sinking15TSSplitBackwardC2Ev
libopenvino.so.2420:_ZN2ov4pass17transpose_sinking15TSUnaryBackwardC1Ev
libopenvino.so.2420:_ZN2ov4pass17transpose_sinking15TSUnaryBackwardC2Ev
libopenvino.so.2420:_ZN2ov4pass17transpose_sinking16TSBinaryBackwardC1Ev
libopenvino.so.2420:_ZN2ov4pass17transpose_sinking16TSBinaryBackwardC2Ev
libopenvino.so.2420:_ZN2ov4pass17transpose_sinking16TSConcatBackwardC1Ev
libopenvino.so.2420:_ZN2ov4pass17transpose_sinking16TSConcatBackwardC2Ev
libopenvino.so.2420:_ZN2ov4pass17transpose_sinking16TSCumSumBackwardC1Ev
libopenvino.so.2420:_ZN2ov4pass17transpose_sinking16TSCumSumBackwardC2Ev
libopenvino.so.2420:_ZN2ov4pass17transpose_sinking16TSGatherBackwardC1Ev
libopenvino.so.2420:_ZN2ov4pass17transpose_sinking16TSGatherBackwardC2Ev
libopenvino.so.2420:_ZN2ov4pass17transpose_sinking16TSGeneralForwardC1Ev
libopenvino.so.2420:_ZN2ov4pass17transpose_sinking16TSGeneralForwardC2Ev
libopenvino.so.2420:_ZN2ov4pass17transpose_sinking16TSShapeOfForwardC1Ev
libopenvino.so.2420:_ZN2ov4pass17transpose_sinking16TSShapeOfForwardC2Ev
libopenvino.so.2420:_ZN2ov4pass17transpose_sinking16TSSqueezeForwardC1Ev
libopenvino.so.2420:_ZN2ov4pass17transpose_sinking16TSSqueezeForwardC2Ev
libopenvino.so.2420:_ZN2ov4pass17transpose_sinking17TSGeneralBackwardC1Ev
libopenvino.so.2420:_ZN2ov4pass17transpose_sinking17TSGeneralBackwardC2Ev
libopenvino.so.2420:_ZN2ov4pass17transpose_sinking17TSSqueezeBackwardC1Ev
libopenvino.so.2420:_ZN2ov4pass17transpose_sinking17TSSqueezeBackwardC2Ev
libopenvino.so.2420:_ZN2ov4pass17transpose_sinking18TSReductionForwardC1Ev
libopenvino.so.2420:_ZN2ov4pass17transpose_sinking18TSReductionForwardC2Ev
libopenvino.so.2420:_ZN2ov4pass17transpose_sinking18TSUnsqueezeForwardC1Ev
libopenvino.so.2420:_ZN2ov4pass17transpose_sinking18TSUnsqueezeForwardC2Ev
libopenvino.so.2420:_ZN2ov4pass17transpose_sinking19TSReductionBackwardC1Ev
libopenvino.so.2420:_ZN2ov4pass17transpose_sinking19TSReductionBackwardC2Ev
libopenvino.so.2420:_ZN2ov4pass17transpose_sinking19TSUnsqueezeBackwardC1Ev
libopenvino.so.2420:_ZN2ov4pass17transpose_sinking19TSUnsqueezeBackwardC2Ev
libopenvino.so.2420:_ZN2ov4pass17transpose_sinking20TSInterpolateForwardC1Ev
libopenvino.so.2420:_ZN2ov4pass17transpose_sinking20TSInterpolateForwardC2Ev
libopenvino.so.2420:_ZN2ov4pass17transpose_sinking21TSDataMovementForwardC1Ev
libopenvino.so.2420:_ZN2ov4pass17transpose_sinking21TSDataMovementForwardC2Ev
libopenvino.so.2420:_ZN2ov4pass17transpose_sinking21TSInterpolateBackwardC1Ev
libopenvino.so.2420:_ZN2ov4pass17transpose_sinking21TSInterpolateBackwardC2Ev
libopenvino.so.2420:_ZN2ov4pass17transpose_sinking22TSDataMovementBackwardC1Ev
libopenvino.so.2420:_ZN2ov4pass17transpose_sinking22TSDataMovementBackwardC2Ev
libopenvino.so.2420:_ZN2ov4pass17transpose_sinking25TSResetNoSinkingAttributeC1Ev
libopenvino.so.2420:_ZN2ov4pass17transpose_sinking25TSResetNoSinkingAttributeC2Ev
libopenvino.so.2420:_ZN2ov4pass17transpose_sinking6TSFuseC1Ev
libopenvino.so.2420:_ZN2ov4pass17transpose_sinking6TSFuseC2Ev
libopenvino.so.2420:_ZN2ov4pass17transpose_sinking9TSGeneral12run_on_modelERKSt10shared_ptrINS_5ModelEE
libopenvino.so.2420:_ZN2ov4pass18BatchToSpaceFusionC1Ev
libopenvino.so.2420:_ZN2ov4pass18BatchToSpaceFusionC2Ev
libopenvino.so.2420:_ZN2ov4pass18ConcatReduceFusionC1Ev
libopenvino.so.2420:_ZN2ov4pass18ConcatReduceFusionC2Ev
libopenvino.so.2420:_ZN2ov4pass18ConvertConvertLikeC1Ev
libopenvino.so.2420:_ZN2ov4pass18ConvertConvertLikeC2Ev
libopenvino.so.2420:_ZN2ov4pass18ConvertPad12ToPad1C1Ev
libopenvino.so.2420:_ZN2ov4pass18ConvertPad12ToPad1C2Ev
libopenvino.so.2420:_ZN2ov4pass18DepthToSpaceFusionC1Ev
libopenvino.so.2420:_ZN2ov4pass18DepthToSpaceFusionC2Ev
libopenvino.so.2420:_ZN2ov4pass18EliminateTransposeC1Ev
libopenvino.so.2420:_ZN2ov4pass18EliminateTransposeC2Ev
libopenvino.so.2420:_ZN2ov4pass18GeluFusionWithTanhC1Ev
libopenvino.so.2420:_ZN2ov4pass18GeluFusionWithTanhC2Ev
libopenvino.so.2420:_ZN2ov4pass18MOCTransformations12run_on_modelERKSt10shared_ptrINS_5ModelEE
libopenvino.so.2420:_ZN2ov4pass18SpaceToBatchFusionC1Ev
libopenvino.so.2420:_ZN2ov4pass18SpaceToBatchFusionC2Ev
libopenvino.so.2420:_ZN2ov4pass18TransposeReductionC1Ev
libopenvino.so.2420:_ZN2ov4pass18TransposeReductionC2Ev
libopenvino.so.2420:_ZN2ov4pass18TransposeToReshapeC1Ev
libopenvino.so.2420:_ZN2ov4pass18TransposeToReshapeC2Ev
libopenvino.so.2420:_ZN2ov4pass18UselessSliceEraser12run_on_modelERKSt10shared_ptrINS_5ModelEE
libopenvino.so.2420:_ZN2ov4pass18is_model_optimizedERKSt10shared_ptrINS_5ModelEE
libopenvino.so.2420:_ZN2ov4pass19BroadcastTransitionC1Ev
libopenvino.so.2420:_ZN2ov4pass19BroadcastTransitionC2Ev
libopenvino.so.2420:_ZN2ov4pass19CommonOptimizations12run_on_modelERKSt10shared_ptrINS_5ModelEE
libopenvino.so.2420:_ZN2ov4pass19ConvertBatchToSpace22convert_batch_to_spaceEv
libopenvino.so.2420:_ZN2ov4pass19ConvertBatchToSpace34convert_batch_to_space_by_elementsEv
libopenvino.so.2420:_ZN2ov4pass19ConvertDepthToSpaceC1Ev
libopenvino.so.2420:_ZN2ov4pass19ConvertDepthToSpaceC2Ev
libopenvino.so.2420:_ZN2ov4pass19ConvertPriorBox8To0C1Ev
libopenvino.so.2420:_ZN2ov4pass19ConvertPriorBox8To0C2Ev
libopenvino.so.2420:_ZN2ov4pass19ConvertROIAlign3To9C1Ev
libopenvino.so.2420:_ZN2ov4pass19ConvertROIAlign3To9C2Ev
libopenvino.so.2420:_ZN2ov4pass19ConvertROIAlign9To3C1Ev
libopenvino.so.2420:_ZN2ov4pass19ConvertROIAlign9To3C2Ev
libopenvino.so.2420:_ZN2ov4pass19ConvertSpaceToBatch22convert_space_to_batchEv
libopenvino.so.2420:_ZN2ov4pass19ConvertSpaceToBatch34convert_space_to_batch_by_elementsEv
libopenvino.so.2420:_ZN2ov4pass19ConvertSpaceToDepthC1Ev
libopenvino.so.2420:_ZN2ov4pass19ConvertSpaceToDepthC2Ev
libopenvino.so.2420:_ZN2ov4pass19EinsumDecompositionC1Ev
libopenvino.so.2420:_ZN2ov4pass19EinsumDecompositionC2Ev
libopenvino.so.2420:_ZN2ov4pass19HSwishDecompositionC1Ev
libopenvino.so.2420:_ZN2ov4pass19HSwishDecompositionC2Ev
libopenvino.so.2420:_ZN2ov4pass19LSTMStatesBroadcast12run_on_modelERKSt10shared_ptrINS_5ModelEE
libopenvino.so.2420:_ZN2ov4pass19RandomUniformFusionC1Ev
libopenvino.so.2420:_ZN2ov4pass19RandomUniformFusionC2Ev
libopenvino.so.2420:_ZN2ov4pass19ReduceReshapeFusionC1Ev
libopenvino.so.2420:_ZN2ov4pass19ReduceReshapeFusionC2Ev
libopenvino.so.2420:_ZN2ov4pass19ShapeOfConstFoldingC1Ev
libopenvino.so.2420:_ZN2ov4pass19ShapeOfConstFoldingC2Ev
libopenvino.so.2420:_ZN2ov4pass19SliceToStridedSliceC1Eb
libopenvino.so.2420:_ZN2ov4pass19SliceToStridedSliceC2Eb
libopenvino.so.2420:_ZN2ov4pass19SqueezeStridedSliceC1Ev
libopenvino.so.2420:_ZN2ov4pass19SqueezeStridedSliceC2Ev
libopenvino.so.2420:_ZN2ov4pass19StridedSliceSqueezeC1Ev
libopenvino.so.2420:_ZN2ov4pass19StridedSliceSqueezeC2Ev
libopenvino.so.2420:_ZN2ov4pass19StridesOptimizationC1Ev
libopenvino.so.2420:_ZN2ov4pass19StridesOptimizationC2Ev
libopenvino.so.2420:_ZN2ov4pass19SwishFusionWithBetaC1Ev
libopenvino.so.2420:_ZN2ov4pass19SwishFusionWithBetaC2Ev
libopenvino.so.2420:_ZN2ov4pass19SymbolicPropagation12run_on_modelERKSt10shared_ptrINS_5ModelEE
libopenvino.so.2420:_ZN2ov4pass19UniqueDecompositionC1Ev
libopenvino.so.2420:_ZN2ov4pass19UniqueDecompositionC2Ev
libopenvino.so.2420:_ZN2ov4pass20AdaptivePoolToReduceC1Ev
libopenvino.so.2420:_ZN2ov4pass20AdaptivePoolToReduceC2Ev
libopenvino.so.2420:_ZN2ov4pass20BackwardGraphRewrite12run_on_modelERKSt10shared_ptrINS_5ModelEE
libopenvino.so.2420:_ZN2ov4pass20ConvertTopK11ToTopK3C1Ev
libopenvino.so.2420:_ZN2ov4pass20ConvertTopK11ToTopK3C2Ev
libopenvino.so.2420:_ZN2ov4pass20EliminateSplitConcatC1Ev
libopenvino.so.2420:_ZN2ov4pass20EliminateSplitConcatC2Ev
libopenvino.so.2420:_ZN2ov4pass20GRUCellDecompositionC1Ev
libopenvino.so.2420:_ZN2ov4pass20GRUCellDecompositionC2Ev
libopenvino.so.2420:_ZN2ov4pass20GatherNopEliminationC1Ev
libopenvino.so.2420:_ZN2ov4pass20GatherNopEliminationC2Ev
libopenvino.so.2420:_ZN2ov4pass20GeluFusionWithErfOneC1Ev
libopenvino.so.2420:_ZN2ov4pass20GeluFusionWithErfOneC2Ev
libopenvino.so.2420:_ZN2ov4pass20GeluFusionWithErfTwoC1Ev
libopenvino.so.2420:_ZN2ov4pass20GeluFusionWithErfTwoC2Ev
libopenvino.so.2420:_ZN2ov4pass20MarkShapeOfSubgraphsC1Ev
libopenvino.so.2420:_ZN2ov4pass20MarkShapeOfSubgraphsC2Ev
libopenvino.so.2420:_ZN2ov4pass20MatMulMultiplyFusionC1Ev
libopenvino.so.2420:_ZN2ov4pass20MatMulMultiplyFusionC2Ev
libopenvino.so.2420:_ZN2ov4pass20PadFusionConvolutionC1Ev
libopenvino.so.2420:_ZN2ov4pass20PadFusionConvolutionC2Ev
libopenvino.so.2420:_ZN2ov4pass20RNNCellDecompositionC1Ev
libopenvino.so.2420:_ZN2ov4pass20RNNCellDecompositionC2Ev
libopenvino.so.2420:_ZN2ov4pass20ReshapeOptimizationsC1Ev
libopenvino.so.2420:_ZN2ov4pass20ReshapeOptimizationsC2Ev
libopenvino.so.2420:_ZN2ov4pass20ReshapeSinkingMatMulC1Ev
libopenvino.so.2420:_ZN2ov4pass20ReshapeSinkingMatMulC2Ev
libopenvino.so.2420:_ZN2ov4pass20SDPAToPagedAttention12run_on_modelERKSt10shared_ptrINS_5ModelEE
libopenvino.so.2420:_ZN2ov4pass20SharedOpOptimization12run_on_modelERKSt10shared_ptrINS_5ModelEE
libopenvino.so.2420:_ZN2ov4pass20SoftPlusToMishFusionC1Ev
libopenvino.so.2420:_ZN2ov4pass20SoftPlusToMishFusionC2Ev
libopenvino.so.2420:_ZN2ov4pass20SoftmaxDecompositionC1Ev
libopenvino.so.2420:_ZN2ov4pass20SoftmaxDecompositionC2Ev
libopenvino.so.2420:_ZN2ov4pass20TransposeFQReductionC1Ev
libopenvino.so.2420:_ZN2ov4pass20TransposeFQReductionC2Ev
libopenvino.so.2420:_ZN2ov4pass20UnrollTensorIterator12run_on_modelERKSt10shared_ptrINS_5ModelEE
libopenvino.so.2420:_ZN2ov4pass21AddFakeQuantizeFusionC1Ev
libopenvino.so.2420:_ZN2ov4pass21AddFakeQuantizeFusionC2Ev
libopenvino.so.2420:_ZN2ov4pass21ConvertOpSet2ToOpSet112run_on_modelERKSt10shared_ptrINS_5ModelEE
libopenvino.so.2420:_ZN2ov4pass21ConvertOpSet3ToOpSet212run_on_modelERKSt10shared_ptrINS_5ModelEE
libopenvino.so.2420:_ZN2ov4pass21EliminateNopBroadcastC1Ev
libopenvino.so.2420:_ZN2ov4pass21EliminateNopBroadcastC2Ev
libopenvino.so.2420:_ZN2ov4pass21FakeQuantizeMulFusionC1Ev
libopenvino.so.2420:_ZN2ov4pass21FakeQuantizeMulFusionC2Ev
libopenvino.so.2420:_ZN2ov4pass21GeluFusionWithErfFourC1Ev
libopenvino.so.2420:_ZN2ov4pass21GeluFusionWithErfFourC2Ev
libopenvino.so.2420:_ZN2ov4pass21HSigmoidDecompositionC1Ev
libopenvino.so.2420:_ZN2ov4pass21HSigmoidDecompositionC2Ev
libopenvino.so.2420:_ZN2ov4pass21HSwishFusionWithClampC1Ev
libopenvino.so.2420:_ZN2ov4pass21HSwishFusionWithClampC2Ev
libopenvino.so.2420:_ZN2ov4pass21LSTMCellDecompositionC1Ev
libopenvino.so.2420:_ZN2ov4pass21LSTMCellDecompositionC2Ev
libopenvino.so.2420:_ZN2ov4pass21MulFakeQuantizeFusionC1Ev
libopenvino.so.2420:_ZN2ov4pass21MulFakeQuantizeFusionC2Ev
libopenvino.so.2420:_ZN2ov4pass21ReduceL1DecompositionC1Ev
libopenvino.so.2420:_ZN2ov4pass21ReduceL1DecompositionC2Ev
libopenvino.so.2420:_ZN2ov4pass21ReduceL2DecompositionC1Ev
libopenvino.so.2420:_ZN2ov4pass21ReduceL2DecompositionC2Ev
libopenvino.so.2420:_ZN2ov4pass21ReshapeSequenceFusionC1Eb
libopenvino.so.2420:_ZN2ov4pass21ReshapeSequenceFusionC2Eb
libopenvino.so.2420:_ZN2ov4pass21ResolveNameCollisions12run_on_modelERKSt10shared_ptrINS_5ModelEE
libopenvino.so.2420:_ZN2ov4pass21ShuffleChannelsFusionC1Eb
libopenvino.so.2420:_ZN2ov4pass21ShuffleChannelsFusionC2Eb
libopenvino.so.2420:_ZN2ov4pass21SimplifyGatherShapeOfC1Ev
libopenvino.so.2420:_ZN2ov4pass21SimplifyGatherShapeOfC2Ev
libopenvino.so.2420:_ZN2ov4pass21SoftPlusDecompositionC1Ev
libopenvino.so.2420:_ZN2ov4pass21SoftPlusDecompositionC2Ev
libopenvino.so.2420:_ZN2ov4pass21SoftSignDecompositionC1Ev
libopenvino.so.2420:_ZN2ov4pass21SoftSignDecompositionC2Ev
libopenvino.so.2420:_ZN2ov4pass21SymbolicOptimizations12run_on_modelERKSt10shared_ptrINS_5ModelEE
libopenvino.so.2420:_ZN2ov4pass21SymbolicOptimizationsC1Eb
libopenvino.so.2420:_ZN2ov4pass21SymbolicOptimizationsC2Eb
libopenvino.so.2420:_ZN2ov4pass21compress_model_to_f16ERKSt10shared_ptrINS_5ModelEEb
libopenvino.so.2420:_ZN2ov4pass22AlignEltwiseInputRanksC1Ev
libopenvino.so.2420:_ZN2ov4pass22AlignEltwiseInputRanksC2Ev
libopenvino.so.2420:_ZN2ov4pass22ApplySymbolEquivalence12run_on_modelERKSt10shared_ptrINS_5ModelEE
libopenvino.so.2420:_ZN2ov4pass22BatchNormDecompositionC1Ev
libopenvino.so.2420:_ZN2ov4pass22BatchNormDecompositionC2Ev
libopenvino.so.2420:_ZN2ov4pass22ChangePlaceholderTypes12run_on_modelERKSt10shared_ptrINS_5ModelEE
libopenvino.so.2420:_ZN2ov4pass22ConvStridesPropagationC1Ev
libopenvino.so.2420:_ZN2ov4pass22ConvStridesPropagationC2Ev
libopenvino.so.2420:_ZN2ov4pass22ConvertXorToLogicalXorC1Ev
libopenvino.so.2420:_ZN2ov4pass22ConvertXorToLogicalXorC2Ev
libopenvino.so.2420:_ZN2ov4pass22EliminateScatterUpdateC1Ev
libopenvino.so.2420:_ZN2ov4pass22EliminateScatterUpdateC2Ev
libopenvino.so.2420:_ZN2ov4pass22GeluFusionWithErfThreeC1Ev
libopenvino.so.2420:_ZN2ov4pass22GeluFusionWithErfThreeC2Ev
libopenvino.so.2420:_ZN2ov4pass22MultiplyMultiplyFusionC1Ev
libopenvino.so.2420:_ZN2ov4pass22MultiplyMultiplyFusionC2Ev
libopenvino.so.2420:_ZN2ov4pass22NopStridedSliceByShapeC1Ev
libopenvino.so.2420:_ZN2ov4pass22NopStridedSliceByShapeC2Ev
libopenvino.so.2420:_ZN2ov4pass22PReluFusionMultiplyAddC1Ev
libopenvino.so.2420:_ZN2ov4pass22PReluFusionMultiplyAddC2Ev
libopenvino.so.2420:_ZN2ov4pass22PReluFusionMultiplySubC1Ev
libopenvino.so.2420:_ZN2ov4pass22PReluFusionMultiplySubC2Ev
libopenvino.so.2420:_ZN2ov4pass22PReluFusionNegativeAddC1Ev
libopenvino.so.2420:_ZN2ov4pass22PReluFusionNegativeAddC2Ev
libopenvino.so.2420:_ZN2ov4pass22PReluFusionNegativeSubC1Ev
libopenvino.so.2420:_ZN2ov4pass22PReluFusionNegativeSubC2Ev
libopenvino.so.2420:_ZN2ov4pass22PushConstantToSubgraph12run_on_modelERKSt10shared_ptrINS_5ModelEE
libopenvino.so.2420:_ZN2ov4pass22ReluFakeQuantizeFusionC1Ev
libopenvino.so.2420:_ZN2ov4pass22ReluFakeQuantizeFusionC2Ev
libopenvino.so.2420:_ZN2ov4pass22SwishFusionWithSigmoidC1Ev
libopenvino.so.2420:_ZN2ov4pass22SwishFusionWithSigmoidC2Ev
libopenvino.so.2420:_ZN2ov4pass22SwishFusionWithoutBetaC1Ev
libopenvino.so.2420:_ZN2ov4pass22SwishFusionWithoutBetaC2Ev
libopenvino.so.2420:_ZN2ov4pass23AlignMixedFP32FP16Types12run_on_modelERKSt10shared_ptrINS_5ModelEE
libopenvino.so.2420:_ZN2ov4pass23ConvertBroadcastToTilesC1Ev
libopenvino.so.2420:_ZN2ov4pass23ConvertBroadcastToTilesC2Ev
libopenvino.so.2420:_ZN2ov4pass23ConvertGather1ToGather7C1Ev
libopenvino.so.2420:_ZN2ov4pass23ConvertGather1ToGather7C2Ev
libopenvino.so.2420:_ZN2ov4pass23ConvertGather7ToGather1C1Ev
libopenvino.so.2420:_ZN2ov4pass23ConvertGather7ToGather1C2Ev
libopenvino.so.2420:_ZN2ov4pass23ConvertGather7ToGather8C1Ev
libopenvino.so.2420:_ZN2ov4pass23ConvertGather7ToGather8C2Ev
libopenvino.so.2420:_ZN2ov4pass23ConvertGather8ToGather7C1Ev
libopenvino.so.2420:_ZN2ov4pass23ConvertGather8ToGather7C2Ev
libopenvino.so.2420:_ZN2ov4pass23ConvertShuffleChannels3C1Ev
libopenvino.so.2420:_ZN2ov4pass23ConvertShuffleChannels3C2Ev
libopenvino.so.2420:_ZN2ov4pass23DeReshapeFullyConnectedC1Ev
libopenvino.so.2420:_ZN2ov4pass23DeReshapeFullyConnectedC2Ev
libopenvino.so.2420:_ZN2ov4pass23EliminateConvertNonZeroC1Ev
libopenvino.so.2420:_ZN2ov4pass23EliminateConvertNonZeroC2Ev
libopenvino.so.2420:_ZN2ov4pass23FoldSubgraphEmptyInputsC1Ev
libopenvino.so.2420:_ZN2ov4pass23FoldSubgraphEmptyInputsC2Ev
libopenvino.so.2420:_ZN2ov4pass23FuseReverseLSTMSequenceC1Ev
libopenvino.so.2420:_ZN2ov4pass23FuseReverseLSTMSequenceC2Ev
libopenvino.so.2420:_ZN2ov4pass23HSwishFusionWithReluDivC1Ev
libopenvino.so.2420:_ZN2ov4pass23HSwishFusionWithReluDivC2Ev
libopenvino.so.2420:_ZN2ov4pass23HSwishFusionWithReluMulC1Ev
libopenvino.so.2420:_ZN2ov4pass23HSwishFusionWithReluMulC2Ev
libopenvino.so.2420:_ZN2ov4pass23LogSoftmaxDecompositionC1Ev
libopenvino.so.2420:_ZN2ov4pass23LogSoftmaxDecompositionC2Ev
libopenvino.so.2420:_ZN2ov4pass23NonZeroHorizontalFusionC1Ev
libopenvino.so.2420:_ZN2ov4pass23NonZeroHorizontalFusionC2Ev
libopenvino.so.2420:_ZN2ov4pass23SimplifyShapeOfSubGraph12run_on_modelERKSt10shared_ptrINS_5ModelEE
libopenvino.so.2420:_ZN2ov4pass23enable_constant_foldingERKSt10shared_ptrINS_4NodeEE
libopenvino.so.2420:_ZN2ov4pass24ConvertGP9ToGPIEInternalC1Ev
libopenvino.so.2420:_ZN2ov4pass24ConvertGP9ToGPIEInternalC2Ev
libopenvino.so.2420:_ZN2ov4pass24EliminateGatherUnsqueezeC1Ev
libopenvino.so.2420:_ZN2ov4pass24EliminateGatherUnsqueezeC2Ev
libopenvino.so.2420:_ZN2ov4pass24EliminateUnsqueezeGatherC1Ev
libopenvino.so.2420:_ZN2ov4pass24EliminateUnsqueezeGatherC2Ev
libopenvino.so.2420:_ZN2ov4pass24FuseFilteringBoxesBySizeC1Ev
libopenvino.so.2420:_ZN2ov4pass24FuseFilteringBoxesBySizeC2Ev
libopenvino.so.2420:_ZN2ov4pass24GroupedGatherEliminationC1Ev
libopenvino.so.2420:_ZN2ov4pass24GroupedGatherEliminationC2Ev
libopenvino.so.2420:_ZN2ov4pass24HSwishFusionWithHSigmoidC1Ev
libopenvino.so.2420:_ZN2ov4pass24HSwishFusionWithHSigmoidC2Ev
libopenvino.so.2420:_ZN2ov4pass24HardSigmoidDecompositionC1Ev
libopenvino.so.2420:_ZN2ov4pass24HardSigmoidDecompositionC2Ev
libopenvino.so.2420:_ZN2ov4pass24MOCLegacyTransformations12run_on_modelERKSt10shared_ptrINS_5ModelEE
libopenvino.so.2420:_ZN2ov4pass24NormalizeL2DecompositionC1Ev
libopenvino.so.2420:_ZN2ov4pass24NormalizeL2DecompositionC2Ev
libopenvino.so.2420:_ZN2ov4pass24PReluFusionNegReluMulAddC1Ev
libopenvino.so.2420:_ZN2ov4pass24PReluFusionNegReluMulAddC2Ev
libopenvino.so.2420:_ZN2ov4pass24PullReshapeThroughReduceC1Ev
libopenvino.so.2420:_ZN2ov4pass24PullReshapeThroughReduceC2Ev
libopenvino.so.2420:_ZN2ov4pass24PullTransposeThroughFQUpC1Ev
libopenvino.so.2420:_ZN2ov4pass24PullTransposeThroughFQUpC2Ev
libopenvino.so.2420:_ZN2ov4pass24RemoveConcatZeroDimInputC1Ev
libopenvino.so.2420:_ZN2ov4pass24RemoveConcatZeroDimInputC2Ev
libopenvino.so.2420:_ZN2ov4pass24ReverseShapeAndTypeInfer12run_on_modelERKSt10shared_ptrINS_5ModelEE
libopenvino.so.2420:_ZN2ov4pass24ReverseShapeAndTypeInfer19inherit_output_rankERKSt10shared_ptrINS_4NodeEERKSt6vectorImSaImEE
libopenvino.so.2420:_ZN2ov4pass24ReverseShapeAndTypeInfer19inherit_output_typeERKSt10shared_ptrINS_4NodeEERKSt6vectorImSaImEE
libopenvino.so.2420:_ZN2ov4pass24ReverseShapeAndTypeInfer20inherit_output_shapeERKSt10shared_ptrINS_4NodeEERKSt6vectorImSaImEE
libopenvino.so.2420:_ZN2ov4pass24SplitSqueezeConcatFusionC1Eb
libopenvino.so.2420:_ZN2ov4pass24SplitSqueezeConcatFusionC2Eb
libopenvino.so.2420:_ZN2ov4pass24StridedSliceOptimization12run_on_modelERKSt10shared_ptrINS_5ModelEE
libopenvino.so.2420:_ZN2ov4pass24StridedSliceOptimizationC1Eb
libopenvino.so.2420:_ZN2ov4pass24StridedSliceOptimizationC2Eb
libopenvino.so.2420:_ZN2ov4pass24disable_constant_foldingERKSt10shared_ptrINS_4NodeEE
libopenvino.so.2420:_ZN2ov4pass25ConvertDeformableConv8To1C1Ev
libopenvino.so.2420:_ZN2ov4pass25ConvertDeformableConv8To1C2Ev
libopenvino.so.2420:_ZN2ov4pass25ConvertDivideWithConstantC1Ev
libopenvino.so.2420:_ZN2ov4pass25ConvertDivideWithConstantC2Ev
libopenvino.so.2420:_ZN2ov4pass25ConvertLoopToLSTMSequenceC1Ev
libopenvino.so.2420:_ZN2ov4pass25ConvertLoopToLSTMSequenceC2Ev
libopenvino.so.2420:_ZN2ov4pass25ConvertMaxPool1ToMaxPool8C1Ev
libopenvino.so.2420:_ZN2ov4pass25ConvertMaxPool1ToMaxPool8C2Ev
libopenvino.so.2420:_ZN2ov4pass25ConvertMaxPool8ToMaxPool1C1Ev
libopenvino.so.2420:_ZN2ov4pass25ConvertMaxPool8ToMaxPool1C2Ev
libopenvino.so.2420:_ZN2ov4pass25ConvertNMSToNMSIEInternalC1Ev
libopenvino.so.2420:_ZN2ov4pass25ConvertNMSToNMSIEInternalC2Ev
libopenvino.so.2420:_ZN2ov4pass25ConvertQuantizeDequantizeC1Ev
libopenvino.so.2420:_ZN2ov4pass25ConvertQuantizeDequantizeC2Ev
libopenvino.so.2420:_ZN2ov4pass25ConvertReduceMaxToPoolingC1Ev
libopenvino.so.2420:_ZN2ov4pass25ConvertReduceMaxToPoolingC2Ev
libopenvino.so.2420:_ZN2ov4pass25ConvertReduceMaxToReshapeC1Ev
libopenvino.so.2420:_ZN2ov4pass25ConvertReduceMaxToReshapeC2Ev
libopenvino.so.2420:_ZN2ov4pass25ConvertReduceMinToReshapeC1Ev
libopenvino.so.2420:_ZN2ov4pass25ConvertReduceMinToReshapeC2Ev
libopenvino.so.2420:_ZN2ov4pass25ConvertReduceSumToPoolingC1Ev
libopenvino.so.2420:_ZN2ov4pass25ConvertReduceSumToPoolingC2Ev
libopenvino.so.2420:_ZN2ov4pass25ConvertReduceSumToReshapeC1Ev
libopenvino.so.2420:_ZN2ov4pass25ConvertReduceSumToReshapeC2Ev
libopenvino.so.2420:_ZN2ov4pass25ConvertSoftMax1ToSoftMax8C1Ev
libopenvino.so.2420:_ZN2ov4pass25ConvertSoftMax1ToSoftMax8C2Ev
libopenvino.so.2420:_ZN2ov4pass25ConvertSoftMax8ToSoftMax1C1Ev
libopenvino.so.2420:_ZN2ov4pass25ConvertSoftMax8ToSoftMax1C2Ev
libopenvino.so.2420:_ZN2ov4pass25ConvolutionMultiplyFusionC1Ev
libopenvino.so.2420:_ZN2ov4pass25ConvolutionMultiplyFusionC2Ev
libopenvino.so.2420:_ZN2ov4pass25FakeQuantizeDecompositionC1Ev
libopenvino.so.2420:_ZN2ov4pass25FakeQuantizeDecompositionC2Ev
libopenvino.so.2420:_ZN2ov4pass25FakeQuantizeReshapeFusionC1Ev
libopenvino.so.2420:_ZN2ov4pass25FakeQuantizeReshapeFusionC2Ev
libopenvino.so.2420:_ZN2ov4pass25FlushFP32SubnormalsToZeroC1Ev
libopenvino.so.2420:_ZN2ov4pass25FlushFP32SubnormalsToZeroC2Ev
libopenvino.so.2420:_ZN2ov4pass25GeluFusionWithTanhNoPowerC1Ev
libopenvino.so.2420:_ZN2ov4pass25GeluFusionWithTanhNoPowerC2Ev
libopenvino.so.2420:_ZN2ov4pass25HSigmoidFusionWithReluDivC1Ev
libopenvino.so.2420:_ZN2ov4pass25HSigmoidFusionWithReluDivC2Ev
libopenvino.so.2420:_ZN2ov4pass25HSigmoidFusionWithReluMulC1Ev
libopenvino.so.2420:_ZN2ov4pass25HSigmoidFusionWithReluMulC2Ev
libopenvino.so.2420:_ZN2ov4pass25HSigmoidFusionWithoutReluC1Ev
libopenvino.so.2420:_ZN2ov4pass25HSigmoidFusionWithoutReluC2Ev
libopenvino.so.2420:_ZN2ov4pass25InterpolateSequenceFusionC1Ev
libopenvino.so.2420:_ZN2ov4pass25InterpolateSequenceFusionC2Ev
libopenvino.so.2420:_ZN2ov4pass25KeepConstAndDecompressionC1Ev
libopenvino.so.2420:_ZN2ov4pass25KeepConstAndDecompressionC2Ev
libopenvino.so.2420:_ZN2ov4pass25MVNFusionWithoutConstantsC1Ev
libopenvino.so.2420:_ZN2ov4pass25MVNFusionWithoutConstantsC2Ev
libopenvino.so.2420:_ZN2ov4pass25MultiplyConvolutionFusionC1Ev
libopenvino.so.2420:_ZN2ov4pass25MultiplyConvolutionFusionC2Ev
libopenvino.so.2420:_ZN2ov4pass25PadFusionGroupConvolutionC1Ev
libopenvino.so.2420:_ZN2ov4pass25PadFusionGroupConvolutionC2Ev
libopenvino.so.2420:_ZN2ov4pass25PullSqueezeThroughEltwiseC1Ev
libopenvino.so.2420:_ZN2ov4pass25PullSqueezeThroughEltwiseC2Ev
libopenvino.so.2420:_ZN2ov4pass26BroadcastElementwiseFusionC1Ev
libopenvino.so.2420:_ZN2ov4pass26BroadcastElementwiseFusionC2Ev
libopenvino.so.2420:_ZN2ov4pass26ChainedMaximumOptimizationC1Ev
libopenvino.so.2420:_ZN2ov4pass26ChainedMaximumOptimizationC2Ev
libopenvino.so.2420:_ZN2ov4pass26CompressFloatConstantsImplC1Eb
libopenvino.so.2420:_ZN2ov4pass26CompressFloatConstantsImplC2Eb
libopenvino.so.2420:_ZN2ov4pass26ConvertAvgPool14ToAvgPool1C1Ev
libopenvino.so.2420:_ZN2ov4pass26ConvertAvgPool14ToAvgPool1C2Ev
libopenvino.so.2420:_ZN2ov4pass26ConvertConvertPromoteTypesC1Ev
libopenvino.so.2420:_ZN2ov4pass26ConvertConvertPromoteTypesC2Ev
libopenvino.so.2420:_ZN2ov4pass26ConvertMaxPool14ToMaxPool8C1Ev
libopenvino.so.2420:_ZN2ov4pass26ConvertMaxPool14ToMaxPool8C2Ev
libopenvino.so.2420:_ZN2ov4pass26ConvertNMS9ToNMSIEInternalC1Ev
libopenvino.so.2420:_ZN2ov4pass26ConvertNMS9ToNMSIEInternalC2Ev
libopenvino.so.2420:_ZN2ov4pass26ConvertReduceMeanToPoolingC1Ev
libopenvino.so.2420:_ZN2ov4pass26ConvertReduceMeanToPoolingC2Ev
libopenvino.so.2420:_ZN2ov4pass26ConvertReduceMeanToReshapeC1Ev
libopenvino.so.2420:_ZN2ov4pass26ConvertReduceMeanToReshapeC2Ev
libopenvino.so.2420:_ZN2ov4pass26ConvertReduceProdToReshapeC1Ev
libopenvino.so.2420:_ZN2ov4pass26ConvertReduceProdToReshapeC2Ev
libopenvino.so.2420:_ZN2ov4pass26EliminateDuplicateTIInputsC1Ev
libopenvino.so.2420:_ZN2ov4pass26EliminateDuplicateTIInputsC2Ev
libopenvino.so.2420:_ZN2ov4pass26HSigmoidFusionWithClampDivC1Ev
libopenvino.so.2420:_ZN2ov4pass26HSigmoidFusionWithClampDivC2Ev
libopenvino.so.2420:_ZN2ov4pass26HSigmoidFusionWithClampMulC1Ev
libopenvino.so.2420:_ZN2ov4pass26HSigmoidFusionWithClampMulC2Ev
libopenvino.so.2420:_ZN2ov4pass26MarkDequantizationSubgraphC1ERKSt6vectorINS_7element4TypeESaIS4_EEb
libopenvino.so.2420:_ZN2ov4pass26MarkDequantizationSubgraphC2ERKSt6vectorINS_7element4TypeESaIS4_EEb
libopenvino.so.2420:_ZN2ov4pass26PReluFusionAbsSubMulMulAddC1Ev
libopenvino.so.2420:_ZN2ov4pass26PReluFusionAbsSubMulMulAddC2Ev
libopenvino.so.2420:_ZN2ov4pass26PullUnsqueezeThroughReduceC1Ev
libopenvino.so.2420:_ZN2ov4pass26PullUnsqueezeThroughReduceC2Ev
libopenvino.so.2420:_ZN2ov4pass26RemoveFilteringBoxesBySizeC1Ev
libopenvino.so.2420:_ZN2ov4pass26RemoveFilteringBoxesBySizeC2Ev
libopenvino.so.2420:_ZN2ov4pass26ReverseInputChannelsFusion12run_on_modelERKSt10shared_ptrINS_5ModelEE
libopenvino.so.2420:_ZN2ov4pass27ConvertBitwiseOrToLogicalOrC1Ev
libopenvino.so.2420:_ZN2ov4pass27ConvertBitwiseOrToLogicalOrC2Ev
libopenvino.so.2420:_ZN2ov4pass27ConvertSubtractWithConstantC1Ev
libopenvino.so.2420:_ZN2ov4pass27ConvertSubtractWithConstantC2Ev
libopenvino.so.2420:_ZN2ov4pass27DilatedConvolutionConverterC1Ev
libopenvino.so.2420:_ZN2ov4pass27DilatedConvolutionConverterC2Ev
libopenvino.so.2420:_ZN2ov4pass27LabelResolvingThroughSelectC1Ev
libopenvino.so.2420:_ZN2ov4pass27LabelResolvingThroughSelectC2Ev
libopenvino.so.2420:_ZN2ov4pass27MarkDividesInShapeSubgraphsC1Ev
libopenvino.so.2420:_ZN2ov4pass27MarkDividesInShapeSubgraphsC2Ev
libopenvino.so.2420:_ZN2ov4pass27MoveEltwiseUpThroughDataMov23get_default_allowed_opsEv
libopenvino.so.2420:_ZN2ov4pass27MoveEltwiseUpThroughDataMovC1ESt6vectorINS_16DiscreteTypeInfoESaIS3_EE
libopenvino.so.2420:_ZN2ov4pass27MoveEltwiseUpThroughDataMovC2ESt6vectorINS_16DiscreteTypeInfoESaIS3_EE
libopenvino.so.2420:_ZN2ov4pass27OptimizeSymbolsUsedAsValues12run_on_modelERKSt10shared_ptrINS_5ModelEE
libopenvino.so.2420:_ZN2ov4pass27SelectWithOneValueConditionC1Ev
libopenvino.so.2420:_ZN2ov4pass27SelectWithOneValueConditionC2Ev
libopenvino.so.2420:_ZN2ov4pass28ConvertPadToGroupConvolutionC1Ev
libopenvino.so.2420:_ZN2ov4pass28ConvertPadToGroupConvolutionC2Ev
libopenvino.so.2420:_ZN2ov4pass28EnableShapeOfConstantFoldingC1Eb
libopenvino.so.2420:_ZN2ov4pass28EnableShapeOfConstantFoldingC2Eb
libopenvino.so.2420:_ZN2ov4pass28GroupedStridedSliceOptimizer12run_on_modelERKSt10shared_ptrINS_5ModelEE
libopenvino.so.2420:_ZN2ov4pass28MVNFusionWithConstantsInsideC1Ev
libopenvino.so.2420:_ZN2ov4pass28MVNFusionWithConstantsInsideC2Ev
libopenvino.so.2420:_ZN2ov4pass28MarkCompressedFloatConstantsC1Ev
libopenvino.so.2420:_ZN2ov4pass28MarkCompressedFloatConstantsC2Ev
libopenvino.so.2420:_ZN2ov4pass28NopSliceBeforeGatherElementsC1Ev
libopenvino.so.2420:_ZN2ov4pass28NopSliceBeforeGatherElementsC2Ev
libopenvino.so.2420:_ZN2ov4pass28SimplifySecondInputOfReshapeC1Ev
libopenvino.so.2420:_ZN2ov4pass28SimplifySecondInputOfReshapeC2Ev
libopenvino.so.2420:_ZN2ov4pass28constant_folding_is_disabledEPKNS_4NodeE
libopenvino.so.2420:_ZN2ov4pass28constant_folding_is_disabledERKSt10shared_ptrINS_4NodeEE
libopenvino.so.2420:_ZN2ov4pass29ConvertBitwiseAndToLogicalAndC1Ev
libopenvino.so.2420:_ZN2ov4pass29ConvertBitwiseAndToLogicalAndC2Ev
libopenvino.so.2420:_ZN2ov4pass29ConvertBitwiseNotToLogicalNotC1Ev
libopenvino.so.2420:_ZN2ov4pass29ConvertBitwiseNotToLogicalNotC2Ev
libopenvino.so.2420:_ZN2ov4pass29ConvertBitwiseXorToLogicalXorC1Ev
libopenvino.so.2420:_ZN2ov4pass29ConvertBitwiseXorToLogicalXorC2Ev
libopenvino.so.2420:_ZN2ov4pass29ConvertCompressedOnlyToLegacy12run_on_modelERKSt10shared_ptrINS_5ModelEE
libopenvino.so.2420:_ZN2ov4pass29ConvertMatrixNmsToMatrixNmsIEC1Eb
libopenvino.so.2420:_ZN2ov4pass29ConvertMatrixNmsToMatrixNmsIEC2Eb
libopenvino.so.2420:_ZN2ov4pass29DisableShapeOfConstantFoldingC1Eb
libopenvino.so.2420:_ZN2ov4pass29DisableShapeOfConstantFoldingC2Eb
libopenvino.so.2420:_ZN2ov4pass29ReplaceConcatReduceByMinOrMaxC1Ev
libopenvino.so.2420:_ZN2ov4pass29ReplaceConcatReduceByMinOrMaxC2Ev
libopenvino.so.2420:_ZN2ov4pass29WrapInterpolateIntoTransposesC1Ev
libopenvino.so.2420:_ZN2ov4pass29WrapInterpolateIntoTransposesC2Ev
libopenvino.so.2420:_ZN2ov4pass30BroadcastConstRangeReplacementC1Ev
libopenvino.so.2420:_ZN2ov4pass30BroadcastConstRangeReplacementC2Ev
libopenvino.so.2420:_ZN2ov4pass30ConvertNmsGatherPathToUnsignedC1Ev
libopenvino.so.2420:_ZN2ov4pass30ConvertNmsGatherPathToUnsignedC2Ev
libopenvino.so.2420:_ZN2ov4pass30GroupConvolutionMultiplyFusionC1Ev
libopenvino.so.2420:_ZN2ov4pass30GroupConvolutionMultiplyFusionC2Ev
libopenvino.so.2420:_ZN2ov4pass30MultiplyGroupConvolutionFusionC1Ev
libopenvino.so.2420:_ZN2ov4pass30MultiplyGroupConvolutionFusionC2Ev
libopenvino.so.2420:_ZN2ov4pass30SimplifyCTCGreedyDecoderSeqLenC1Ev
libopenvino.so.2420:_ZN2ov4pass30SimplifyCTCGreedyDecoderSeqLenC2Ev
libopenvino.so.2420:_ZN2ov4pass30SwishFusionWithSigmoidWithBetaC1Ev
libopenvino.so.2420:_ZN2ov4pass30SwishFusionWithSigmoidWithBetaC2Ev
libopenvino.so.2420:_ZN2ov4pass31ConvertGatherToGatherCompressedC1Ev
libopenvino.so.2420:_ZN2ov4pass31ConvertGatherToGatherCompressedC2Ev
libopenvino.so.2420:_ZN2ov4pass31ConvertReduceLogicalOrToReshapeC1Ev
libopenvino.so.2420:_ZN2ov4pass31ConvertReduceLogicalOrToReshapeC2Ev
libopenvino.so.2420:_ZN2ov4pass31ConvertScatterElementsToScatterC1Ev
libopenvino.so.2420:_ZN2ov4pass31ConvertScatterElementsToScatterC2Ev
libopenvino.so.2420:_ZN2ov4pass31ConvertSequenceToTensorIteratorC1Ev
libopenvino.so.2420:_ZN2ov4pass31ConvertSequenceToTensorIteratorC2Ev
libopenvino.so.2420:_ZN2ov4pass31ConvertTensorIteratorToSequenceC1Ev
libopenvino.so.2420:_ZN2ov4pass31ConvertTensorIteratorToSequenceC2Ev
libopenvino.so.2420:_ZN2ov4pass31GroupNormalizationDecompositionC1Ev
libopenvino.so.2420:_ZN2ov4pass31GroupNormalizationDecompositionC2Ev
libopenvino.so.2420:_ZN2ov4pass31MarkPrecisionSensitiveConstantsC1Ev
libopenvino.so.2420:_ZN2ov4pass31MarkPrecisionSensitiveConstantsC2Ev
libopenvino.so.2420:_ZN2ov4pass31MatMulConstTransposesExtractionC1Ev
libopenvino.so.2420:_ZN2ov4pass31MatMulConstTransposesExtractionC2Ev
libopenvino.so.2420:_ZN2ov4pass31NearestNeighborUpsamplingFusionC1Ev
libopenvino.so.2420:_ZN2ov4pass31NearestNeighborUpsamplingFusionC2Ev
libopenvino.so.2420:_ZN2ov4pass31WeightsDequantizeToFakeQuantizeC1Ev
libopenvino.so.2420:_ZN2ov4pass31WeightsDequantizeToFakeQuantizeC2Ev
libopenvino.so.2420:_ZN2ov4pass32ConvertNMSRotatedToNMSIEInternalC1Ev
libopenvino.so.2420:_ZN2ov4pass32ConvertNMSRotatedToNMSIEInternalC2Ev
libopenvino.so.2420:_ZN2ov4pass32ConvertReduceLogicalAndToReshapeC1Ev
libopenvino.so.2420:_ZN2ov4pass32ConvertReduceLogicalAndToReshapeC2Ev
libopenvino.so.2420:_ZN2ov4pass32DropoutWithRandomUniformReplacerC1Ev
libopenvino.so.2420:_ZN2ov4pass32DropoutWithRandomUniformReplacerC2Ev
libopenvino.so.2420:_ZN2ov4pass32GroupedSliceToVSplitOptimization12run_on_modelERKSt10shared_ptrINS_5ModelEE
libopenvino.so.2420:_ZN2ov4pass32PadFusionConvolutionBackpropDataC1Ev
libopenvino.so.2420:_ZN2ov4pass32PadFusionConvolutionBackpropDataC2Ev
libopenvino.so.2420:_ZN2ov4pass32SupportedNodesStridesPropagationC1Ev
libopenvino.so.2420:_ZN2ov4pass32SupportedNodesStridesPropagationC2Ev
libopenvino.so.2420:_ZN2ov4pass33ConvertInterpolate1ToInterpolate4C1Ev
libopenvino.so.2420:_ZN2ov4pass33ConvertInterpolate1ToInterpolate4C2Ev
libopenvino.so.2420:_ZN2ov4pass33ConvertU4WeightsZeroPointToScalarC1Ev
libopenvino.so.2420:_ZN2ov4pass33ConvertU4WeightsZeroPointToScalarC2Ev
libopenvino.so.2420:_ZN2ov4pass33enable_fold_subgraph_empty_inputsERKSt10shared_ptrINS_4NodeEE
libopenvino.so.2420:_ZN2ov4pass34ConvertGRUSequenceToTensorIteratorC1Ev
libopenvino.so.2420:_ZN2ov4pass34ConvertGRUSequenceToTensorIteratorC2Ev
libopenvino.so.2420:_ZN2ov4pass34ConvertInterpolate11ToInterpolate4C1Ev
libopenvino.so.2420:_ZN2ov4pass34ConvertInterpolate11ToInterpolate4C2Ev
libopenvino.so.2420:_ZN2ov4pass34ConvertRNNSequenceToTensorIteratorC1Ev
libopenvino.so.2420:_ZN2ov4pass34ConvertRNNSequenceToTensorIteratorC2Ev
libopenvino.so.2420:_ZN2ov4pass34ConvertTensorIteratorToGRUSequenceC1Ev
libopenvino.so.2420:_ZN2ov4pass34ConvertTensorIteratorToGRUSequenceC2Ev
libopenvino.so.2420:_ZN2ov4pass34ConvertTensorIteratorToRNNSequenceC1Ev
libopenvino.so.2420:_ZN2ov4pass34ConvertTensorIteratorToRNNSequenceC2Ev
libopenvino.so.2420:_ZN2ov4pass34MarkSugraphsToKeepInMixedPrecision12run_on_modelERKSt10shared_ptrINS_5ModelEE
libopenvino.so.2420:_ZN2ov4pass34SplitConcatPairToInterpolateFusionC1Eb
libopenvino.so.2420:_ZN2ov4pass34SplitConcatPairToInterpolateFusionC2Eb
libopenvino.so.2420:_ZN2ov4pass34UnsupportedNodesStridesPropagationC1Ev
libopenvino.so.2420:_ZN2ov4pass34UnsupportedNodesStridesPropagationC2Ev
libopenvino.so.2420:_ZN2ov4pass34disable_fold_subgraph_empty_inputsERKSt10shared_ptrINS_4NodeEE
libopenvino.so.2420:_ZN2ov4pass34enable_remove_concat_zerodim_inputERKSt10shared_ptrINS_4NodeEE
libopenvino.so.2420:_ZN2ov4pass35ConvertLSTMSequenceToTensorIteratorC1Ev
libopenvino.so.2420:_ZN2ov4pass35ConvertLSTMSequenceToTensorIteratorC2Ev
libopenvino.so.2420:_ZN2ov4pass35ConvertTensorIteratorToLSTMSequenceC1Ev
libopenvino.so.2420:_ZN2ov4pass35ConvertTensorIteratorToLSTMSequenceC2Ev
libopenvino.so.2420:_ZN2ov4pass35ConvolutionToGroupConvolutionFusionC1Ev
libopenvino.so.2420:_ZN2ov4pass35ConvolutionToGroupConvolutionFusionC2Ev
libopenvino.so.2420:_ZN2ov4pass35DisableRandomUniformConstantFoldingC1Ev
libopenvino.so.2420:_ZN2ov4pass35DisableRandomUniformConstantFoldingC2Ev
libopenvino.so.2420:_ZN2ov4pass35SkipGatherBeforeTransposeAndReshapeC1Ev
libopenvino.so.2420:_ZN2ov4pass35SkipGatherBeforeTransposeAndReshapeC2Ev
libopenvino.so.2420:_ZN2ov4pass35disable_remove_concat_zerodim_inputERKSt10shared_ptrINS_4NodeEE
libopenvino.so.2420:_ZN2ov4pass36KeepConstantsPrecisionAndAddConvertsC1Ev
libopenvino.so.2420:_ZN2ov4pass36KeepConstantsPrecisionAndAddConvertsC2Ev
libopenvino.so.2420:_ZN2ov4pass36TransposeReshapeEliminationForMatmulC1Ev
libopenvino.so.2420:_ZN2ov4pass36TransposeReshapeEliminationForMatmulC2Ev
libopenvino.so.2420:_ZN2ov4pass37BidirectionalGRUSequenceDecompositionC1Ev
libopenvino.so.2420:_ZN2ov4pass37BidirectionalGRUSequenceDecompositionC2Ev
libopenvino.so.2420:_ZN2ov4pass37BidirectionalRNNSequenceDecompositionC1Ev
libopenvino.so.2420:_ZN2ov4pass37BidirectionalRNNSequenceDecompositionC2Ev
libopenvino.so.2420:_ZN2ov4pass37ConvertMulticlassNms8ToMulticlassNms9C1Ev
libopenvino.so.2420:_ZN2ov4pass37ConvertMulticlassNms8ToMulticlassNms9C2Ev
libopenvino.so.2420:_ZN2ov4pass37ConvertMulticlassNmsToMulticlassNmsIEC1Eb
libopenvino.so.2420:_ZN2ov4pass37ConvertMulticlassNmsToMulticlassNmsIEC2Eb
libopenvino.so.2420:_ZN2ov4pass37ConvolutionBackpropDataMultiplyFusionC1Ev
libopenvino.so.2420:_ZN2ov4pass37ConvolutionBackpropDataMultiplyFusionC2Ev
libopenvino.so.2420:_ZN2ov4pass37MultiplyConvolutionBackpropDataFusionC1Ev
libopenvino.so.2420:_ZN2ov4pass37MultiplyConvolutionBackpropDataFusionC2Ev
libopenvino.so.2420:_ZN2ov4pass37PadFusionGroupConvolutionBackpropDataC1Ev
libopenvino.so.2420:_ZN2ov4pass37PadFusionGroupConvolutionBackpropDataC2Ev
libopenvino.so.2420:_ZN2ov4pass37PrepareShapeOpsForEliminationAroundBEC1Ev
libopenvino.so.2420:_ZN2ov4pass37PrepareShapeOpsForEliminationAroundBEC2Ev
libopenvino.so.2420:_ZN2ov4pass38BidirectionalLSTMSequenceDecompositionC1Ev
libopenvino.so.2420:_ZN2ov4pass38BidirectionalLSTMSequenceDecompositionC2Ev
libopenvino.so.2420:_ZN2ov4pass38MarkPrecisionSensitiveShapeOfSubgraphs12run_on_modelERKSt10shared_ptrINS_5ModelEE
libopenvino.so.2420:_ZN2ov4pass38MarkPrecisionSensitiveShapeOfSubgraphsC1Ev
libopenvino.so.2420:_ZN2ov4pass38MarkPrecisionSensitiveShapeOfSubgraphsC2Ev
libopenvino.so.2420:_ZN2ov4pass38ScaledDotProductAttentionDecomposition9decomposeESt10shared_ptrINS_2op3v1325ScaledDotProductAttentionEE
libopenvino.so.2420:_ZN2ov4pass38ScaledDotProductAttentionDecompositionC1Ev
libopenvino.so.2420:_ZN2ov4pass38ScaledDotProductAttentionDecompositionC2Ev
libopenvino.so.2420:_ZN2ov4pass38fold_subgraph_empty_inputs_is_disabledERKSt10shared_ptrINS_4NodeEE
libopenvino.so.2420:_ZN2ov4pass39remove_concat_zerodim_input_is_disabledERKSt10shared_ptrINS_4NodeEE
libopenvino.so.2420:_ZN2ov4pass41ConvertDetectionOutput1ToDetectionOutput8C1Ev
libopenvino.so.2420:_ZN2ov4pass41ConvertDetectionOutput1ToDetectionOutput8C2Ev
libopenvino.so.2420:_ZN2ov4pass41ConvertDetectionOutput8ToDetectionOutput1C1Ev
libopenvino.so.2420:_ZN2ov4pass41ConvertDetectionOutput8ToDetectionOutput1C2Ev
libopenvino.so.2420:_ZN2ov4pass41EnableDecompressionConvertConstantFoldingC1Ev
libopenvino.so.2420:_ZN2ov4pass41EnableDecompressionConvertConstantFoldingC2Ev
libopenvino.so.2420:_ZN2ov4pass42DisableDecompressionConvertConstantFoldingC1Ev
libopenvino.so.2420:_ZN2ov4pass42DisableDecompressionConvertConstantFoldingC2Ev
libopenvino.so.2420:_ZN2ov4pass42GroupConvolutionBackpropDataMultiplyFusionC1Ev
libopenvino.so.2420:_ZN2ov4pass42GroupConvolutionBackpropDataMultiplyFusionC2Ev
libopenvino.so.2420:_ZN2ov4pass42MultiplyGroupConvolutionBackpropDataFusionC1Ev
libopenvino.so.2420:_ZN2ov4pass42MultiplyGroupConvolutionBackpropDataFusionC2Ev
libopenvino.so.2420:_ZN2ov4pass42RemoveMultiSubGraphOpDanglingParamsResults12run_on_modelERKSt10shared_ptrINS_5ModelEE
libopenvino.so.2420:_ZN2ov4pass44FuseLSTMSequencesToBidirectionalLSTMSequenceC1Ev
libopenvino.so.2420:_ZN2ov4pass44FuseLSTMSequencesToBidirectionalLSTMSequenceC2Ev
libopenvino.so.2420:_ZN2ov4pass4Hash12run_on_modelERKSt10shared_ptrINS_5ModelEE
libopenvino.so.2420:_ZN2ov4pass4HashC1ERm
libopenvino.so.2420:_ZN2ov4pass4HashC2ERm
libopenvino.so.2420:_ZN2ov4pass51ConvertEmbeddingBagPacked15ToEmbeddingBagPackedSum3C1Ev
libopenvino.so.2420:_ZN2ov4pass51ConvertEmbeddingBagPacked15ToEmbeddingBagPackedSum3C2Ev
libopenvino.so.2420:_ZN2ov4pass53ConvertEmbeddingBagOffsets15ToEmbeddingBagOffsetsSum3C1Ev
libopenvino.so.2420:_ZN2ov4pass53ConvertEmbeddingBagOffsets15ToEmbeddingBagOffsetsSum3C2Ev
libopenvino.so.2420:_ZN2ov4pass54ConvertScatterElementsUpdate12ToScatterElementsUpdate3C1Ev
libopenvino.so.2420:_ZN2ov4pass54ConvertScatterElementsUpdate12ToScatterElementsUpdate3C2Ev
libopenvino.so.2420:_ZN2ov4pass7Manager10run_passesESt10shared_ptrINS_5ModelEE
libopenvino.so.2420:_ZN2ov4pass7Manager23set_per_pass_validationEb
libopenvino.so.2420:_ZN2ov4pass7ManagerC1ESt10shared_ptrINS0_10PassConfigEE
libopenvino.so.2420:_ZN2ov4pass7ManagerC1Ev
libopenvino.so.2420:_ZN2ov4pass7ManagerC2ESt10shared_ptrINS0_10PassConfigEE
libopenvino.so.2420:_ZN2ov4pass7ManagerC2Ev
libopenvino.so.2420:_ZN2ov4pass7ManagerD0Ev
libopenvino.so.2420:_ZN2ov4pass7ManagerD1Ev
libopenvino.so.2420:_ZN2ov4pass7ManagerD2Ev
libopenvino.so.2420:_ZN2ov4pass7pattern11rank_equalsERKNS_9DimensionE
libopenvino.so.2420:_ZN2ov4pass7pattern12MatcherState6finishEb
libopenvino.so.2420:_ZN2ov4pass7pattern12MatcherStateC1EPNS1_7MatcherE
libopenvino.so.2420:_ZN2ov4pass7pattern12MatcherStateC2EPNS1_7MatcherE
libopenvino.so.2420:_ZN2ov4pass7pattern12MatcherStateD1Ev
libopenvino.so.2420:_ZN2ov4pass7pattern12MatcherStateD2Ev
libopenvino.so.2420:_ZN2ov4pass7pattern12type_matchesERKNS_7element4TypeE
libopenvino.so.2420:_ZN2ov4pass7pattern14has_static_dimEm
libopenvino.so.2420:_ZN2ov4pass7pattern15consumers_countEm
libopenvino.so.2420:_ZN2ov4pass7pattern15has_static_dimsERKSt6vectorImSaImEE
libopenvino.so.2420:_ZN2ov4pass7pattern15has_static_rankEv
libopenvino.so.2420:_ZN2ov4pass7pattern16has_static_shapeEv
libopenvino.so.2420:_ZN2ov4pass7pattern16type_matches_anyERKSt6vectorINS_7element4TypeESaIS4_EE
libopenvino.so.2420:_ZN2ov4pass7pattern19consumers_more_thanEm
libopenvino.so.2420:_ZN2ov4pass7pattern2op18as_value_predicateESt8functionIFbSt10shared_ptrINS_4NodeEEEE
libopenvino.so.2420:_ZN2ov4pass7pattern2op2Or11match_valueEPNS1_7MatcherERKNS_6OutputINS_4NodeEEESA_
libopenvino.so.2420:_ZN2ov4pass7pattern2op3Any11match_valueEPNS1_7MatcherERKNS_6OutputINS_4NodeEEESA_
libopenvino.so.2420:_ZN2ov4pass7pattern2op4Skip11match_valueEPNS1_7MatcherERKNS_6OutputINS_4NodeEEESA_
libopenvino.so.2420:_ZN2ov4pass7pattern2op4True11match_valueEPNS1_7MatcherERKNS_6OutputINS_4NodeEEESA_
libopenvino.so.2420:_ZN2ov4pass7pattern2op5AnyOf11match_valueEPNS1_7MatcherERKNS_6OutputINS_4NodeEEESA_
libopenvino.so.2420:_ZN2ov4pass7pattern2op5Label11match_valueEPNS1_7MatcherERKNS_6OutputINS_4NodeEEESA_
libopenvino.so.2420:_ZN2ov4pass7pattern2op5Label11wrap_valuesERKSt6vectorINS_6OutputINS_4NodeEEESaIS7_EE
libopenvino.so.2420:_ZN2ov4pass7pattern2op6Branch11match_valueEPNS1_7MatcherERKNS_6OutputINS_4NodeEEESA_
libopenvino.so.2420:_ZN2ov4pass7pattern2op7Capture11match_valueEPNS1_7MatcherERKNS_6OutputINS_4NodeEEESA_
libopenvino.so.2420:_ZN2ov4pass7pattern2op8Optional11match_valueEPNS1_7MatcherERKNS_6OutputINS_4NodeEEESA_
libopenvino.so.2420:_ZN2ov4pass7pattern2op8WrapType11match_valueEPNS1_7MatcherERKNS_6OutputINS_4NodeEEESA_
libopenvino.so.2420:_ZN2ov4pass7pattern2op9AnyOutput11match_valueEPNS1_7MatcherERKNS_6OutputINS_4NodeEEESA_
libopenvino.so.2420:_ZN2ov4pass7pattern6all_ofERKSt6vectorISt8functionIFbNS_6OutputINS_4NodeEEEEESaIS8_EE
libopenvino.so.2420:_ZN2ov4pass7pattern7Matcher11clear_stateEv
libopenvino.so.2420:_ZN2ov4pass7pattern7Matcher11match_valueERKNS_6OutputINS_4NodeEEES7_
libopenvino.so.2420:_ZN2ov4pass7pattern7Matcher11start_matchEv
libopenvino.so.2420:_ZN2ov4pass7pattern7Matcher14get_match_rootEv
libopenvino.so.2420:_ZN2ov4pass7pattern7Matcher15get_match_valueEv
libopenvino.so.2420:_ZN2ov4pass7pattern7Matcher15match_argumentsEPNS_4NodeERKSt10shared_ptrIS3_E
libopenvino.so.2420:_ZN2ov4pass7pattern7Matcher17match_permutationERKSt6vectorINS_6OutputINS_4NodeEEESaIS6_EESA_
libopenvino.so.2420:_ZN2ov4pass7pattern7Matcher18is_contained_matchERKSt6vectorISt10shared_ptrINS_4NodeEESaIS6_EEb
libopenvino.so.2420:_ZN2ov4pass7pattern7Matcher5matchERKNS_6OutputINS_4NodeEEE
libopenvino.so.2420:_ZN2ov4pass7pattern7Matcher5matchERKNS_6OutputINS_4NodeEEERKSt3mapISt10shared_ptrIS4_ES5_St4lessISA_ESaISt4pairIKSA_S5_EEE
libopenvino.so.2420:_ZN2ov4pass7pattern7Matcher5matchERKNS_6OutputINS_4NodeEEERKSt3mapISt10shared_ptrIS4_ESA_St4lessISA_ESaISt4pairIKSA_SA_EEE
libopenvino.so.2420:_ZN2ov4pass7pattern7Matcher5matchESt10shared_ptrINS_4NodeEE
libopenvino.so.2420:_ZN2ov4pass7pattern7Matcher7captureERKSt3setIPNS_4NodeESt4lessIS5_ESaIS5_EE
libopenvino.so.2420:_ZN2ov4pass7pattern7Matcher8add_nodeENS_6OutputINS_4NodeEEE
libopenvino.so.2420:_ZN2ov4pass7pattern7MatcherC1ESt10shared_ptrINS_4NodeEE
libopenvino.so.2420:_ZN2ov4pass7pattern7MatcherC1ESt10shared_ptrINS_4NodeEERKNSt7__cxx1112basic_stringIcSt11char_traitsIcESaIcEEE
libopenvino.so.2420:_ZN2ov4pass7pattern7MatcherC1ESt10shared_ptrINS_4NodeEERKNSt7__cxx1112basic_stringIcSt11char_traitsIcESaIcEEEb
libopenvino.so.2420:_ZN2ov4pass7pattern7MatcherC2ESt10shared_ptrINS_4NodeEE
libopenvino.so.2420:_ZN2ov4pass7pattern7MatcherC2ESt10shared_ptrINS_4NodeEERKNSt7__cxx1112basic_stringIcSt11char_traitsIcESaIcEEE
libopenvino.so.2420:_ZN2ov4pass7pattern7MatcherC2ESt10shared_ptrINS_4NodeEERKNSt7__cxx1112basic_stringIcSt11char_traitsIcESaIcEEEb
libopenvino.so.2420:_ZN2ov4pass7pattern9any_inputERKSt8functionIFbRKNS_6OutputINS_4NodeEEEEE
libopenvino.so.2420:_ZN2ov4pass7pattern9any_inputEv
libopenvino.so.2420:_ZN2ov4pass8PassBase12set_callbackERKSt8functionIFbSt10shared_ptrIKNS_4NodeEEEE
libopenvino.so.2420:_ZN2ov4pass8PassBase12set_propertyERKNS_8EnumMaskINS0_12PassPropertyEEEb
libopenvino.so.2420:_ZN2ov4pass8PassBaseC1Ev
libopenvino.so.2420:_ZN2ov4pass8PassBaseC2Ev
libopenvino.so.2420:_ZN2ov4pass8UnrollIf12run_on_modelERKSt10shared_ptrINS_5ModelEE
libopenvino.so.2420:_ZN2ov4pass8Validate12run_on_modelERKSt10shared_ptrINS_5ModelEE
libopenvino.so.2420:_ZN2ov4pass9FindBatch12run_on_modelERKSt10shared_ptrINS_5ModelEE
libopenvino.so.2420:_ZN2ov4pass9ModelPassD0Ev
libopenvino.so.2420:_ZN2ov4pass9ModelPassD1Ev
libopenvino.so.2420:_ZN2ov4pass9ModelPassD2Ev
libopenvino.so.2420:_ZN2ov4pass9RMSFusionC1Ev
libopenvino.so.2420:_ZN2ov4pass9RMSFusionC2Ev
libopenvino.so.2420:_ZN2ov4pass9Serialize12run_on_modelERKSt10shared_ptrINS_5ModelEE
libopenvino.so.2420:_ZN2ov4pass9SerializeC1ERKNSt7__cxx1112basic_stringIcSt11char_traitsIcESaIcEEES9_NS1_7VersionE
libopenvino.so.2420:_ZN2ov4pass9SerializeC1ERSoS2_NS1_7VersionE
libopenvino.so.2420:_ZN2ov4pass9SerializeC2ERKNSt7__cxx1112basic_stringIcSt11char_traitsIcESaIcEEES9_NS1_7VersionE
libopenvino.so.2420:_ZN2ov4pass9SerializeC2ERSoS2_NS1_7VersionE
libopenvino.so.2420:_ZN2ov4util10are_uniqueERKSt6vectorIlSaIlEE
libopenvino.so.2420:_ZN2ov4util10reduce_andERKNS_6TensorE
libopenvino.so.2420:_ZN2ov4util13greater_equalERKNS_6TensorES3_
libopenvino.so.2420:_ZN2ov4util14has_no_symbolsERKSt6vectorISt10shared_ptrINS_6SymbolEESaIS4_EE
libopenvino.so.2420:_ZN2ov4util14normalize_axesEPKNS_4NodeERKlRSt6vectorIlSaIlEE
libopenvino.so.2420:_ZN2ov4util14normalize_axesERKNSt7__cxx1112basic_stringIcSt11char_traitsIcESaIcEEERKSt6vectorIlSaIlEERKNS_9DimensionE
libopenvino.so.2420:_ZN2ov4util14normalize_axisEPKNS_4NodeElRKNS_9DimensionE
libopenvino.so.2420:_ZN2ov4util14normalize_axisEPKNS_4NodeElmll
libopenvino.so.2420:_ZN2ov4util14normalize_axisERKNSt7__cxx1112basic_stringIcSt11char_traitsIcESaIcEEElRKNS_9DimensionE
libopenvino.so.2420:_ZN2ov4util14normalize_axisERKNSt7__cxx1112basic_stringIcSt11char_traitsIcESaIcEEElmll
libopenvino.so.2420:_ZN2ov4util16reduce_keep_dimsERKNS_5ShapeERKNS_7AxisSetE
libopenvino.so.2420:_ZN2ov4util17unsupported_typesEv
libopenvino.so.2420:_ZN2ov4util19is_type_unsupportedERKNS_7element4TypeE
libopenvino.so.2420:_ZN2ov4util19is_valid_axes_orderERKSt6vectorIlSaIlEEm
libopenvino.so.2420:_ZN2ov4util21constantfold_subgraphERKNS_6OutputINS_4NodeEEE
libopenvino.so.2420:_ZN2ov4util21normalize_shape_indexElm
libopenvino.so.2420:_ZN2ov4util24default_symbol_evaluatorEPKNS_4NodeERSt6vectorIS4_ISt10shared_ptrINS_6SymbolEESaIS7_EESaIS9_EE
libopenvino.so.2420:_ZN2ov4util24get_constant_from_sourceERKNS_6OutputINS_4NodeEEE
libopenvino.so.2420:_ZN2ov4util24make_tensor_of_max_valueENS_7element6Type_tE
libopenvino.so.2420:_ZN2ov4util24make_tensor_of_min_valueENS_7element6Type_tE
libopenvino.so.2420:_ZN2ov4util25evaluate_as_partial_shapeERKNS_6OutputINS_4NodeEEERNS_12PartialShapeE
libopenvino.so.2420:_ZN2ov4util25is_rank_compatible_any_ofERKNS_9DimensionESt16initializer_listIS1_E
libopenvino.so.2420:_ZN2ov4util26get_tensors_partial_shapesERKSt6vectorINS_6TensorESaIS2_EE
libopenvino.so.2420:_ZN2ov4util28get_original_input_precisionERKNS_5InputINS_4NodeEEE
libopenvino.so.2420:_ZN2ov4util28has_original_input_precisionERKNS_5InputINS_4NodeEEE
libopenvino.so.2420:_ZN2ov4util29get_node_input_partial_shapesERKNS_4NodeE
libopenvino.so.2420:_ZN2ov4util30convert_to_supported_precisionEPNS_4NodeE
libopenvino.so.2420:_ZN2ov4util30convert_to_supported_precisionEPNS_4NodeERKSt6vectorINS_6OutputIS1_EESaIS5_EE
libopenvino.so.2420:_ZN2ov4util30save_original_input_precisionsERKSt10shared_ptrINS_4NodeEE
libopenvino.so.2420:_ZN2ov4util32generate_transpose_default_orderERSt6vectorIlSaIlEEm
libopenvino.so.2420:_ZN2ov4util34node_requires_precision_conversionEPKNS_4NodeE
libopenvino.so.2420:_ZN2ov4util40evaluate_node_with_unsupported_precisionEPKNS_4NodeERSt6vectorINS_6TensorESaIS5_EERKS7_
libopenvino.so.2420:_ZN2ov4util41remove_original_input_precision_attributeERNS_5InputINS_4NodeEEE
libopenvino.so.2420:_ZN2ov4util4clipERKlS2_S2_
libopenvino.so.2420:_ZN2ov4util5equalESt10type_indexS1_
libopenvino.so.2420:_ZN2ov4util6reduceERKNS_5ShapeERKNS_7AxisSetE
libopenvino.so.2420:_ZN2ov4util6reduceERKNS_5ShapeERKNS_7AxisSetEb
libopenvino.so.2420:_ZN2ov4util6reduceERKSt6vectorImSaImEERKNS_7AxisSetE
libopenvino.so.2420:_ZN2ov4util9normalizeERKlS2_
libopenvino.so.2420:_ZN2ov5ICoreD0Ev
libopenvino.so.2420:_ZN2ov5ICoreD1Ev
libopenvino.so.2420:_ZN2ov5ICoreD2Ev
libopenvino.so.2420:_ZN2ov5InputIKNS_4NodeEEC1EPS2_m
libopenvino.so.2420:_ZN2ov5InputIKNS_4NodeEEC2EPS2_m
libopenvino.so.2420:_ZN2ov5InputINS_4NodeEE11get_rt_infoB5cxx11Ev
libopenvino.so.2420:_ZN2ov5InputINS_4NodeEEC1EPS1_m
libopenvino.so.2420:_ZN2ov5InputINS_4NodeEEC2EPS1_m
libopenvino.so.2420:_ZN2ov5Model10add_outputERKNS_6OutputINS_4NodeEEE
libopenvino.so.2420:_ZN2ov5Model10add_outputERKNSt7__cxx1112basic_stringIcSt11char_traitsIcESaIcEEE
libopenvino.so.2420:_ZN2ov5Model10add_outputERKNSt7__cxx1112basic_stringIcSt11char_traitsIcESaIcEEEm
libopenvino.so.2420:_ZN2ov5Model11add_resultsERKSt6vectorISt10shared_ptrINS_2op2v06ResultEESaIS6_EE
libopenvino.so.2420:_ZN2ov5Model11get_rt_infoERSt3mapINSt7__cxx1112basic_stringIcSt11char_traitsIcESaIcEEENS_3AnyESt4lessIS7_ESaISt4pairIKS7_S8_EEERKN9__gnu_cxx17__normal_iteratorIPSC_St6vectorIS7_SaIS7_EEEESP_
libopenvino.so.2420:_ZN2ov5Model11remove_sinkERKSt10shared_ptrINS_2op4SinkEE
libopenvino.so.2420:_ZN2ov5Model12replace_nodeESt10shared_ptrINS_4NodeEES3_
libopenvino.so.2420:_ZN2ov5Model13add_variablesERKSt6vectorISt10shared_ptrINS_2op4util8VariableEESaIS6_EE
libopenvino.so.2420:_ZN2ov5Model13remove_resultERKSt10shared_ptrINS_2op2v06ResultEE
libopenvino.so.2420:_ZN2ov5Model14add_parametersERKSt6vectorISt10shared_ptrINS_2op2v09ParameterEESaIS6_EE
libopenvino.so.2420:_ZN2ov5Model15prerequirementsEbb
libopenvino.so.2420:_ZN2ov5Model15remove_variableERKSt10shared_ptrINS_2op4util8VariableEE
libopenvino.so.2420:_ZN2ov5Model16remove_parameterERKSt10shared_ptrINS_2op2v09ParameterEE
libopenvino.so.2420:_ZN2ov5Model16visit_attributesERNS_16AttributeVisitorE
libopenvino.so.2420:_ZN2ov5Model17replace_parameterEmRKSt10shared_ptrINS_2op2v09ParameterEE
libopenvino.so.2420:_ZN2ov5Model17set_friendly_nameERKNSt7__cxx1112basic_stringIcSt11char_traitsIcESaIcEEE
libopenvino.so.2420:_ZN2ov5Model20set_topological_sortESt8functionIFSt6vectorISt10shared_ptrINS_4NodeEESaIS5_EERKS7_EE
libopenvino.so.2420:_ZN2ov5Model5inputERKNSt7__cxx1112basic_stringIcSt11char_traitsIcESaIcEEE
libopenvino.so.2420:_ZN2ov5Model5inputEm
libopenvino.so.2420:_ZN2ov5Model5inputEv
libopenvino.so.2420:_ZN2ov5Model6inputsEv
libopenvino.so.2420:_ZN2ov5Model6outputERKNSt7__cxx1112basic_stringIcSt11char_traitsIcESaIcEEE
libopenvino.so.2420:_ZN2ov5Model6outputEm
libopenvino.so.2420:_ZN2ov5Model6outputEv
libopenvino.so.2420:_ZN2ov5Model7outputsEv
libopenvino.so.2420:_ZN2ov5Model7reshapeERKNS_12PartialShapeE
libopenvino.so.2420:_ZN2ov5Model7reshapeERKSt3mapINS_6OutputINS_4NodeEEENS_12PartialShapeESt4lessIS4_ESaISt4pairIKS4_S5_EEE
libopenvino.so.2420:_ZN2ov5Model7reshapeERKSt3mapINSt7__cxx1112basic_stringIcSt11char_traitsIcESaIcEEENS_12PartialShapeESt4lessIS7_ESaISt4pairIKS7_S8_EEE
libopenvino.so.2420:_ZN2ov5Model7reshapeERKSt3mapImNS_12PartialShapeESt4lessImESaISt4pairIKmS2_EEE
libopenvino.so.2420:_ZN2ov5Model9add_sinksERKSt6vectorISt10shared_ptrINS_2op4SinkEESaIS5_EE
libopenvino.so.2420:_ZN2ov5ModelC1ERKSt10shared_ptrINS_4NodeEERKSt6vectorIS1_INS_2op2v09ParameterEESaISA_EERKNSt7__cxx1112basic_stringIcSt11char_traitsIcESaIcEEE
libopenvino.so.2420:_ZN2ov5ModelC1ERKSt6vectorINS_6OutputINS_4NodeEEESaIS4_EERKNSt7__cxx1112basic_stringIcSt11char_traitsIcESaIcEEE
libopenvino.so.2420:_ZN2ov5ModelC1ERKSt6vectorINS_6OutputINS_4NodeEEESaIS4_EERKS1_ISt10shared_ptrINS_2op2v09ParameterEESaISD_EERKNSt7__cxx1112basic_stringIcSt11char_traitsIcESaIcEEE
libopenvino.so.2420:_ZN2ov5ModelC1ERKSt6vectorINS_6OutputINS_4NodeEEESaIS4_EERKS1_ISt10shared_ptrINS_2op2v09ParameterEESaISD_EERKS1_IS9_INSA_4util8VariableEESaISK_EERKNSt7__cxx1112basic_stringIcSt11char_traitsIcESaIcEEE
libopenvino.so.2420:_ZN2ov5ModelC1ERKSt6vectorINS_6OutputINS_4NodeEEESaIS4_EERKS1_ISt10shared_ptrINS_2op4SinkEESaISC_EERKNSt7__cxx1112basic_stringIcSt11char_traitsIcESaIcEEE
libopenvino.so.2420:_ZN2ov5ModelC1ERKSt6vectorINS_6OutputINS_4NodeEEESaIS4_EERKS1_ISt10shared_ptrINS_2op4SinkEESaISC_EERKS1_IS9_INSA_2v09ParameterEESaISJ_EERKNSt7__cxx1112basic_stringIcSt11char_traitsIcESaIcEEE
libopenvino.so.2420:_ZN2ov5ModelC1ERKSt6vectorINS_6OutputINS_4NodeEEESaIS4_EERKS1_ISt10shared_ptrINS_2op4SinkEESaISC_EERKS1_IS9_INSA_2v09ParameterEESaISJ_EERKS1_IS9_INSA_4util8VariableEESaISQ_EERKNSt7__cxx1112basic_stringIcSt11char_traitsIcESaIcEEE
libopenvino.so.2420:_ZN2ov5ModelC1ERKSt6vectorISt10shared_ptrINS_2op2v06ResultEESaIS6_EERKS1_IS2_INS3_4SinkEESaISC_EERKS1_IS2_INS4_9ParameterEESaISI_EERKNSt7__cxx1112basic_stringIcSt11char_traitsIcESaIcEEE
libopenvino.so.2420:_ZN2ov5ModelC1ERKSt6vectorISt10shared_ptrINS_2op2v06ResultEESaIS6_EERKS1_IS2_INS3_4SinkEESaISC_EERKS1_IS2_INS4_9ParameterEESaISI_EERKS1_IS2_INS3_4util8VariableEESaISP_EERKNSt7__cxx1112basic_stringIcSt11char_traitsIcESaIcEEE
libopenvino.so.2420:_ZN2ov5ModelC1ERKSt6vectorISt10shared_ptrINS_2op2v06ResultEESaIS6_EERKS1_IS2_INS4_9ParameterEESaISC_EERKNSt7__cxx1112basic_stringIcSt11char_traitsIcESaIcEEE
libopenvino.so.2420:_ZN2ov5ModelC1ERKSt6vectorISt10shared_ptrINS_2op2v06ResultEESaIS6_EERKS1_IS2_INS4_9ParameterEESaISC_EERKS1_IS2_INS3_4util8VariableEESaISJ_EERKNSt7__cxx1112basic_stringIcSt11char_traitsIcESaIcEEE
libopenvino.so.2420:_ZN2ov5ModelC1ERKSt6vectorISt10shared_ptrINS_4NodeEESaIS4_EERKS1_IS2_INS_2op2v09ParameterEESaISC_EERKNSt7__cxx1112basic_stringIcSt11char_traitsIcESaIcEEE
libopenvino.so.2420:_ZN2ov5ModelC2ERKSt10shared_ptrINS_4NodeEERKSt6vectorIS1_INS_2op2v09ParameterEESaISA_EERKNSt7__cxx1112basic_stringIcSt11char_traitsIcESaIcEEE
libopenvino.so.2420:_ZN2ov5ModelC2ERKSt6vectorINS_6OutputINS_4NodeEEESaIS4_EERKNSt7__cxx1112basic_stringIcSt11char_traitsIcESaIcEEE
libopenvino.so.2420:_ZN2ov5ModelC2ERKSt6vectorINS_6OutputINS_4NodeEEESaIS4_EERKS1_ISt10shared_ptrINS_2op2v09ParameterEESaISD_EERKNSt7__cxx1112basic_stringIcSt11char_traitsIcESaIcEEE
libopenvino.so.2420:_ZN2ov5ModelC2ERKSt6vectorINS_6OutputINS_4NodeEEESaIS4_EERKS1_ISt10shared_ptrINS_2op2v09ParameterEESaISD_EERKS1_IS9_INSA_4util8VariableEESaISK_EERKNSt7__cxx1112basic_stringIcSt11char_traitsIcESaIcEEE
libopenvino.so.2420:_ZN2ov5ModelC2ERKSt6vectorINS_6OutputINS_4NodeEEESaIS4_EERKS1_ISt10shared_ptrINS_2op4SinkEESaISC_EERKNSt7__cxx1112basic_stringIcSt11char_traitsIcESaIcEEE
libopenvino.so.2420:_ZN2ov5ModelC2ERKSt6vectorINS_6OutputINS_4NodeEEESaIS4_EERKS1_ISt10shared_ptrINS_2op4SinkEESaISC_EERKS1_IS9_INSA_2v09ParameterEESaISJ_EERKNSt7__cxx1112basic_stringIcSt11char_traitsIcESaIcEEE
libopenvino.so.2420:_ZN2ov5ModelC2ERKSt6vectorINS_6OutputINS_4NodeEEESaIS4_EERKS1_ISt10shared_ptrINS_2op4SinkEESaISC_EERKS1_IS9_INSA_2v09ParameterEESaISJ_EERKS1_IS9_INSA_4util8VariableEESaISQ_EERKNSt7__cxx1112basic_stringIcSt11char_traitsIcESaIcEEE
libopenvino.so.2420:_ZN2ov5ModelC2ERKSt6vectorISt10shared_ptrINS_2op2v06ResultEESaIS6_EERKS1_IS2_INS3_4SinkEESaISC_EERKS1_IS2_INS4_9ParameterEESaISI_EERKNSt7__cxx1112basic_stringIcSt11char_traitsIcESaIcEEE
libopenvino.so.2420:_ZN2ov5ModelC2ERKSt6vectorISt10shared_ptrINS_2op2v06ResultEESaIS6_EERKS1_IS2_INS3_4SinkEESaISC_EERKS1_IS2_INS4_9ParameterEESaISI_EERKS1_IS2_INS3_4util8VariableEESaISP_EERKNSt7__cxx1112basic_stringIcSt11char_traitsIcESaIcEEE
libopenvino.so.2420:_ZN2ov5ModelC2ERKSt6vectorISt10shared_ptrINS_2op2v06ResultEESaIS6_EERKS1_IS2_INS4_9ParameterEESaISC_EERKNSt7__cxx1112basic_stringIcSt11char_traitsIcESaIcEEE
libopenvino.so.2420:_ZN2ov5ModelC2ERKSt6vectorISt10shared_ptrINS_2op2v06ResultEESaIS6_EERKS1_IS2_INS4_9ParameterEESaISC_EERKS1_IS2_INS3_4util8VariableEESaISJ_EERKNSt7__cxx1112basic_stringIcSt11char_traitsIcESaIcEEE
libopenvino.so.2420:_ZN2ov5ModelC2ERKSt6vectorISt10shared_ptrINS_4NodeEESaIS4_EERKS1_IS2_INS_2op2v09ParameterEESaISC_EERKNSt7__cxx1112basic_stringIcSt11char_traitsIcESaIcEEE
libopenvino.so.2420:_ZN2ov5OpSet13to_upper_nameERKNSt7__cxx1112basic_stringIcSt11char_traitsIcESaIcEEE
libopenvino.so.2420:_ZN2ov5OpSet6insertERKNSt7__cxx1112basic_stringIcSt11char_traitsIcESaIcEEERKNS_16DiscreteTypeInfoESt8functionIFPNS_4NodeEvEE
libopenvino.so.2420:_ZN2ov5OpSetC1ERKNSt7__cxx1112basic_stringIcSt11char_traitsIcESaIcEEE
libopenvino.so.2420:_ZN2ov5OpSetC1ERKS0_
libopenvino.so.2420:_ZN2ov5OpSetC2ERKNSt7__cxx1112basic_stringIcSt11char_traitsIcESaIcEEE
libopenvino.so.2420:_ZN2ov5OpSetC2ERKS0_
libopenvino.so.2420:_ZN2ov5OpSetD0Ev
libopenvino.so.2420:_ZN2ov5OpSetD1Ev
libopenvino.so.2420:_ZN2ov5OpSetD2Ev
libopenvino.so.2420:_ZN2ov5OpSetaSERKS0_
libopenvino.so.2420:_ZN2ov5Shape2atEl
libopenvino.so.2420:_ZN2ov5ShapeC1ERKNSt7__cxx1112basic_stringIcSt11char_traitsIcESaIcEEE
libopenvino.so.2420:_ZN2ov5ShapeC1ERKS0_
libopenvino.so.2420:_ZN2ov5ShapeC1ERKSt16initializer_listImE
libopenvino.so.2420:_ZN2ov5ShapeC1ERKSt6vectorImSaImEE
libopenvino.so.2420:_ZN2ov5ShapeC1Emm
libopenvino.so.2420:_ZN2ov5ShapeC1Ev
libopenvino.so.2420:_ZN2ov5ShapeC2ERKNSt7__cxx1112basic_stringIcSt11char_traitsIcESaIcEEE
libopenvino.so.2420:_ZN2ov5ShapeC2ERKS0_
libopenvino.so.2420:_ZN2ov5ShapeC2ERKSt16initializer_listImE
libopenvino.so.2420:_ZN2ov5ShapeC2ERKSt6vectorImSaImEE
libopenvino.so.2420:_ZN2ov5ShapeC2Emm
libopenvino.so.2420:_ZN2ov5ShapeC2Ev
libopenvino.so.2420:_ZN2ov5ShapeD1Ev
libopenvino.so.2420:_ZN2ov5ShapeD2Ev
libopenvino.so.2420:_ZN2ov5ShapeaSEOS0_
libopenvino.so.2420:_ZN2ov5ShapeaSERKS0_
libopenvino.so.2420:_ZN2ov5ShapeixEl
libopenvino.so.2420:_ZN2ov6Layout6scalarEv
libopenvino.so.2420:_ZN2ov6LayoutC1ERKNSt7__cxx1112basic_stringIcSt11char_traitsIcESaIcEEE
libopenvino.so.2420:_ZN2ov6LayoutC1Ev
libopenvino.so.2420:_ZN2ov6LayoutC2ERKNSt7__cxx1112basic_stringIcSt11char_traitsIcESaIcEEE
libopenvino.so.2420:_ZN2ov6LayoutC2Ev
libopenvino.so.2420:_ZN2ov6OutputIKNS_4NodeEE5resetEv
libopenvino.so.2420:_ZN2ov6OutputIKNS_4NodeEE8for_nodeERKSt10shared_ptrIS2_E
libopenvino.so.2420:_ZN2ov6OutputIKNS_4NodeEEC1EPS2_m
libopenvino.so.2420:_ZN2ov6OutputIKNS_4NodeEEC1ERKSt10shared_ptrIS2_Em
libopenvino.so.2420:_ZN2ov6OutputIKNS_4NodeEEC2EPS2_m
libopenvino.so.2420:_ZN2ov6OutputIKNS_4NodeEEC2ERKSt10shared_ptrIS2_Em
libopenvino.so.2420:_ZN2ov6OutputINS_4NodeEE11get_rt_infoB5cxx11Ev
libopenvino.so.2420:_ZN2ov6OutputINS_4NodeEE14set_tensor_ptrESt10shared_ptrINS_10descriptor6TensorEE
libopenvino.so.2420:_ZN2ov6OutputINS_4NodeEE5resetEv
libopenvino.so.2420:_ZN2ov6OutputINS_4NodeEE7replaceERKS2_
libopenvino.so.2420:_ZN2ov6OutputINS_4NodeEE8for_nodeERKSt10shared_ptrIS1_E
libopenvino.so.2420:_ZN2ov6OutputINS_4NodeEE9add_namesERKSt13unordered_setINSt7__cxx1112basic_stringIcSt11char_traitsIcESaIcEEESt4hashIS9_ESt8equal_toIS9_ESaIS9_EE
libopenvino.so.2420:_ZN2ov6OutputINS_4NodeEE9set_namesERKSt13unordered_setINSt7__cxx1112basic_stringIcSt11char_traitsIcESaIcEEESt4hashIS9_ESt8equal_toIS9_ESaIS9_EE
libopenvino.so.2420:_ZN2ov6OutputINS_4NodeEEC1EPS1_m
libopenvino.so.2420:_ZN2ov6OutputINS_4NodeEEC1ERKSt10shared_ptrIS1_Em
libopenvino.so.2420:_ZN2ov6OutputINS_4NodeEEC2EPS1_m
libopenvino.so.2420:_ZN2ov6OutputINS_4NodeEEC2ERKSt10shared_ptrIS1_Em
libopenvino.so.2420:_ZN2ov6Tensor10type_checkERKS0_
libopenvino.so.2420:_ZN2ov6Tensor9set_shapeERKNS_5ShapeE
libopenvino.so.2420:_ZN2ov6TensorC1ERKNS_6OutputIKNS_4NodeEEEPvRKNS_7StridesE
libopenvino.so.2420:_ZN2ov6TensorC1ERKNS_6OutputIKNS_4NodeEEERKNS_9AllocatorE
libopenvino.so.2420:_ZN2ov6TensorC1ERKNS_7element4TypeERKNS_5ShapeEPvRKNS_7StridesE
libopenvino.so.2420:_ZN2ov6TensorC1ERKNS_7element4TypeERKNS_5ShapeERKNS_9AllocatorE
libopenvino.so.2420:_ZN2ov6TensorC1ERKS0_RKNS_10CoordinateES5_
libopenvino.so.2420:_ZN2ov6TensorC1ERKS0_RKSt10shared_ptrIvE
libopenvino.so.2420:_ZN2ov6TensorC1ERKSt10shared_ptrINS_7ITensorEERKS1_IvE
libopenvino.so.2420:_ZN2ov6TensorC2ERKNS_6OutputIKNS_4NodeEEEPvRKNS_7StridesE
libopenvino.so.2420:_ZN2ov6TensorC2ERKNS_6OutputIKNS_4NodeEEERKNS_9AllocatorE
libopenvino.so.2420:_ZN2ov6TensorC2ERKNS_7element4TypeERKNS_5ShapeEPvRKNS_7StridesE
libopenvino.so.2420:_ZN2ov6TensorC2ERKNS_7element4TypeERKNS_5ShapeERKNS_9AllocatorE
libopenvino.so.2420:_ZN2ov6TensorC2ERKS0_RKNS_10CoordinateES5_
libopenvino.so.2420:_ZN2ov6TensorC2ERKS0_RKSt10shared_ptrIvE
libopenvino.so.2420:_ZN2ov6TensorC2ERKSt10shared_ptrINS_7ITensorEERKS1_IvE
libopenvino.so.2420:_ZN2ov6TensorD1Ev
libopenvino.so.2420:_ZN2ov6TensorD2Ev
libopenvino.so.2420:_ZN2ov6layout10get_layoutERKNS_6OutputIKNS_4NodeEEE
libopenvino.so.2420:_ZN2ov6layout10get_layoutERKNS_6OutputINS_4NodeEEE
libopenvino.so.2420:_ZN2ov6layout10has_heightERKNS_6LayoutE
libopenvino.so.2420:_ZN2ov6layout10height_idxERKNS_6LayoutE
libopenvino.so.2420:_ZN2ov6layout10set_layoutENS_6OutputINS_4NodeEEERKNS_6LayoutE
libopenvino.so.2420:_ZN2ov6layout12channels_idxERKNS_6LayoutE
libopenvino.so.2420:_ZN2ov6layout12has_channelsERKNS_6LayoutE
libopenvino.so.2420:_ZN2ov6layout9batch_idxERKNS_6LayoutE
libopenvino.so.2420:_ZN2ov6layout9depth_idxERKNS_6LayoutE
libopenvino.so.2420:_ZN2ov6layout9has_batchERKNS_6LayoutE
libopenvino.so.2420:_ZN2ov6layout9has_depthERKNS_6LayoutE
libopenvino.so.2420:_ZN2ov6layout9has_widthERKNS_6LayoutE
libopenvino.so.2420:_ZN2ov6layout9width_idxERKNS_6LayoutE
libopenvino.so.2420:_ZN2ov6symbol11ancestor_ofERKSt10shared_ptrINS_6SymbolEE
libopenvino.so.2420:_ZN2ov6symbol4util11get_symbolsERKNS_12PartialShapeERSt6vectorISt10shared_ptrINS_6SymbolEESaIS8_EE
libopenvino.so.2420:_ZN2ov6symbol4util11get_symbolsERKNS_6OutputINS_4NodeEEERSt6vectorISt10shared_ptrINS_6SymbolEESaISA_EE
libopenvino.so.2420:_ZN2ov6symbol4util14dims_are_equalERKNS_9DimensionES4_
libopenvino.so.2420:_ZN2ov6symbol4util28are_unique_and_equal_symbolsERKSt6vectorISt10shared_ptrINS_6SymbolEESaIS5_EES9_
libopenvino.so.2420:_ZN2ov6symbol9are_equalERKSt10shared_ptrINS_6SymbolEES5_
libopenvino.so.2420:_ZN2ov6symbol9set_equalERKSt10shared_ptrINS_6SymbolEES5_
libopenvino.so.2420:_ZN2ov7AxisSetC1ERKS0_
libopenvino.so.2420:_ZN2ov7AxisSetC1ERKSt16initializer_listImE
libopenvino.so.2420:_ZN2ov7AxisSetC1ERKSt3setImSt4lessImESaImEE
libopenvino.so.2420:_ZN2ov7AxisSetC1ERKSt6vectorImSaImEE
libopenvino.so.2420:_ZN2ov7AxisSetC1Ev
libopenvino.so.2420:_ZN2ov7AxisSetC2ERKS0_
libopenvino.so.2420:_ZN2ov7AxisSetC2ERKSt16initializer_listImE
libopenvino.so.2420:_ZN2ov7AxisSetC2ERKSt3setImSt4lessImESaImEE
libopenvino.so.2420:_ZN2ov7AxisSetC2ERKSt6vectorImSaImEE
libopenvino.so.2420:_ZN2ov7AxisSetC2Ev
libopenvino.so.2420:_ZN2ov7AxisSetaSEOS0_
libopenvino.so.2420:_ZN2ov7AxisSetaSERKS0_
libopenvino.so.2420:_ZN2ov7IPlugin11set_versionERKNS_7VersionE
libopenvino.so.2420:_ZN2ov7IPlugin15set_device_nameERKNSt7__cxx1112basic_stringIcSt11char_traitsIcESaIcEEE
libopenvino.so.2420:_ZN2ov7IPlugin8set_coreERKSt8weak_ptrINS_5ICoreEE
libopenvino.so.2420:_ZN2ov7IPluginC1Ev
libopenvino.so.2420:_ZN2ov7IPluginC2Ev
libopenvino.so.2420:_ZN2ov7ITensorD0Ev
libopenvino.so.2420:_ZN2ov7ITensorD1Ev
libopenvino.so.2420:_ZN2ov7ITensorD2Ev
libopenvino.so.2420:_ZN2ov7StridesC1ERKS0_
libopenvino.so.2420:_ZN2ov7StridesC1ERKSt16initializer_listImE
libopenvino.so.2420:_ZN2ov7StridesC1ERKSt6vectorImSaImEE
libopenvino.so.2420:_ZN2ov7StridesC1Emm
libopenvino.so.2420:_ZN2ov7StridesC1Ev
libopenvino.so.2420:_ZN2ov7StridesC2ERKS0_
libopenvino.so.2420:_ZN2ov7StridesC2ERKSt16initializer_listImE
libopenvino.so.2420:_ZN2ov7StridesC2ERKSt6vectorImSaImEE
libopenvino.so.2420:_ZN2ov7StridesC2Emm
libopenvino.so.2420:_ZN2ov7StridesC2Ev
libopenvino.so.2420:_ZN2ov7StridesaSEOS0_
libopenvino.so.2420:_ZN2ov7StridesaSERKS0_
libopenvino.so.2420:_ZN2ov7element15get_memory_sizeERKNS0_4TypeEm
libopenvino.so.2420:_ZN2ov7element20fundamental_type_forERKNS0_4TypeE
libopenvino.so.2420:_ZN2ov7element4Type15get_known_typesEv
libopenvino.so.2420:_ZN2ov7element4Type5mergeERS1_RKS1_S4_
libopenvino.so.2420:_ZN2ov7element4TypeC1ERKNSt7__cxx1112basic_stringIcSt11char_traitsIcESaIcEEE
libopenvino.so.2420:_ZN2ov7element4TypeC1EmbbbRKNSt7__cxx1112basic_stringIcSt11char_traitsIcESaIcEEE
libopenvino.so.2420:_ZN2ov7element4TypeC2ERKNSt7__cxx1112basic_stringIcSt11char_traitsIcESaIcEEE
libopenvino.so.2420:_ZN2ov7element4TypeC2EmbbbRKNSt7__cxx1112basic_stringIcSt11char_traitsIcESaIcEEE
libopenvino.so.2420:_ZN2ov7element4fromINS_11float8_e4m3EEENS0_4TypeEv
libopenvino.so.2420:_ZN2ov7element4fromINS_11float8_e5m2EEENS0_4TypeEv
libopenvino.so.2420:_ZN2ov7element4fromINS_7float16EEENS0_4TypeEv
libopenvino.so.2420:_ZN2ov7element4fromINS_8bfloat16EEENS0_4TypeEv
libopenvino.so.2420:_ZN2ov7element4fromINSt7__cxx1112basic_stringIcSt11char_traitsIcESaIcEEEEENS0_4TypeEv
libopenvino.so.2420:_ZN2ov7element4fromIaEENS0_4TypeEv
libopenvino.so.2420:_ZN2ov7element4fromIbEENS0_4TypeEv
libopenvino.so.2420:_ZN2ov7element4fromIcEENS0_4TypeEv
libopenvino.so.2420:_ZN2ov7element4fromIdEENS0_4TypeEv
libopenvino.so.2420:_ZN2ov7element4fromIfEENS0_4TypeEv
libopenvino.so.2420:_ZN2ov7element4fromIhEENS0_4TypeEv
libopenvino.so.2420:_ZN2ov7element4fromIiEENS0_4TypeEv
libopenvino.so.2420:_ZN2ov7element4fromIjEENS0_4TypeEv
libopenvino.so.2420:_ZN2ov7element4fromIlEENS0_4TypeEv
libopenvino.so.2420:_ZN2ov7element4fromImEENS0_4TypeEv
libopenvino.so.2420:_ZN2ov7element4fromIsEENS0_4TypeEv
libopenvino.so.2420:_ZN2ov7element4fromItEENS0_4TypeEv
libopenvino.so.2420:_ZN2ov7elementlsERSoRKNS0_4TypeE
libopenvino.so.2420:_ZN2ov7elementrsERSiRNS0_4TypeE
libopenvino.so.2420:_ZN2ov7float16C1Ef
libopenvino.so.2420:_ZN2ov7float16C2Ef
libopenvino.so.2420:_ZN2ov8Interval12canonicalizeEv
libopenvino.so.2420:_ZN2ov8IntervalC1El
libopenvino.so.2420:_ZN2ov8IntervalC1Ell
libopenvino.so.2420:_ZN2ov8IntervalC2El
libopenvino.so.2420:_ZN2ov8IntervalC2Ell
libopenvino.so.2420:_ZN2ov8IntervalaNERKS0_
libopenvino.so.2420:_ZN2ov8IntervalmIERKS0_
libopenvino.so.2420:_ZN2ov8IntervalmLERKS0_
libopenvino.so.2420:_ZN2ov8IntervalpLERKS0_
libopenvino.so.2420:_ZN2ov8bfloat1615to_float_vectorERKSt6vectorIS0_SaIS0_EE
libopenvino.so.2420:_ZN2ov8bfloat1617from_float_vectorERKSt6vectorIfSaIfEE
libopenvino.so.2420:_ZN2ov8frontend10InputModel10add_outputERKSt10shared_ptrINS0_5PlaceEE
libopenvino.so.2420:_ZN2ov8frontend10InputModel13remove_outputERKSt10shared_ptrINS0_5PlaceEE
libopenvino.so.2420:_ZN2ov8frontend10InputModel16extract_subgraphERKSt6vectorISt10shared_ptrINS0_5PlaceEESaIS5_EES9_
libopenvino.so.2420:_ZN2ov8frontend10InputModel16set_element_typeERKSt10shared_ptrINS0_5PlaceEERKNS_7element4TypeE
libopenvino.so.2420:_ZN2ov8frontend10InputModel16set_tensor_valueERKSt10shared_ptrINS0_5PlaceEEPKv
libopenvino.so.2420:_ZN2ov8frontend10InputModel17set_partial_shapeERKSt10shared_ptrINS0_5PlaceEERKNS_12PartialShapeE
libopenvino.so.2420:_ZN2ov8frontend10InputModel19add_name_for_tensorERKSt10shared_ptrINS0_5PlaceEERKNSt7__cxx1112basic_stringIcSt11char_traitsIcESaIcEEE
libopenvino.so.2420:_ZN2ov8frontend10InputModel19override_all_inputsERKSt6vectorISt10shared_ptrINS0_5PlaceEESaIS5_EE
libopenvino.so.2420:_ZN2ov8frontend10InputModel19set_name_for_tensorERKSt10shared_ptrINS0_5PlaceEERKNSt7__cxx1112basic_stringIcSt11char_traitsIcESaIcEEE
libopenvino.so.2420:_ZN2ov8frontend10InputModel20free_name_for_tensorERKNSt7__cxx1112basic_stringIcSt11char_traitsIcESaIcEEE
libopenvino.so.2420:_ZN2ov8frontend10InputModel20override_all_outputsERKSt6vectorISt10shared_ptrINS0_5PlaceEESaIS5_EE
libopenvino.so.2420:_ZN2ov8frontend10InputModel21cut_and_add_new_inputERKSt10shared_ptrINS0_5PlaceEERKNSt7__cxx1112basic_stringIcSt11char_traitsIcESaIcEEE
libopenvino.so.2420:_ZN2ov8frontend10InputModel22cut_and_add_new_outputERKSt10shared_ptrINS0_5PlaceEERKNSt7__cxx1112basic_stringIcSt11char_traitsIcESaIcEEE
libopenvino.so.2420:_ZN2ov8frontend10InputModel22set_name_for_dimensionERKSt10shared_ptrINS0_5PlaceEEmRKNSt7__cxx1112basic_stringIcSt11char_traitsIcESaIcEEE
libopenvino.so.2420:_ZN2ov8frontend10InputModel22set_name_for_operationERKSt10shared_ptrINS0_5PlaceEERKNSt7__cxx1112basic_stringIcSt11char_traitsIcESaIcEEE
libopenvino.so.2420:_ZN2ov8frontend10InputModel23free_name_for_operationERKNSt7__cxx1112basic_stringIcSt11char_traitsIcESaIcEEE
libopenvino.so.2420:_ZN2ov8frontend10InputModel24set_tensor_partial_valueERKSt10shared_ptrINS0_5PlaceEEPKvS8_
libopenvino.so.2420:_ZN2ov8frontend10InputModel42get_place_by_operation_name_and_input_portERKNSt7__cxx1112basic_stringIcSt11char_traitsIcESaIcEEEi
libopenvino.so.2420:_ZN2ov8frontend10InputModel43get_place_by_operation_name_and_output_portERKNSt7__cxx1112basic_stringIcSt11char_traitsIcESaIcEEEi
libopenvino.so.2420:_ZN2ov8frontend11DecoderBaseD0Ev
libopenvino.so.2420:_ZN2ov8frontend11DecoderBaseD1Ev
libopenvino.so.2420:_ZN2ov8frontend11DecoderBaseD2Ev
libopenvino.so.2420:_ZN2ov8frontend14GeneralFailure6createEPKciS3_RKNSt7__cxx1112basic_stringIcSt11char_traitsIcESaIcEEESB_
libopenvino.so.2420:_ZN2ov8frontend15FrontEndManager13load_by_modelIJSt6vectorINS_3AnyESaIS4_EEEEESt10shared_ptrINS0_8FrontEndEEDpRKT_
libopenvino.so.2420:_ZN2ov8frontend15FrontEndManager17load_by_frameworkERKNSt7__cxx1112basic_stringIcSt11char_traitsIcESaIcEEE
libopenvino.so.2420:_ZN2ov8frontend15FrontEndManager18load_by_model_implERKSt6vectorINS_3AnyESaIS3_EE
libopenvino.so.2420:_ZN2ov8frontend15FrontEndManager18register_front_endERKNSt7__cxx1112basic_stringIcSt11char_traitsIcESaIcEEES9_
libopenvino.so.2420:_ZN2ov8frontend15FrontEndManager18register_front_endERKNSt7__cxx1112basic_stringIcSt11char_traitsIcESaIcEEESt8functionIFSt10shared_ptrINS0_8FrontEndEEvEE
libopenvino.so.2420:_ZN2ov8frontend15FrontEndManager24get_available_front_endsB5cxx11Ev
libopenvino.so.2420:_ZN2ov8frontend15FrontEndManager8shutdownEv
libopenvino.so.2420:_ZN2ov8frontend15FrontEndManagerC1EOS1_
libopenvino.so.2420:_ZN2ov8frontend15FrontEndManagerC1Ev
libopenvino.so.2420:_ZN2ov8frontend15FrontEndManagerC2EOS1_
libopenvino.so.2420:_ZN2ov8frontend15FrontEndManagerC2Ev
libopenvino.so.2420:_ZN2ov8frontend15FrontEndManagerD1Ev
libopenvino.so.2420:_ZN2ov8frontend15FrontEndManagerD2Ev
libopenvino.so.2420:_ZN2ov8frontend15FrontEndManageraSEOS1_
libopenvino.so.2420:_ZN2ov8frontend18TelemetryExtension10send_errorERKNSt7__cxx1112basic_stringIcSt11char_traitsIcESaIcEEE
libopenvino.so.2420:_ZN2ov8frontend18TelemetryExtension10send_eventERKNSt7__cxx1112basic_stringIcSt11char_traitsIcESaIcEEES9_i
libopenvino.so.2420:_ZN2ov8frontend18TelemetryExtension16send_stack_traceERKNSt7__cxx1112basic_stringIcSt11char_traitsIcESaIcEEE
libopenvino.so.2420:_ZN2ov8frontend18TelemetryExtensionC1ERKNSt7__cxx1112basic_stringIcSt11char_traitsIcESaIcEEERKSt8functionIFvS9_S9_S9_iEERKSA_IFvS9_S9_EESI_
libopenvino.so.2420:_ZN2ov8frontend18TelemetryExtensionC2ERKNSt7__cxx1112basic_stringIcSt11char_traitsIcESaIcEEERKSt8functionIFvS9_S9_S9_iEERKSA_IFvS9_S9_EESI_
libopenvino.so.2420:_ZN2ov8frontend18make_random_normalERKNS_6OutputINS_4NodeEEENS_7element4TypeES5_S5_f
libopenvino.so.2420:_ZN2ov8frontend18make_random_normalERNS_4pass12NodeRegistryERKNS_6OutputINS_4NodeEEENS_7element4TypeES8_S8_f
libopenvino.so.2420:_ZN2ov8frontend19ConversionExtensionD0Ev
libopenvino.so.2420:_ZN2ov8frontend19ConversionExtensionD1Ev
libopenvino.so.2420:_ZN2ov8frontend19ConversionExtensionD2Ev
libopenvino.so.2420:_ZN2ov8frontend19OpConversionFailure6createEPKciS3_RKNSt7__cxx1112basic_stringIcSt11char_traitsIcESaIcEEESB_
libopenvino.so.2420:_ZN2ov8frontend19OpValidationFailure6createEPKciS3_RKNSt7__cxx1112basic_stringIcSt11char_traitsIcESaIcEEESB_
libopenvino.so.2420:_ZN2ov8frontend21InitializationFailure6createEPKciS3_RKNSt7__cxx1112basic_stringIcSt11char_traitsIcESaIcEEESB_
libopenvino.so.2420:_ZN2ov8frontend21NotImplementedFailure6createEPKciS3_RKNSt7__cxx1112basic_stringIcSt11char_traitsIcESaIcEEESB_
libopenvino.so.2420:_ZN2ov8frontend30DecoderTransformationExtensionC1ERKSt8functionIFbSt10shared_ptrINS_5ModelEEEE
libopenvino.so.2420:_ZN2ov8frontend30DecoderTransformationExtensionC1ERKSt8functionIFvPNS_4pass11MatcherPassEEE
libopenvino.so.2420:_ZN2ov8frontend30DecoderTransformationExtensionC2ERKSt8functionIFbSt10shared_ptrINS_5ModelEEEE
libopenvino.so.2420:_ZN2ov8frontend30DecoderTransformationExtensionC2ERKSt8functionIFvPNS_4pass11MatcherPassEEE
libopenvino.so.2420:_ZN2ov8frontend5PlaceD0Ev
libopenvino.so.2420:_ZN2ov8frontend5PlaceD1Ev
libopenvino.so.2420:_ZN2ov8frontend5PlaceD2Ev
libopenvino.so.2420:_ZN2ov8frontend8FrontEnd11create_copyERKSt10shared_ptrINS_5ModelEERKS2_IvE
libopenvino.so.2420:_ZN2ov8frontend8FrontEnd13add_extensionERKNSt7__cxx1112basic_stringIcSt11char_traitsIcESaIcEEE
libopenvino.so.2420:_ZN2ov8frontend8FrontEnd13add_extensionERKNSt7__cxx1112basic_stringIwSt11char_traitsIwESaIwEEE
libopenvino.so.2420:_ZN2ov8frontend8FrontEnd13add_extensionERKSt10shared_ptrINS_9ExtensionEE
libopenvino.so.2420:_ZN2ov8frontend8FrontEnd13add_extensionERKSt6vectorISt10shared_ptrINS_9ExtensionEESaIS5_EE
libopenvino.so.2420:_ZN2ov8frontend8FrontEndC1Ev
libopenvino.so.2420:_ZN2ov8frontend8FrontEndC2Ev
libopenvino.so.2420:_ZN2ov8frontend8FrontEndD0Ev
libopenvino.so.2420:_ZN2ov8frontend8FrontEndD1Ev
libopenvino.so.2420:_ZN2ov8frontend8FrontEndD2Ev
libopenvino.so.2420:_ZN2ov8shutdownEv
libopenvino.so.2420:_ZN2ov9Allocator10deallocateEPvmm
libopenvino.so.2420:_ZN2ov9Allocator8allocateEmm
libopenvino.so.2420:_ZN2ov9AllocatorC1ERKS0_RKSt10shared_ptrIvE
libopenvino.so.2420:_ZN2ov9AllocatorC1Ev
libopenvino.so.2420:_ZN2ov9AllocatorC2ERKS0_RKSt10shared_ptrIvE
libopenvino.so.2420:_ZN2ov9AllocatorC2Ev
libopenvino.so.2420:_ZN2ov9AllocatorD1Ev
libopenvino.so.2420:_ZN2ov9AllocatorD2Ev
libopenvino.so.2420:_ZN2ov9Cancelled6createERKNSt7__cxx1112basic_stringIcSt11char_traitsIcESaIcEEE
libopenvino.so.2420:_ZN2ov9CancelledD0Ev
libopenvino.so.2420:_ZN2ov9CancelledD1Ev
libopenvino.so.2420:_ZN2ov9CancelledD2Ev
libopenvino.so.2420:_ZN2ov9Dimension10set_symbolERKSt10shared_ptrINS_6SymbolEE
libopenvino.so.2420:_ZN2ov9Dimension15broadcast_mergeERS0_RKS0_S3_
libopenvino.so.2420:_ZN2ov9Dimension5mergeERS0_RKS0_S3_
libopenvino.so.2420:_ZN2ov9DimensionC1ERKNSt7__cxx1112basic_stringIcSt11char_traitsIcESaIcEEE
libopenvino.so.2420:_ZN2ov9DimensionC1El
libopenvino.so.2420:_ZN2ov9DimensionC1Ell
libopenvino.so.2420:_ZN2ov9DimensionC2ERKNSt7__cxx1112basic_stringIcSt11char_traitsIcESaIcEEE
libopenvino.so.2420:_ZN2ov9DimensionC2El
libopenvino.so.2420:_ZN2ov9DimensionC2Ell
libopenvino.so.2420:_ZN2ov9DimensionaNERKS0_
libopenvino.so.2420:_ZN2ov9EnumNamesINS_2op10MVNEpsModeEE3getEv
libopenvino.so.2420:_ZN2ov9EnumNamesINS_2op12RoundingTypeEE3getEv
libopenvino.so.2420:_ZN2ov9EnumNamesINS_2op12TopKSortTypeEE3getEv
libopenvino.so.2420:_ZN2ov9EnumNamesINS_2op13BroadcastTypeEE3getEv
libopenvino.so.2420:_ZN2ov9EnumNamesINS_2op17AutoBroadcastTypeEE3getEv
libopenvino.so.2420:_ZN2ov9EnumNamesINS_2op17LSTMWeightsFormatEE3getEv
libopenvino.so.2420:_ZN2ov9EnumNamesINS_2op21GeluApproximationModeEE3getEv
libopenvino.so.2420:_ZN2ov9EnumNamesINS_2op26RecurrentSequenceDirectionEE3getEv
libopenvino.so.2420:_ZN2ov9EnumNamesINS_2op2v011Interpolate15InterpolateModeEE3getEv
libopenvino.so.2420:_ZN2ov9EnumNamesINS_2op2v012DepthToSpace16DepthToSpaceModeEE3getEv
libopenvino.so.2420:_ZN2ov9EnumNamesINS_2op2v012SpaceToDepth16SpaceToDepthModeEE3getEv
libopenvino.so.2420:_ZN2ov9EnumNamesINS_2op2v117BinaryConvolution21BinaryConvolutionModeEE3getEv
libopenvino.so.2420:_ZN2ov9EnumNamesINS_2op2v117NonMaxSuppression15BoxEncodingTypeEE3getEv
libopenvino.so.2420:_ZN2ov9EnumNamesINS_2op2v17Reverse4ModeEE3getEv
libopenvino.so.2420:_ZN2ov9EnumNamesINS_2op2v317NonMaxSuppression15BoxEncodingTypeEE3getEv
libopenvino.so.2420:_ZN2ov9EnumNamesINS_2op2v38ROIAlign11PoolingModeEE3getEv
libopenvino.so.2420:_ZN2ov9EnumNamesINS_2op2v517NonMaxSuppression15BoxEncodingTypeEE3getEv
libopenvino.so.2420:_ZN2ov9EnumNamesINS_2op2v55Round9RoundModeEE3getEv
libopenvino.so.2420:_ZN2ov9EnumNamesINS_2op2v89MatrixNms13DecayFunctionEE3getEv
libopenvino.so.2420:_ZN2ov9EnumNamesINS_2op2v89MatrixNms14SortResultTypeEE3getEv
libopenvino.so.2420:_ZN2ov9EnumNamesINS_2op2v910GridSample11PaddingModeEE3getEv
libopenvino.so.2420:_ZN2ov9EnumNamesINS_2op2v910GridSample17InterpolationModeEE3getEv
libopenvino.so.2420:_ZN2ov9EnumNamesINS_2op2v917NonMaxSuppression15BoxEncodingTypeEE3getEv
libopenvino.so.2420:_ZN2ov9EnumNamesINS_2op2v98ROIAlign11AlignedModeEE3getEv
libopenvino.so.2420:_ZN2ov9EnumNamesINS_2op2v98ROIAlign11PoolingModeEE3getEv
libopenvino.so.2420:_ZN2ov9EnumNamesINS_2op3v1221ScatterElementsUpdate9ReductionEE3getEv
libopenvino.so.2420:_ZN2ov9EnumNamesINS_2op3v1515ScatterNDUpdate9ReductionEE3getEv
libopenvino.so.2420:_ZN2ov9EnumNamesINS_2op4util15InterpolateBase11NearestModeEE3getEv
libopenvino.so.2420:_ZN2ov9EnumNamesINS_2op4util15InterpolateBase13ShapeCalcModeEE3getEv
libopenvino.so.2420:_ZN2ov9EnumNamesINS_2op4util15InterpolateBase15InterpolateModeEE3getEv
libopenvino.so.2420:_ZN2ov9EnumNamesINS_2op4util15InterpolateBase23CoordinateTransformModeEE3getEv
libopenvino.so.2420:_ZN2ov9EnumNamesINS_2op4util17MulticlassNmsBase14SortResultTypeEE3getEv
libopenvino.so.2420:_ZN2ov9EnumNamesINS_2op4util22EmbeddingBagPackedBase9ReductionEE3getEv
libopenvino.so.2420:_ZN2ov9EnumNamesINS_2op4util23EmbeddingBagOffsetsBase9ReductionEE3getEv
libopenvino.so.2420:_ZN2ov9EnumNamesINS_2op7EpsModeEE3getEv
libopenvino.so.2420:_ZN2ov9EnumNamesINS_2op7PadModeEE3getEv
libopenvino.so.2420:_ZN2ov9EnumNamesINS_2op7PadTypeEE3getEv
libopenvino.so.2420:_ZN2ov9EnumNamesINS_2op8TopKModeEE3getEv
libopenvino.so.2420:_ZN2ov9EnumNamesINS_7element6Type_tEE3getEv
libopenvino.so.2420:_ZN2ov9Exception6createEPKciRKNSt7__cxx1112basic_stringIcSt11char_traitsIcESaIcEEE
libopenvino.so.2420:_ZN2ov9Exception9make_whatEPKciS2_RKNSt7__cxx1112basic_stringIcSt11char_traitsIcESaIcEEESA_
libopenvino.so.2420:_ZN2ov9ExceptionC1ERKNSt7__cxx1112basic_stringIcSt11char_traitsIcESaIcEEE
libopenvino.so.2420:_ZN2ov9ExceptionC2ERKNSt7__cxx1112basic_stringIcSt11char_traitsIcESaIcEEE
libopenvino.so.2420:_ZN2ov9ExceptionD0Ev
libopenvino.so.2420:_ZN2ov9ExceptionD1Ev
libopenvino.so.2420:_ZN2ov9ExceptionD2Ev
libopenvino.so.2420:_ZN2ov9ExtensionD0Ev
libopenvino.so.2420:_ZN2ov9ExtensionD1Ev
libopenvino.so.2420:_ZN2ov9ExtensionD2Ev
libopenvino.so.2420:_ZN2ov9get_batchERKSt10shared_ptrIKNS_5ModelEE
libopenvino.so.2420:_ZN2ov9serializeERKSt10shared_ptrIKNS_5ModelEERKNSt7__cxx1112basic_stringIcSt11char_traitsIcESaIcEEESD_NS_4pass9Serialize7VersionE
libopenvino.so.2420:_ZN2ov9set_batchERKSt10shared_ptrINS_5ModelEENS_9DimensionE
libopenvino.so.2420:_ZN2ov9threading13ITaskExecutor12run_and_waitERKSt6vectorISt8functionIFvvEESaIS5_EE
libopenvino.so.2420:_ZN2ov9threading16IStreamsExecutor23run_sub_stream_and_waitERKSt6vectorISt8functionIFvvEESaIS5_EE
libopenvino.so.2420:_ZN2ov9threading16IStreamsExecutor6Config12set_propertyERKNSt7__cxx1112basic_stringIcSt11char_traitsIcESaIcEEERKNS_3AnyE
libopenvino.so.2420:_ZN2ov9threading16IStreamsExecutor6Config12set_propertyERKSt3mapINSt7__cxx1112basic_stringIcSt11char_traitsIcESaIcEEENS_3AnyESt4lessIS9_ESaISt4pairIKS9_SA_EEE
libopenvino.so.2420:_ZN2ov9threading16IStreamsExecutor6Config22set_config_zero_streamEv
libopenvino.so.2420:_ZN2ov9threading16IStreamsExecutor6Config22update_executor_configEv
libopenvino.so.2420:_ZN2ov9threading16IStreamsExecutor6Config23get_default_num_streamsEv
libopenvino.so.2420:_ZN2ov9threading16IStreamsExecutor6Config27make_default_multi_threadedERKS2_
libopenvino.so.2420:_ZN2ov9threading16IStreamsExecutorD0Ev
libopenvino.so.2420:_ZN2ov9threading16IStreamsExecutorD1Ev
libopenvino.so.2420:_ZN2ov9threading16IStreamsExecutorD2Ev
libopenvino.so.2420:_ZN2ov9threading16executor_managerEv
libopenvino.so.2420:_ZN2ov9threading18CPUStreamsExecutor13get_socket_idEv
libopenvino.so.2420:_ZN2ov9threading18CPUStreamsExecutor13get_stream_idEv
libopenvino.so.2420:_ZN2ov9threading18CPUStreamsExecutor14run_sub_streamESt8functionIFvvEEi
libopenvino.so.2420:_ZN2ov9threading18CPUStreamsExecutor16get_numa_node_idEv
libopenvino.so.2420:_ZN2ov9threading18CPUStreamsExecutor3runESt8functionIFvvEE
libopenvino.so.2420:_ZN2ov9threading18CPUStreamsExecutor7executeESt8functionIFvvEE
libopenvino.so.2420:_ZN2ov9threading18CPUStreamsExecutorC1ERKNS0_16IStreamsExecutor6ConfigE
libopenvino.so.2420:_ZN2ov9threading18CPUStreamsExecutorC2ERKNS0_16IStreamsExecutor6ConfigE
libopenvino.so.2420:_ZN2ov9threading18CPUStreamsExecutorD0Ev
libopenvino.so.2420:_ZN2ov9threading18CPUStreamsExecutorD1Ev
libopenvino.so.2420:_ZN2ov9threading18CPUStreamsExecutorD2Ev
libopenvino.so.2420:_ZN2ovlsERSoPKNS_4NodeE
libopenvino.so.2420:_ZN2ovlsERSoRKNS_10AxisVectorE
libopenvino.so.2420:_ZN2ovlsERSoRKNS_10CoordinateE
libopenvino.so.2420:_ZN2ovlsERSoRKNS_12PartialShapeE
libopenvino.so.2420:_ZN2ovlsERSoRKNS_14CoordinateDiffE
libopenvino.so.2420:_ZN2ovlsERSoRKNS_16DiscreteTypeInfoE
libopenvino.so.2420:_ZN2ovlsERSoRKNS_16RuntimeAttributeE
libopenvino.so.2420:_ZN2ovlsERSoRKNS_2op17LSTMWeightsFormatE
libopenvino.so.2420:_ZN2ovlsERSoRKNS_2op2v011Interpolate15InterpolateModeE
libopenvino.so.2420:_ZN2ovlsERSoRKNS_2op2v012DepthToSpace16DepthToSpaceModeE
libopenvino.so.2420:_ZN2ovlsERSoRKNS_2op2v012SpaceToDepth16SpaceToDepthModeE
libopenvino.so.2420:_ZN2ovlsERSoRKNS_2op2v117BinaryConvolution21BinaryConvolutionModeE
libopenvino.so.2420:_ZN2ovlsERSoRKNS_2op2v117NonMaxSuppression15BoxEncodingTypeE
libopenvino.so.2420:_ZN2ovlsERSoRKNS_2op2v17Reverse4ModeE
libopenvino.so.2420:_ZN2ovlsERSoRKNS_2op2v317NonMaxSuppression15BoxEncodingTypeE
libopenvino.so.2420:_ZN2ovlsERSoRKNS_2op2v517NonMaxSuppression15BoxEncodingTypeE
libopenvino.so.2420:_ZN2ovlsERSoRKNS_2op2v55Round9RoundModeE
libopenvino.so.2420:_ZN2ovlsERSoRKNS_2op2v89MatrixNms13DecayFunctionE
libopenvino.so.2420:_ZN2ovlsERSoRKNS_2op2v89MatrixNms14SortResultTypeE
libopenvino.so.2420:_ZN2ovlsERSoRKNS_2op2v910GridSample11PaddingModeE
libopenvino.so.2420:_ZN2ovlsERSoRKNS_2op2v910GridSample17InterpolationModeE
libopenvino.so.2420:_ZN2ovlsERSoRKNS_2op2v917NonMaxSuppression15BoxEncodingTypeE
libopenvino.so.2420:_ZN2ovlsERSoRKNS_2op3v1515ScatterNDUpdate9ReductionE
libopenvino.so.2420:_ZN2ovlsERSoRKNS_2op4util15InterpolateBase11NearestModeE
libopenvino.so.2420:_ZN2ovlsERSoRKNS_2op4util15InterpolateBase13ShapeCalcModeE
libopenvino.so.2420:_ZN2ovlsERSoRKNS_2op4util15InterpolateBase15InterpolateModeE
libopenvino.so.2420:_ZN2ovlsERSoRKNS_2op4util15InterpolateBase23CoordinateTransformModeE
libopenvino.so.2420:_ZN2ovlsERSoRKNS_2op4util17MulticlassNmsBase14SortResultTypeE
libopenvino.so.2420:_ZN2ovlsERSoRKNS_2op4util22EmbeddingBagPackedBase9ReductionE
libopenvino.so.2420:_ZN2ovlsERSoRKNS_2op4util23EmbeddingBagOffsetsBase9ReductionE
libopenvino.so.2420:_ZN2ovlsERSoRKNS_4NodeE
libopenvino.so.2420:_ZN2ovlsERSoRKNS_5InputIKNS_4NodeEEE
libopenvino.so.2420:_ZN2ovlsERSoRKNS_5InputINS_4NodeEEE
libopenvino.so.2420:_ZN2ovlsERSoRKNS_5ModelE
libopenvino.so.2420:_ZN2ovlsERSoRKNS_5ShapeE
libopenvino.so.2420:_ZN2ovlsERSoRKNS_6OutputIKNS_4NodeEEE
libopenvino.so.2420:_ZN2ovlsERSoRKNS_6OutputINS_4NodeEEE
libopenvino.so.2420:_ZN2ovlsERSoRKNS_7AxisSetE
libopenvino.so.2420:_ZN2ovlsERSoRKNS_7StridesE
libopenvino.so.2420:_ZN2ovlsERSoRKNS_7VersionE
libopenvino.so.2420:_ZN2ovlsERSoRKNS_8IntervalE
libopenvino.so.2420:_ZN2ovlsERSoRKNS_9DimensionE
libopenvino.so.2420:_ZN2ovlsERSoRKSt3mapINSt7__cxx1112basic_stringIcSt11char_traitsIcESaIcEEENS_7VersionESt4lessIS7_ESaISt4pairIKS7_S8_EEE
libopenvino.so.2420:_ZN2ovplERKNS_12PartialShapeES2_
libopenvino.so.2420:_ZNK2ov10FusedNames14getVectorNamesB5cxx11Ev
libopenvino.so.2420:_ZNK2ov10FusedNames4initERKSt10shared_ptrINS_4NodeEE
libopenvino.so.2420:_ZNK2ov10FusedNames5mergeERKSt6vectorISt10shared_ptrINS_4NodeEESaIS4_EE
libopenvino.so.2420:_ZNK2ov10FusedNames8getNamesB5cxx11Ev
libopenvino.so.2420:_ZNK2ov10FusedNames9to_stringB5cxx11Ev
libopenvino.so.2420:_ZNK2ov10descriptor5Input10get_tensorEv
libopenvino.so.2420:_ZNK2ov10descriptor5Input14get_tensor_ptrEv
libopenvino.so.2420:_ZNK2ov10descriptor5Input16get_element_typeEv
libopenvino.so.2420:_ZNK2ov10descriptor5Input17get_partial_shapeEv
libopenvino.so.2420:_ZNK2ov10descriptor5Input8get_nodeEv
libopenvino.so.2420:_ZNK2ov10descriptor5Input9get_shapeEv
libopenvino.so.2420:_ZNK2ov10descriptor6Output10get_outputEv
libopenvino.so.2420:_ZNK2ov10descriptor6Output10get_tensorEv
libopenvino.so.2420:_ZNK2ov10descriptor6Output16get_element_typeEv
libopenvino.so.2420:_ZNK2ov10descriptor6Output17get_partial_shapeEv
libopenvino.so.2420:_ZNK2ov10descriptor6Output8get_nodeEv
libopenvino.so.2420:_ZNK2ov10descriptor6Output9get_shapeEv
libopenvino.so.2420:_ZNK2ov10descriptor6Tensor12get_any_nameB5cxx11Ev
libopenvino.so.2420:_ZNK2ov10descriptor6Tensor4sizeEv
libopenvino.so.2420:_ZNK2ov10descriptor6Tensor9get_namesB5cxx11Ev
libopenvino.so.2420:_ZNK2ov10descriptor6Tensor9get_shapeEv
libopenvino.so.2420:_ZNK2ov10preprocess10OutputInfo14OutputInfoImpl4dumpERSo
libopenvino.so.2420:_ZNK2ov10preprocess16PrePostProcessor4dumpERSo
libopenvino.so.2420:_ZNK2ov10preprocess9InputInfo13InputInfoImpl17create_new_paramsERSt5tupleIJSt13unordered_setINSt7__cxx1112basic_stringIcSt11char_traitsIcESaIcEEESt4hashISA_ESt8equal_toISA_ESaISA_EEbEERKSt10shared_ptrINS_5ModelEE
libopenvino.so.2420:_ZNK2ov10preprocess9InputInfo13InputInfoImpl4dumpERSoRKSt10shared_ptrINS_5ModelEERSt5tupleIJSt13unordered_setINSt7__cxx1112basic_stringIcSt11char_traitsIcESaIcEEESt4hashISG_ESt8equal_toISG_ESaISG_EEbEE
libopenvino.so.2420:_ZNK2ov11float8_e4m37to_bitsEv
libopenvino.so.2420:_ZNK2ov11float8_e4m3cvfEv
libopenvino.so.2420:_ZNK2ov11float8_e5m27to_bitsEv
libopenvino.so.2420:_ZNK2ov11float8_e5m2cvfEv
libopenvino.so.2420:_ZNK2ov12InferRequest18get_profiling_infoEv
libopenvino.so.2420:_ZNK2ov12InferRequestcvbEv
libopenvino.so.2420:_ZNK2ov12InferRequesteqERKS0_
libopenvino.so.2420:_ZNK2ov12InferRequestneERKS0_
libopenvino.so.2420:_ZNK2ov12InferRequestntEv
libopenvino.so.2420:_ZNK2ov12PartialShape10compatibleERKS0_
libopenvino.so.2420:_ZNK2ov12PartialShape11same_schemeERKS0_
libopenvino.so.2420:_ZNK2ov12PartialShape13get_max_shapeEv
libopenvino.so.2420:_ZNK2ov12PartialShape13get_min_shapeEv
libopenvino.so.2420:_ZNK2ov12PartialShape16all_non_negativeEv
libopenvino.so.2420:_ZNK2ov12PartialShape7refinesERKS0_
libopenvino.so.2420:_ZNK2ov12PartialShape7relaxesERKS0_
libopenvino.so.2420:_ZNK2ov12PartialShape8to_shapeEv
libopenvino.so.2420:_ZNK2ov12PartialShape9get_shapeEv
libopenvino.so.2420:_ZNK2ov12PartialShape9is_staticEv
libopenvino.so.2420:_ZNK2ov12PartialShape9to_stringB5cxx11Ev
libopenvino.so.2420:_ZNK2ov12PartialShapeeqERKS0_
libopenvino.so.2420:_ZNK2ov12PartialShapeixEl
libopenvino.so.2420:_ZNK2ov12PartialShapeneERKS0_
libopenvino.so.2420:_ZNK2ov12RemoteTensor10get_paramsB5cxx11Ev
libopenvino.so.2420:_ZNK2ov12RemoteTensor15get_device_nameB5cxx11Ev
libopenvino.so.2420:_ZNK2ov13BiasAttribute11is_copyableERKSt10shared_ptrINS_4NodeEE
libopenvino.so.2420:_ZNK2ov13CompiledModel11get_contextEv
libopenvino.so.2420:_ZNK2ov13CompiledModel12get_propertyERKNSt7__cxx1112basic_stringIcSt11char_traitsIcESaIcEEE
libopenvino.so.2420:_ZNK2ov13CompiledModel17get_runtime_modelEv
libopenvino.so.2420:_ZNK2ov13CompiledModel5inputERKNSt7__cxx1112basic_stringIcSt11char_traitsIcESaIcEEE
libopenvino.so.2420:_ZNK2ov13CompiledModel5inputEm
libopenvino.so.2420:_ZNK2ov13CompiledModel5inputEv
libopenvino.so.2420:_ZNK2ov13CompiledModel6inputsEv
libopenvino.so.2420:_ZNK2ov13CompiledModel6outputERKNSt7__cxx1112basic_stringIcSt11char_traitsIcESaIcEEE
libopenvino.so.2420:_ZNK2ov13CompiledModel6outputEm
libopenvino.so.2420:_ZNK2ov13CompiledModel6outputEv
libopenvino.so.2420:_ZNK2ov13CompiledModel7outputsEv
libopenvino.so.2420:_ZNK2ov13CompiledModelcvbEv
libopenvino.so.2420:_ZNK2ov13CompiledModelntEv
libopenvino.so.2420:_ZNK2ov13RemoteContext10get_paramsB5cxx11Ev
libopenvino.so.2420:_ZNK2ov13RemoteContext15get_device_nameB5cxx11Ev
libopenvino.so.2420:_ZNK2ov13RemoteContextcvbEv
libopenvino.so.2420:_ZNK2ov13VariableState8get_nameB5cxx11Ev
libopenvino.so.2420:_ZNK2ov13VariableState9get_stateEv
libopenvino.so.2420:_ZNK2ov14DeviceIDParser13get_device_idB5cxx11Ev
libopenvino.so.2420:_ZNK2ov14DeviceIDParser15get_device_nameB5cxx11Ev
libopenvino.so.2420:_ZNK2ov14ICompiledModel10get_pluginEv
libopenvino.so.2420:_ZNK2ov14ICompiledModel11get_contextEv
libopenvino.so.2420:_ZNK2ov14ICompiledModel17get_task_executorEv
libopenvino.so.2420:_ZNK2ov14ICompiledModel20create_infer_requestEv
libopenvino.so.2420:_ZNK2ov14ICompiledModel21get_callback_executorEv
libopenvino.so.2420:_ZNK2ov14ICompiledModel6inputsEv
libopenvino.so.2420:_ZNK2ov14ICompiledModel7outputsEv
libopenvino.so.2420:_ZNK2ov14IVariableState8get_nameB5cxx11Ev
libopenvino.so.2420:_ZNK2ov14IVariableState9get_stateEv
libopenvino.so.2420:_ZNK2ov15LayoutAttribute9to_stringB5cxx11Ev
libopenvino.so.2420:_ZNK2ov15exec_model_info13ExecutionNode21clone_with_new_inputsERKSt6vectorINS_6OutputINS_4NodeEEESaIS5_EE
libopenvino.so.2420:_ZNK2ov16DiscreteTypeInfo11get_versionB5cxx11Ev
libopenvino.so.2420:_ZNK2ov16DiscreteTypeInfo11is_castableERKS0_
libopenvino.so.2420:_ZNK2ov16DiscreteTypeInfo4hashEv
libopenvino.so.2420:_ZNK2ov16DiscreteTypeInfocvNSt7__cxx1112basic_stringIcSt11char_traitsIcESaIcEEEEv
libopenvino.so.2420:_ZNK2ov16DiscreteTypeInfoeqERKS0_
libopenvino.so.2420:_ZNK2ov16DiscreteTypeInfogeERKS0_
libopenvino.so.2420:_ZNK2ov16DiscreteTypeInfogtERKS0_
libopenvino.so.2420:_ZNK2ov16DiscreteTypeInfoleERKS0_
libopenvino.so.2420:_ZNK2ov16DiscreteTypeInfoltERKS0_
libopenvino.so.2420:_ZNK2ov16DiscreteTypeInfoneERKS0_
libopenvino.so.2420:_ZNK2ov16RuntimeAttribute11is_copyableERKSt10shared_ptrINS_4NodeEE
libopenvino.so.2420:_ZNK2ov16RuntimeAttribute11is_copyableEv
libopenvino.so.2420:_ZNK2ov16RuntimeAttribute4initERKSt10shared_ptrINS_4NodeEE
libopenvino.so.2420:_ZNK2ov16RuntimeAttribute5mergeERKSt6vectorINS_6OutputINS_4NodeEEESaIS4_EE
libopenvino.so.2420:_ZNK2ov16RuntimeAttribute5mergeERKSt6vectorISt10shared_ptrINS_4NodeEESaIS4_EE
libopenvino.so.2420:_ZNK2ov16RuntimeAttribute9to_stringB5cxx11Ev
libopenvino.so.2420:_ZNK2ov17ISyncInferRequest10get_inputsEv
libopenvino.so.2420:_ZNK2ov17ISyncInferRequest10get_tensorERKNS_6OutputIKNS_4NodeEEE
libopenvino.so.2420:_ZNK2ov17ISyncInferRequest11get_outputsEv
libopenvino.so.2420:_ZNK2ov17ISyncInferRequest11get_tensorsERKNS_6OutputIKNS_4NodeEEE
libopenvino.so.2420:_ZNK2ov17ISyncInferRequest12check_tensorERKNS_6OutputIKNS_4NodeEEERKNS_5SoPtrINS_7ITensorEEE
libopenvino.so.2420:_ZNK2ov17ISyncInferRequest13check_tensorsEv
libopenvino.so.2420:_ZNK2ov17ISyncInferRequest14get_tensor_ptrERKNS_6OutputIKNS_4NodeEEE
libopenvino.so.2420:_ZNK2ov17ISyncInferRequest18get_compiled_modelEv
libopenvino.so.2420:_ZNK2ov17ISyncInferRequest9find_portERKNS_6OutputIKNS_4NodeEEE
libopenvino.so.2420:_ZNK2ov18IAsyncInferRequest10get_inputsEv
libopenvino.so.2420:_ZNK2ov18IAsyncInferRequest10get_tensorERKNS_6OutputIKNS_4NodeEEE
libopenvino.so.2420:_ZNK2ov18IAsyncInferRequest11check_stateEv
libopenvino.so.2420:_ZNK2ov18IAsyncInferRequest11get_outputsEv
libopenvino.so.2420:_ZNK2ov18IAsyncInferRequest11get_tensorsERKNS_6OutputIKNS_4NodeEEE
libopenvino.so.2420:_ZNK2ov18IAsyncInferRequest11query_stateEv
libopenvino.so.2420:_ZNK2ov18IAsyncInferRequest13check_tensorsEv
libopenvino.so.2420:_ZNK2ov18IAsyncInferRequest18get_compiled_modelEv
libopenvino.so.2420:_ZNK2ov18IAsyncInferRequest18get_profiling_infoEv
libopenvino.so.2420:_ZNK2ov18IAsyncInferRequest21check_cancelled_stateEv
libopenvino.so.2420:_ZNK2ov18PrimitivesPriority5mergeERKSt6vectorISt10shared_ptrINS_4NodeEESaIS4_EE
libopenvino.so.2420:_ZNK2ov18PrimitivesPriority9to_stringB5cxx11Ev
libopenvino.so.2420:_ZNK2ov19PrecisionsAttribute9to_stringB5cxx11Ev
libopenvino.so.2420:_ZNK2ov25QuantizationModeAttribute9to_stringB5cxx11Ev
libopenvino.so.2420:_ZNK2ov27IntervalsAlignmentAttribute9to_stringB5cxx11Ev
libopenvino.so.2420:_ZNK2ov27PrecisionPreservedAttribute9to_stringB5cxx11Ev
libopenvino.so.2420:_ZNK2ov2op17AutoBroadcastSpec16type_from_stringERKNSt7__cxx1112basic_stringIcSt11char_traitsIcESaIcEEE
libopenvino.so.2420:_ZNK2ov2op23PagedAttentionExtension21clone_with_new_inputsERKSt6vectorINS_6OutputINS_4NodeEEESaIS5_EE
libopenvino.so.2420:_ZNK2ov2op26TemporaryReplaceOutputType3getEv
libopenvino.so.2420:_ZNK2ov2op2v010ROIPooling14get_output_roiEv
libopenvino.so.2420:_ZNK2ov2op2v010ROIPooling21clone_with_new_inputsERKSt6vectorINS_6OutputINS_4NodeEEESaIS6_EE
libopenvino.so.2420:_ZNK2ov2op2v010RegionYolo21clone_with_new_inputsERKSt6vectorINS_6OutputINS_4NodeEEESaIS6_EE
libopenvino.so.2420:_ZNK2ov2op2v011HardSigmoid21clone_with_new_inputsERKSt6vectorINS_6OutputINS_4NodeEEESaIS6_EE
libopenvino.so.2420:_ZNK2ov2op2v011Interpolate21clone_with_new_inputsERKSt6vectorINS_6OutputINS_4NodeEEESaIS6_EE
libopenvino.so.2420:_ZNK2ov2op2v011NormalizeL218get_reduction_axesEv
libopenvino.so.2420:_ZNK2ov2op2v011NormalizeL221clone_with_new_inputsERKSt6vectorINS_6OutputINS_4NodeEEESaIS6_EE
libopenvino.so.2420:_ZNK2ov2op2v012DepthToSpace12has_evaluateEv
libopenvino.so.2420:_ZNK2ov2op2v012DepthToSpace21clone_with_new_inputsERKSt6vectorINS_6OutputINS_4NodeEEESaIS6_EE
libopenvino.so.2420:_ZNK2ov2op2v012DepthToSpace8evaluateERSt6vectorINS_6TensorESaIS4_EERKS6_
libopenvino.so.2420:_ZNK2ov2op2v012FakeQuantize12has_evaluateEv
libopenvino.so.2420:_ZNK2ov2op2v012FakeQuantize21clone_with_new_inputsERKSt6vectorINS_6OutputINS_4NodeEEESaIS6_EE
libopenvino.so.2420:_ZNK2ov2op2v012FakeQuantize8evaluateERSt6vectorINS_6TensorESaIS4_EERKS6_
libopenvino.so.2420:_ZNK2ov2op2v012LSTMSequence21clone_with_new_inputsERKSt6vectorINS_6OutputINS_4NodeEEESaIS6_EE
libopenvino.so.2420:_ZNK2ov2op2v012PSROIPooling21clone_with_new_inputsERKSt6vectorINS_6OutputINS_4NodeEEESaIS6_EE
libopenvino.so.2420:_ZNK2ov2op2v012SpaceToDepth12has_evaluateEv
libopenvino.so.2420:_ZNK2ov2op2v012SpaceToDepth21clone_with_new_inputsERKSt6vectorINS_6OutputINS_4NodeEEESaIS6_EE
libopenvino.so.2420:_ZNK2ov2op2v012SpaceToDepth8evaluateERSt6vectorINS_6TensorESaIS4_EERKS6_
libopenvino.so.2420:_ZNK2ov2op2v014TensorIterator21clone_with_new_inputsERKSt6vectorINS_6OutputINS_4NodeEEESaIS6_EE
libopenvino.so.2420:_ZNK2ov2op2v015DetectionOutput21clone_with_new_inputsERKSt6vectorINS_6OutputINS_4NodeEEESaIS6_EE
libopenvino.so.2420:_ZNK2ov2op2v015ReverseSequence14get_batch_axisEv
libopenvino.so.2420:_ZNK2ov2op2v015ReverseSequence21clone_with_new_inputsERKSt6vectorINS_6OutputINS_4NodeEEESaIS6_EE
libopenvino.so.2420:_ZNK2ov2op2v015ShuffleChannels12has_evaluateEv
libopenvino.so.2420:_ZNK2ov2op2v015ShuffleChannels19get_zero_based_axisEv
libopenvino.so.2420:_ZNK2ov2op2v015ShuffleChannels21clone_with_new_inputsERKSt6vectorINS_6OutputINS_4NodeEEESaIS6_EE
libopenvino.so.2420:_ZNK2ov2op2v015ShuffleChannels8evaluateERSt6vectorINS_6TensorESaIS4_EERKS6_
libopenvino.so.2420:_ZNK2ov2op2v016CTCGreedyDecoder21clone_with_new_inputsERKSt6vectorINS_6OutputINS_4NodeEEESaIS6_EE
libopenvino.so.2420:_ZNK2ov2op2v017PriorBoxClustered12has_evaluateEv
libopenvino.so.2420:_ZNK2ov2op2v017PriorBoxClustered21clone_with_new_inputsERKSt6vectorINS_6OutputINS_4NodeEEESaIS6_EE
libopenvino.so.2420:_ZNK2ov2op2v017PriorBoxClustered8evaluateERSt6vectorINS_6TensorESaIS4_EERKS6_
libopenvino.so.2420:_ZNK2ov2op2v017SquaredDifference12has_evaluateEv
libopenvino.so.2420:_ZNK2ov2op2v017SquaredDifference21clone_with_new_inputsERKSt6vectorINS_6OutputINS_4NodeEEESaIS6_EE
libopenvino.so.2420:_ZNK2ov2op2v017SquaredDifference8evaluateERSt6vectorINS_6TensorESaIS4_EERKS6_
libopenvino.so.2420:_ZNK2ov2op2v018BatchNormInference21clone_with_new_inputsERKSt6vectorINS_6OutputINS_4NodeEEESaIS6_EE
libopenvino.so.2420:_ZNK2ov2op2v03Abs12has_evaluateEv
libopenvino.so.2420:_ZNK2ov2op2v03Abs14evaluate_lowerERSt6vectorINS_6TensorESaIS4_EE
libopenvino.so.2420:_ZNK2ov2op2v03Abs14evaluate_upperERSt6vectorINS_6TensorESaIS4_EE
libopenvino.so.2420:_ZNK2ov2op2v03Abs15evaluate_symbolERSt6vectorIS3_ISt10shared_ptrINS_6SymbolEESaIS6_EESaIS8_EE
libopenvino.so.2420:_ZNK2ov2op2v03Abs21clone_with_new_inputsERKSt6vectorINS_6OutputINS_4NodeEEESaIS6_EE
libopenvino.so.2420:_ZNK2ov2op2v03Abs8evaluateERSt6vectorINS_6TensorESaIS4_EERKS6_
libopenvino.so.2420:_ZNK2ov2op2v03Cos12has_evaluateEv
libopenvino.so.2420:_ZNK2ov2op2v03Cos21clone_with_new_inputsERKSt6vectorINS_6OutputINS_4NodeEEESaIS6_EE
libopenvino.so.2420:_ZNK2ov2op2v03Cos8evaluateERSt6vectorINS_6TensorESaIS4_EERKS6_
libopenvino.so.2420:_ZNK2ov2op2v03Elu21clone_with_new_inputsERKSt6vectorINS_6OutputINS_4NodeEEESaIS6_EE
libopenvino.so.2420:_ZNK2ov2op2v03Erf12has_evaluateEv
libopenvino.so.2420:_ZNK2ov2op2v03Erf21clone_with_new_inputsERKSt6vectorINS_6OutputINS_4NodeEEESaIS6_EE
libopenvino.so.2420:_ZNK2ov2op2v03Erf8evaluateERSt6vectorINS_6TensorESaIS4_EERKS6_
libopenvino.so.2420:_ZNK2ov2op2v03Exp12has_evaluateEv
libopenvino.so.2420:_ZNK2ov2op2v03Exp21clone_with_new_inputsERKSt6vectorINS_6OutputINS_4NodeEEESaIS6_EE
libopenvino.so.2420:_ZNK2ov2op2v03Exp8evaluateERSt6vectorINS_6TensorESaIS4_EERKS6_
libopenvino.so.2420:_ZNK2ov2op2v03GRN21clone_with_new_inputsERKSt6vectorINS_6OutputINS_4NodeEEESaIS6_EE
libopenvino.so.2420:_ZNK2ov2op2v03LRN18get_reduction_axesEv
libopenvino.so.2420:_ZNK2ov2op2v03LRN21clone_with_new_inputsERKSt6vectorINS_6OutputINS_4NodeEEESaIS6_EE
libopenvino.so.2420:_ZNK2ov2op2v03Log12has_evaluateEv
libopenvino.so.2420:_ZNK2ov2op2v03Log21clone_with_new_inputsERKSt6vectorINS_6OutputINS_4NodeEEESaIS6_EE
libopenvino.so.2420:_ZNK2ov2op2v03Log8evaluateERSt6vectorINS_6TensorESaIS4_EERKS6_
libopenvino.so.2420:_ZNK2ov2op2v03MVN21clone_with_new_inputsERKSt6vectorINS_6OutputINS_4NodeEEESaIS6_EE
libopenvino.so.2420:_ZNK2ov2op2v03Sin12has_evaluateEv
libopenvino.so.2420:_ZNK2ov2op2v03Sin21clone_with_new_inputsERKSt6vectorINS_6OutputINS_4NodeEEESaIS6_EE
libopenvino.so.2420:_ZNK2ov2op2v03Sin8evaluateERSt6vectorINS_6TensorESaIS4_EERKS6_
libopenvino.so.2420:_ZNK2ov2op2v03Tan12has_evaluateEv
libopenvino.so.2420:_ZNK2ov2op2v03Tan21clone_with_new_inputsERKSt6vectorINS_6OutputINS_4NodeEEESaIS6_EE
libopenvino.so.2420:_ZNK2ov2op2v03Tan8evaluateERSt6vectorINS_6TensorESaIS4_EERKS6_
libopenvino.so.2420:_ZNK2ov2op2v03Xor12has_evaluateEv
libopenvino.so.2420:_ZNK2ov2op2v03Xor21clone_with_new_inputsERKSt6vectorINS_6OutputINS_4NodeEEESaIS6_EE
libopenvino.so.2420:_ZNK2ov2op2v03Xor8evaluateERSt6vectorINS_6TensorESaIS4_EERKS6_
libopenvino.so.2420:_ZNK2ov2op2v04Acos12has_evaluateEv
libopenvino.so.2420:_ZNK2ov2op2v04Acos21clone_with_new_inputsERKSt6vectorINS_6OutputINS_4NodeEEESaIS6_EE
libopenvino.so.2420:_ZNK2ov2op2v04Acos8evaluateERSt6vectorINS_6TensorESaIS4_EERKS6_
libopenvino.so.2420:_ZNK2ov2op2v04Asin12has_evaluateEv
libopenvino.so.2420:_ZNK2ov2op2v04Asin21clone_with_new_inputsERKSt6vectorINS_6OutputINS_4NodeEEESaIS6_EE
libopenvino.so.2420:_ZNK2ov2op2v04Asin8evaluateERSt6vectorINS_6TensorESaIS4_EERKS6_
libopenvino.so.2420:_ZNK2ov2op2v04Atan12has_evaluateEv
libopenvino.so.2420:_ZNK2ov2op2v04Atan21clone_with_new_inputsERKSt6vectorINS_6OutputINS_4NodeEEESaIS6_EE
libopenvino.so.2420:_ZNK2ov2op2v04Atan8evaluateERSt6vectorINS_6TensorESaIS4_EERKS6_
libopenvino.so.2420:_ZNK2ov2op2v04Cosh12has_evaluateEv
libopenvino.so.2420:_ZNK2ov2op2v04Cosh21clone_with_new_inputsERKSt6vectorINS_6OutputINS_4NodeEEESaIS6_EE
libopenvino.so.2420:_ZNK2ov2op2v04Cosh8evaluateERSt6vectorINS_6TensorESaIS4_EERKS6_
libopenvino.so.2420:_ZNK2ov2op2v04Gelu21clone_with_new_inputsERKSt6vectorINS_6OutputINS_4NodeEEESaIS6_EE
libopenvino.so.2420:_ZNK2ov2op2v04Relu12has_evaluateEv
libopenvino.so.2420:_ZNK2ov2op2v04Relu21clone_with_new_inputsERKSt6vectorINS_6OutputINS_4NodeEEESaIS6_EE
libopenvino.so.2420:_ZNK2ov2op2v04Relu8evaluateERSt6vectorINS_6TensorESaIS4_EERKS6_
libopenvino.so.2420:_ZNK2ov2op2v04Selu21clone_with_new_inputsERKSt6vectorINS_6OutputINS_4NodeEEESaIS6_EE
libopenvino.so.2420:_ZNK2ov2op2v04Sign12has_evaluateEv
libopenvino.so.2420:_ZNK2ov2op2v04Sign21clone_with_new_inputsERKSt6vectorINS_6OutputINS_4NodeEEESaIS6_EE
libopenvino.so.2420:_ZNK2ov2op2v04Sign8evaluateERSt6vectorINS_6TensorESaIS4_EERKS6_
libopenvino.so.2420:_ZNK2ov2op2v04Sinh12has_evaluateEv
libopenvino.so.2420:_ZNK2ov2op2v04Sinh21clone_with_new_inputsERKSt6vectorINS_6OutputINS_4NodeEEESaIS6_EE
libopenvino.so.2420:_ZNK2ov2op2v04Sinh8evaluateERSt6vectorINS_6TensorESaIS4_EERKS6_
libopenvino.so.2420:_ZNK2ov2op2v04Sqrt12has_evaluateEv
libopenvino.so.2420:_ZNK2ov2op2v04Sqrt21clone_with_new_inputsERKSt6vectorINS_6OutputINS_4NodeEEESaIS6_EE
libopenvino.so.2420:_ZNK2ov2op2v04Sqrt8evaluateERSt6vectorINS_6TensorESaIS4_EERKS6_
libopenvino.so.2420:_ZNK2ov2op2v04Tanh12has_evaluateEv
libopenvino.so.2420:_ZNK2ov2op2v04Tanh21clone_with_new_inputsERKSt6vectorINS_6OutputINS_4NodeEEESaIS6_EE
libopenvino.so.2420:_ZNK2ov2op2v04Tanh8evaluateERSt6vectorINS_6TensorESaIS4_EERKS6_
libopenvino.so.2420:_ZNK2ov2op2v04Tile12has_evaluateEv
libopenvino.so.2420:_ZNK2ov2op2v04Tile14evaluate_lowerERSt6vectorINS_6TensorESaIS4_EE
libopenvino.so.2420:_ZNK2ov2op2v04Tile14evaluate_upperERSt6vectorINS_6TensorESaIS4_EE
libopenvino.so.2420:_ZNK2ov2op2v04Tile15evaluate_symbolERSt6vectorIS3_ISt10shared_ptrINS_6SymbolEESaIS6_EESaIS8_EE
libopenvino.so.2420:_ZNK2ov2op2v04Tile21clone_with_new_inputsERKSt6vectorINS_6OutputINS_4NodeEEESaIS6_EE
libopenvino.so.2420:_ZNK2ov2op2v04Tile8evaluateERSt6vectorINS_6TensorESaIS4_EERKS6_
libopenvino.so.2420:_ZNK2ov2op2v05Clamp12has_evaluateEv
libopenvino.so.2420:_ZNK2ov2op2v05Clamp14evaluate_lowerERSt6vectorINS_6TensorESaIS4_EE
libopenvino.so.2420:_ZNK2ov2op2v05Clamp14evaluate_upperERSt6vectorINS_6TensorESaIS4_EE
libopenvino.so.2420:_ZNK2ov2op2v05Clamp21clone_with_new_inputsERKSt6vectorINS_6OutputINS_4NodeEEESaIS6_EE
libopenvino.so.2420:_ZNK2ov2op2v05Clamp8evaluateERSt6vectorINS_6TensorESaIS4_EERKS6_
libopenvino.so.2420:_ZNK2ov2op2v05Floor12has_evaluateEv
libopenvino.so.2420:_ZNK2ov2op2v05Floor21clone_with_new_inputsERKSt6vectorINS_6OutputINS_4NodeEEESaIS6_EE
libopenvino.so.2420:_ZNK2ov2op2v05Floor8evaluateERSt6vectorINS_6TensorESaIS4_EERKS6_
libopenvino.so.2420:_ZNK2ov2op2v05PRelu12has_evaluateEv
libopenvino.so.2420:_ZNK2ov2op2v05PRelu21clone_with_new_inputsERKSt6vectorINS_6OutputINS_4NodeEEESaIS6_EE
libopenvino.so.2420:_ZNK2ov2op2v05PRelu8evaluateERSt6vectorINS_6TensorESaIS4_EERKS6_
libopenvino.so.2420:_ZNK2ov2op2v05Range12has_evaluateEv
libopenvino.so.2420:_ZNK2ov2op2v05Range21clone_with_new_inputsERKSt6vectorINS_6OutputINS_4NodeEEESaIS6_EE
libopenvino.so.2420:_ZNK2ov2op2v05Range8evaluateERSt6vectorINS_6TensorESaIS4_EERKS6_
libopenvino.so.2420:_ZNK2ov2op2v06Concat12has_evaluateEv
libopenvino.so.2420:_ZNK2ov2op2v06Concat14evaluate_lowerERSt6vectorINS_6TensorESaIS4_EE
libopenvino.so.2420:_ZNK2ov2op2v06Concat14evaluate_upperERSt6vectorINS_6TensorESaIS4_EE
libopenvino.so.2420:_ZNK2ov2op2v06Concat15evaluate_symbolERSt6vectorIS3_ISt10shared_ptrINS_6SymbolEESaIS6_EESaIS8_EE
libopenvino.so.2420:_ZNK2ov2op2v06Concat21clone_with_new_inputsERKSt6vectorINS_6OutputINS_4NodeEEESaIS6_EE
libopenvino.so.2420:_ZNK2ov2op2v06Concat8evaluateERSt6vectorINS_6TensorESaIS4_EERKS6_
libopenvino.so.2420:_ZNK2ov2op2v06CumSum12has_evaluateEv
libopenvino.so.2420:_ZNK2ov2op2v06CumSum21clone_with_new_inputsERKSt6vectorINS_6OutputINS_4NodeEEESaIS6_EE
libopenvino.so.2420:_ZNK2ov2op2v06CumSum8evaluateERSt6vectorINS_6TensorESaIS4_EERKS6_
libopenvino.so.2420:_ZNK2ov2op2v06MatMul12has_evaluateEv
libopenvino.so.2420:_ZNK2ov2op2v06MatMul21clone_with_new_inputsERKSt6vectorINS_6OutputINS_4NodeEEESaIS6_EE
libopenvino.so.2420:_ZNK2ov2op2v06MatMul8evaluateERSt6vectorINS_6TensorESaIS4_EERKS6_
libopenvino.so.2420:_ZNK2ov2op2v06Result10get_layoutEv
libopenvino.so.2420:_ZNK2ov2op2v06Result12has_evaluateEv
libopenvino.so.2420:_ZNK2ov2op2v06Result21clone_with_new_inputsERKSt6vectorINS_6OutputINS_4NodeEEESaIS6_EE
libopenvino.so.2420:_ZNK2ov2op2v06Result8evaluateERSt6vectorINS_6TensorESaIS4_EERKS6_
libopenvino.so.2420:_ZNK2ov2op2v07Ceiling12has_evaluateEv
libopenvino.so.2420:_ZNK2ov2op2v07Ceiling21clone_with_new_inputsERKSt6vectorINS_6OutputINS_4NodeEEESaIS6_EE
libopenvino.so.2420:_ZNK2ov2op2v07Ceiling8evaluateERSt6vectorINS_6TensorESaIS4_EERKS6_
libopenvino.so.2420:_ZNK2ov2op2v07Convert12has_evaluateEv
libopenvino.so.2420:_ZNK2ov2op2v07Convert14evaluate_lowerERSt6vectorINS_6TensorESaIS4_EE
libopenvino.so.2420:_ZNK2ov2op2v07Convert14evaluate_upperERSt6vectorINS_6TensorESaIS4_EE
libopenvino.so.2420:_ZNK2ov2op2v07Convert15evaluate_symbolERSt6vectorIS3_ISt10shared_ptrINS_6SymbolEESaIS6_EESaIS8_EE
libopenvino.so.2420:_ZNK2ov2op2v07Convert21clone_with_new_inputsERKSt6vectorINS_6OutputINS_4NodeEEESaIS6_EE
libopenvino.so.2420:_ZNK2ov2op2v07Convert8evaluateERSt6vectorINS_6TensorESaIS4_EERKS6_
libopenvino.so.2420:_ZNK2ov2op2v07RNNCell21clone_with_new_inputsERKSt6vectorINS_6OutputINS_4NodeEEESaIS6_EE
libopenvino.so.2420:_ZNK2ov2op2v07RNNCell22get_default_bias_inputEv
libopenvino.so.2420:_ZNK2ov2op2v07ShapeOf12has_evaluateEv
libopenvino.so.2420:_ZNK2ov2op2v07ShapeOf14evaluate_lowerERSt6vectorINS_6TensorESaIS4_EE
libopenvino.so.2420:_ZNK2ov2op2v07ShapeOf14evaluate_upperERSt6vectorINS_6TensorESaIS4_EE
libopenvino.so.2420:_ZNK2ov2op2v07ShapeOf15evaluate_symbolERSt6vectorIS3_ISt10shared_ptrINS_6SymbolEESaIS6_EESaIS8_EE
libopenvino.so.2420:_ZNK2ov2op2v07ShapeOf21clone_with_new_inputsERKSt6vectorINS_6OutputINS_4NodeEEESaIS6_EE
libopenvino.so.2420:_ZNK2ov2op2v07ShapeOf8evaluateERSt6vectorINS_6TensorESaIS4_EERKS6_
libopenvino.so.2420:_ZNK2ov2op2v07Sigmoid12has_evaluateEv
libopenvino.so.2420:_ZNK2ov2op2v07Sigmoid21clone_with_new_inputsERKSt6vectorINS_6OutputINS_4NodeEEESaIS6_EE
libopenvino.so.2420:_ZNK2ov2op2v07Sigmoid8evaluateERSt6vectorINS_6TensorESaIS4_EERKS6_
libopenvino.so.2420:_ZNK2ov2op2v07Squeeze10is_dynamicEv
libopenvino.so.2420:_ZNK2ov2op2v07Squeeze12has_evaluateEv
libopenvino.so.2420:_ZNK2ov2op2v07Squeeze14evaluate_lowerERSt6vectorINS_6TensorESaIS4_EE
libopenvino.so.2420:_ZNK2ov2op2v07Squeeze14evaluate_upperERSt6vectorINS_6TensorESaIS4_EE
libopenvino.so.2420:_ZNK2ov2op2v07Squeeze15evaluate_symbolERSt6vectorIS3_ISt10shared_ptrINS_6SymbolEESaIS6_EESaIS8_EE
libopenvino.so.2420:_ZNK2ov2op2v07Squeeze21clone_with_new_inputsERKSt6vectorINS_6OutputINS_4NodeEEESaIS6_EE
libopenvino.so.2420:_ZNK2ov2op2v07Squeeze8evaluateERSt6vectorINS_6TensorESaIS4_EERKS6_
libopenvino.so.2420:_ZNK2ov2op2v08Constant12get_data_ptrEv
libopenvino.so.2420:_ZNK2ov2op2v08Constant12has_evaluateEv
libopenvino.so.2420:_ZNK2ov2op2v08Constant13get_byte_sizeEv
libopenvino.so.2420:_ZNK2ov2op2v08Constant13get_shape_valEv
libopenvino.so.2420:_ZNK2ov2op2v08Constant14cast_lp_vectorILNS_7element6Type_tE12ENS_7float16EEEvRSt6vectorIT0_SaIS8_EEm
libopenvino.so.2420:_ZNK2ov2op2v08Constant14cast_lp_vectorILNS_7element6Type_tE12ENS_8bfloat16EEEvRSt6vectorIT0_SaIS8_EEm
libopenvino.so.2420:_ZNK2ov2op2v08Constant14cast_lp_vectorILNS_7element6Type_tE12EaEEvRSt6vectorIT0_SaIS7_EEm
libopenvino.so.2420:_ZNK2ov2op2v08Constant14cast_lp_vectorILNS_7element6Type_tE12EbEEvRSt6vectorIT0_SaIS7_EEm
libopenvino.so.2420:_ZNK2ov2op2v08Constant14cast_lp_vectorILNS_7element6Type_tE12EcEEvRSt6vectorIT0_SaIS7_EEm
libopenvino.so.2420:_ZNK2ov2op2v08Constant14cast_lp_vectorILNS_7element6Type_tE12EdEEvRSt6vectorIT0_SaIS7_EEm
libopenvino.so.2420:_ZNK2ov2op2v08Constant14cast_lp_vectorILNS_7element6Type_tE12EfEEvRSt6vectorIT0_SaIS7_EEm
libopenvino.so.2420:_ZNK2ov2op2v08Constant14cast_lp_vectorILNS_7element6Type_tE12EhEEvRSt6vectorIT0_SaIS7_EEm
libopenvino.so.2420:_ZNK2ov2op2v08Constant14cast_lp_vectorILNS_7element6Type_tE12EiEEvRSt6vectorIT0_SaIS7_EEm
libopenvino.so.2420:_ZNK2ov2op2v08Constant14cast_lp_vectorILNS_7element6Type_tE12EjEEvRSt6vectorIT0_SaIS7_EEm
libopenvino.so.2420:_ZNK2ov2op2v08Constant14cast_lp_vectorILNS_7element6Type_tE12ElEEvRSt6vectorIT0_SaIS7_EEm
libopenvino.so.2420:_ZNK2ov2op2v08Constant14cast_lp_vectorILNS_7element6Type_tE12EmEEvRSt6vectorIT0_SaIS7_EEm
libopenvino.so.2420:_ZNK2ov2op2v08Constant14cast_lp_vectorILNS_7element6Type_tE12EsEEvRSt6vectorIT0_SaIS7_EEm
libopenvino.so.2420:_ZNK2ov2op2v08Constant14cast_lp_vectorILNS_7element6Type_tE12EtEEvRSt6vectorIT0_SaIS7_EEm
libopenvino.so.2420:_ZNK2ov2op2v08Constant14cast_lp_vectorILNS_7element6Type_tE12ExEEvRSt6vectorIT0_SaIS7_EEm
libopenvino.so.2420:_ZNK2ov2op2v08Constant14cast_lp_vectorILNS_7element6Type_tE12EyEEvRSt6vectorIT0_SaIS7_EEm
libopenvino.so.2420:_ZNK2ov2op2v08Constant14cast_lp_vectorILNS_7element6Type_tE13ENS_7float16EEEvRSt6vectorIT0_SaIS8_EEm
libopenvino.so.2420:_ZNK2ov2op2v08Constant14cast_lp_vectorILNS_7element6Type_tE13ENS_8bfloat16EEEvRSt6vectorIT0_SaIS8_EEm
libopenvino.so.2420:_ZNK2ov2op2v08Constant14cast_lp_vectorILNS_7element6Type_tE13EaEEvRSt6vectorIT0_SaIS7_EEm
libopenvino.so.2420:_ZNK2ov2op2v08Constant14cast_lp_vectorILNS_7element6Type_tE13EbEEvRSt6vectorIT0_SaIS7_EEm
libopenvino.so.2420:_ZNK2ov2op2v08Constant14cast_lp_vectorILNS_7element6Type_tE13EcEEvRSt6vectorIT0_SaIS7_EEm
libopenvino.so.2420:_ZNK2ov2op2v08Constant14cast_lp_vectorILNS_7element6Type_tE13EdEEvRSt6vectorIT0_SaIS7_EEm
libopenvino.so.2420:_ZNK2ov2op2v08Constant14cast_lp_vectorILNS_7element6Type_tE13EfEEvRSt6vectorIT0_SaIS7_EEm
libopenvino.so.2420:_ZNK2ov2op2v08Constant14cast_lp_vectorILNS_7element6Type_tE13EhEEvRSt6vectorIT0_SaIS7_EEm
libopenvino.so.2420:_ZNK2ov2op2v08Constant14cast_lp_vectorILNS_7element6Type_tE13EiEEvRSt6vectorIT0_SaIS7_EEm
libopenvino.so.2420:_ZNK2ov2op2v08Constant14cast_lp_vectorILNS_7element6Type_tE13EjEEvRSt6vectorIT0_SaIS7_EEm
libopenvino.so.2420:_ZNK2ov2op2v08Constant14cast_lp_vectorILNS_7element6Type_tE13ElEEvRSt6vectorIT0_SaIS7_EEm
libopenvino.so.2420:_ZNK2ov2op2v08Constant14cast_lp_vectorILNS_7element6Type_tE13EmEEvRSt6vectorIT0_SaIS7_EEm
libopenvino.so.2420:_ZNK2ov2op2v08Constant14cast_lp_vectorILNS_7element6Type_tE13EsEEvRSt6vectorIT0_SaIS7_EEm
libopenvino.so.2420:_ZNK2ov2op2v08Constant14cast_lp_vectorILNS_7element6Type_tE13EtEEvRSt6vectorIT0_SaIS7_EEm
libopenvino.so.2420:_ZNK2ov2op2v08Constant14cast_lp_vectorILNS_7element6Type_tE13ExEEvRSt6vectorIT0_SaIS7_EEm
libopenvino.so.2420:_ZNK2ov2op2v08Constant14cast_lp_vectorILNS_7element6Type_tE13EyEEvRSt6vectorIT0_SaIS7_EEm
libopenvino.so.2420:_ZNK2ov2op2v08Constant14cast_lp_vectorILNS_7element6Type_tE14ENS_7float16EEEvRSt6vectorIT0_SaIS8_EEm
libopenvino.so.2420:_ZNK2ov2op2v08Constant14cast_lp_vectorILNS_7element6Type_tE14ENS_8bfloat16EEEvRSt6vectorIT0_SaIS8_EEm
libopenvino.so.2420:_ZNK2ov2op2v08Constant14cast_lp_vectorILNS_7element6Type_tE14EaEEvRSt6vectorIT0_SaIS7_EEm
libopenvino.so.2420:_ZNK2ov2op2v08Constant14cast_lp_vectorILNS_7element6Type_tE14EbEEvRSt6vectorIT0_SaIS7_EEm
libopenvino.so.2420:_ZNK2ov2op2v08Constant14cast_lp_vectorILNS_7element6Type_tE14EcEEvRSt6vectorIT0_SaIS7_EEm
libopenvino.so.2420:_ZNK2ov2op2v08Constant14cast_lp_vectorILNS_7element6Type_tE14EdEEvRSt6vectorIT0_SaIS7_EEm
libopenvino.so.2420:_ZNK2ov2op2v08Constant14cast_lp_vectorILNS_7element6Type_tE14EfEEvRSt6vectorIT0_SaIS7_EEm
libopenvino.so.2420:_ZNK2ov2op2v08Constant14cast_lp_vectorILNS_7element6Type_tE14EhEEvRSt6vectorIT0_SaIS7_EEm
libopenvino.so.2420:_ZNK2ov2op2v08Constant14cast_lp_vectorILNS_7element6Type_tE14EiEEvRSt6vectorIT0_SaIS7_EEm
libopenvino.so.2420:_ZNK2ov2op2v08Constant14cast_lp_vectorILNS_7element6Type_tE14EjEEvRSt6vectorIT0_SaIS7_EEm
libopenvino.so.2420:_ZNK2ov2op2v08Constant14cast_lp_vectorILNS_7element6Type_tE14ElEEvRSt6vectorIT0_SaIS7_EEm
libopenvino.so.2420:_ZNK2ov2op2v08Constant14cast_lp_vectorILNS_7element6Type_tE14EmEEvRSt6vectorIT0_SaIS7_EEm
libopenvino.so.2420:_ZNK2ov2op2v08Constant14cast_lp_vectorILNS_7element6Type_tE14EsEEvRSt6vectorIT0_SaIS7_EEm
libopenvino.so.2420:_ZNK2ov2op2v08Constant14cast_lp_vectorILNS_7element6Type_tE14EtEEvRSt6vectorIT0_SaIS7_EEm
libopenvino.so.2420:_ZNK2ov2op2v08Constant14cast_lp_vectorILNS_7element6Type_tE14ExEEvRSt6vectorIT0_SaIS7_EEm
libopenvino.so.2420:_ZNK2ov2op2v08Constant14cast_lp_vectorILNS_7element6Type_tE14EyEEvRSt6vectorIT0_SaIS7_EEm
libopenvino.so.2420:_ZNK2ov2op2v08Constant14cast_lp_vectorILNS_7element6Type_tE15ENS_7float16EEEvRSt6vectorIT0_SaIS8_EEm
libopenvino.so.2420:_ZNK2ov2op2v08Constant14cast_lp_vectorILNS_7element6Type_tE15ENS_8bfloat16EEEvRSt6vectorIT0_SaIS8_EEm
libopenvino.so.2420:_ZNK2ov2op2v08Constant14cast_lp_vectorILNS_7element6Type_tE15EaEEvRSt6vectorIT0_SaIS7_EEm
libopenvino.so.2420:_ZNK2ov2op2v08Constant14cast_lp_vectorILNS_7element6Type_tE15EbEEvRSt6vectorIT0_SaIS7_EEm
libopenvino.so.2420:_ZNK2ov2op2v08Constant14cast_lp_vectorILNS_7element6Type_tE15EcEEvRSt6vectorIT0_SaIS7_EEm
libopenvino.so.2420:_ZNK2ov2op2v08Constant14cast_lp_vectorILNS_7element6Type_tE15EdEEvRSt6vectorIT0_SaIS7_EEm
libopenvino.so.2420:_ZNK2ov2op2v08Constant14cast_lp_vectorILNS_7element6Type_tE15EfEEvRSt6vectorIT0_SaIS7_EEm
libopenvino.so.2420:_ZNK2ov2op2v08Constant14cast_lp_vectorILNS_7element6Type_tE15EhEEvRSt6vectorIT0_SaIS7_EEm
libopenvino.so.2420:_ZNK2ov2op2v08Constant14cast_lp_vectorILNS_7element6Type_tE15EiEEvRSt6vectorIT0_SaIS7_EEm
libopenvino.so.2420:_ZNK2ov2op2v08Constant14cast_lp_vectorILNS_7element6Type_tE15EjEEvRSt6vectorIT0_SaIS7_EEm
libopenvino.so.2420:_ZNK2ov2op2v08Constant14cast_lp_vectorILNS_7element6Type_tE15ElEEvRSt6vectorIT0_SaIS7_EEm
libopenvino.so.2420:_ZNK2ov2op2v08Constant14cast_lp_vectorILNS_7element6Type_tE15EmEEvRSt6vectorIT0_SaIS7_EEm
libopenvino.so.2420:_ZNK2ov2op2v08Constant14cast_lp_vectorILNS_7element6Type_tE15EsEEvRSt6vectorIT0_SaIS7_EEm
libopenvino.so.2420:_ZNK2ov2op2v08Constant14cast_lp_vectorILNS_7element6Type_tE15EtEEvRSt6vectorIT0_SaIS7_EEm
libopenvino.so.2420:_ZNK2ov2op2v08Constant14cast_lp_vectorILNS_7element6Type_tE15ExEEvRSt6vectorIT0_SaIS7_EEm
libopenvino.so.2420:_ZNK2ov2op2v08Constant14cast_lp_vectorILNS_7element6Type_tE15EyEEvRSt6vectorIT0_SaIS7_EEm
libopenvino.so.2420:_ZNK2ov2op2v08Constant14cast_lp_vectorILNS_7element6Type_tE16ENS_7float16EEEvRSt6vectorIT0_SaIS8_EEm
libopenvino.so.2420:_ZNK2ov2op2v08Constant14cast_lp_vectorILNS_7element6Type_tE16ENS_8bfloat16EEEvRSt6vectorIT0_SaIS8_EEm
libopenvino.so.2420:_ZNK2ov2op2v08Constant14cast_lp_vectorILNS_7element6Type_tE16EaEEvRSt6vectorIT0_SaIS7_EEm
libopenvino.so.2420:_ZNK2ov2op2v08Constant14cast_lp_vectorILNS_7element6Type_tE16EbEEvRSt6vectorIT0_SaIS7_EEm
libopenvino.so.2420:_ZNK2ov2op2v08Constant14cast_lp_vectorILNS_7element6Type_tE16EcEEvRSt6vectorIT0_SaIS7_EEm
libopenvino.so.2420:_ZNK2ov2op2v08Constant14cast_lp_vectorILNS_7element6Type_tE16EdEEvRSt6vectorIT0_SaIS7_EEm
libopenvino.so.2420:_ZNK2ov2op2v08Constant14cast_lp_vectorILNS_7element6Type_tE16EfEEvRSt6vectorIT0_SaIS7_EEm
libopenvino.so.2420:_ZNK2ov2op2v08Constant14cast_lp_vectorILNS_7element6Type_tE16EhEEvRSt6vectorIT0_SaIS7_EEm
libopenvino.so.2420:_ZNK2ov2op2v08Constant14cast_lp_vectorILNS_7element6Type_tE16EiEEvRSt6vectorIT0_SaIS7_EEm
libopenvino.so.2420:_ZNK2ov2op2v08Constant14cast_lp_vectorILNS_7element6Type_tE16EjEEvRSt6vectorIT0_SaIS7_EEm
libopenvino.so.2420:_ZNK2ov2op2v08Constant14cast_lp_vectorILNS_7element6Type_tE16ElEEvRSt6vectorIT0_SaIS7_EEm
libopenvino.so.2420:_ZNK2ov2op2v08Constant14cast_lp_vectorILNS_7element6Type_tE16EmEEvRSt6vectorIT0_SaIS7_EEm
libopenvino.so.2420:_ZNK2ov2op2v08Constant14cast_lp_vectorILNS_7element6Type_tE16EsEEvRSt6vectorIT0_SaIS7_EEm
libopenvino.so.2420:_ZNK2ov2op2v08Constant14cast_lp_vectorILNS_7element6Type_tE16EtEEvRSt6vectorIT0_SaIS7_EEm
libopenvino.so.2420:_ZNK2ov2op2v08Constant14cast_lp_vectorILNS_7element6Type_tE16ExEEvRSt6vectorIT0_SaIS7_EEm
libopenvino.so.2420:_ZNK2ov2op2v08Constant14cast_lp_vectorILNS_7element6Type_tE16EyEEvRSt6vectorIT0_SaIS7_EEm
libopenvino.so.2420:_ZNK2ov2op2v08Constant14cast_lp_vectorILNS_7element6Type_tE7ENS_7float16EEEvRSt6vectorIT0_SaIS8_EEm
libopenvino.so.2420:_ZNK2ov2op2v08Constant14cast_lp_vectorILNS_7element6Type_tE7ENS_8bfloat16EEEvRSt6vectorIT0_SaIS8_EEm
libopenvino.so.2420:_ZNK2ov2op2v08Constant14cast_lp_vectorILNS_7element6Type_tE7EaEEvRSt6vectorIT0_SaIS7_EEm
libopenvino.so.2420:_ZNK2ov2op2v08Constant14cast_lp_vectorILNS_7element6Type_tE7EbEEvRSt6vectorIT0_SaIS7_EEm
libopenvino.so.2420:_ZNK2ov2op2v08Constant14cast_lp_vectorILNS_7element6Type_tE7EcEEvRSt6vectorIT0_SaIS7_EEm
libopenvino.so.2420:_ZNK2ov2op2v08Constant14cast_lp_vectorILNS_7element6Type_tE7EdEEvRSt6vectorIT0_SaIS7_EEm
libopenvino.so.2420:_ZNK2ov2op2v08Constant14cast_lp_vectorILNS_7element6Type_tE7EfEEvRSt6vectorIT0_SaIS7_EEm
libopenvino.so.2420:_ZNK2ov2op2v08Constant14cast_lp_vectorILNS_7element6Type_tE7EhEEvRSt6vectorIT0_SaIS7_EEm
libopenvino.so.2420:_ZNK2ov2op2v08Constant14cast_lp_vectorILNS_7element6Type_tE7EiEEvRSt6vectorIT0_SaIS7_EEm
libopenvino.so.2420:_ZNK2ov2op2v08Constant14cast_lp_vectorILNS_7element6Type_tE7EjEEvRSt6vectorIT0_SaIS7_EEm
libopenvino.so.2420:_ZNK2ov2op2v08Constant14cast_lp_vectorILNS_7element6Type_tE7ElEEvRSt6vectorIT0_SaIS7_EEm
libopenvino.so.2420:_ZNK2ov2op2v08Constant14cast_lp_vectorILNS_7element6Type_tE7EmEEvRSt6vectorIT0_SaIS7_EEm
libopenvino.so.2420:_ZNK2ov2op2v08Constant14cast_lp_vectorILNS_7element6Type_tE7EsEEvRSt6vectorIT0_SaIS7_EEm
libopenvino.so.2420:_ZNK2ov2op2v08Constant14cast_lp_vectorILNS_7element6Type_tE7EtEEvRSt6vectorIT0_SaIS7_EEm
libopenvino.so.2420:_ZNK2ov2op2v08Constant14cast_lp_vectorILNS_7element6Type_tE7ExEEvRSt6vectorIT0_SaIS7_EEm
libopenvino.so.2420:_ZNK2ov2op2v08Constant14cast_lp_vectorILNS_7element6Type_tE7EyEEvRSt6vectorIT0_SaIS7_EEm
libopenvino.so.2420:_ZNK2ov2op2v08Constant14evaluate_lowerERSt6vectorINS_6TensorESaIS4_EE
libopenvino.so.2420:_ZNK2ov2op2v08Constant14evaluate_upperERSt6vectorINS_6TensorESaIS4_EE
libopenvino.so.2420:_ZNK2ov2op2v08Constant15get_strides_valEv
libopenvino.so.2420:_ZNK2ov2op2v08Constant16get_axis_set_valEv
libopenvino.so.2420:_ZNK2ov2op2v08Constant17get_value_stringsB5cxx11Ev
libopenvino.so.2420:_ZNK2ov2op2v08Constant18get_coordinate_valEv
libopenvino.so.2420:_ZNK2ov2op2v08Constant19get_axis_vector_valEv
libopenvino.so.2420:_ZNK2ov2op2v08Constant21clone_with_new_inputsERKSt6vectorINS_6OutputINS_4NodeEEESaIS6_EE
libopenvino.so.2420:_ZNK2ov2op2v08Constant22update_identical_flagsEbb
libopenvino.so.2420:_ZNK2ov2op2v08Constant23convert_value_to_stringB5cxx11Em
libopenvino.so.2420:_ZNK2ov2op2v08Constant23get_coordinate_diff_valEv
libopenvino.so.2420:_ZNK2ov2op2v08Constant39are_all_data_elements_bitwise_identicalEv
libopenvino.so.2420:_ZNK2ov2op2v08Constant39get_all_data_elements_bitwise_identicalEv
libopenvino.so.2420:_ZNK2ov2op2v08Constant8LPBufferILNS_7element6Type_tE12EE4readEv
libopenvino.so.2420:_ZNK2ov2op2v08Constant8LPBufferILNS_7element6Type_tE13EE4readEv
libopenvino.so.2420:_ZNK2ov2op2v08Constant8LPBufferILNS_7element6Type_tE14EE4readEv
libopenvino.so.2420:_ZNK2ov2op2v08Constant8LPBufferILNS_7element6Type_tE15EE4readEv
libopenvino.so.2420:_ZNK2ov2op2v08Constant8LPBufferILNS_7element6Type_tE16EE4readEv
libopenvino.so.2420:_ZNK2ov2op2v08Constant8LPBufferILNS_7element6Type_tE21EE4readEv
libopenvino.so.2420:_ZNK2ov2op2v08Constant8LPBufferILNS_7element6Type_tE7EE4readEv
libopenvino.so.2420:_ZNK2ov2op2v08Constant8evaluateERSt6vectorINS_6TensorESaIS4_EERKS6_
libopenvino.so.2420:_ZNK2ov2op2v08LSTMCell21clone_with_new_inputsERKSt6vectorINS_6OutputINS_4NodeEEESaIS6_EE
libopenvino.so.2420:_ZNK2ov2op2v08LSTMCell22get_default_bias_inputEv
libopenvino.so.2420:_ZNK2ov2op2v08LSTMCell27get_default_peepholes_inputEv
libopenvino.so.2420:_ZNK2ov2op2v08Negative12has_evaluateEv
libopenvino.so.2420:_ZNK2ov2op2v08Negative21clone_with_new_inputsERKSt6vectorINS_6OutputINS_4NodeEEESaIS6_EE
libopenvino.so.2420:_ZNK2ov2op2v08Negative8evaluateERSt6vectorINS_6TensorESaIS4_EERKS6_
libopenvino.so.2420:_ZNK2ov2op2v08PriorBox12has_evaluateEv
libopenvino.so.2420:_ZNK2ov2op2v08PriorBox21clone_with_new_inputsERKSt6vectorINS_6OutputINS_4NodeEEESaIS6_EE
libopenvino.so.2420:_ZNK2ov2op2v08PriorBox8evaluateERSt6vectorINS_6TensorESaIS4_EERKS6_
libopenvino.so.2420:_ZNK2ov2op2v08Proposal21clone_with_new_inputsERKSt6vectorINS_6OutputINS_4NodeEEESaIS6_EE
libopenvino.so.2420:_ZNK2ov2op2v09Parameter10get_layoutEv
libopenvino.so.2420:_ZNK2ov2op2v09Parameter21clone_with_new_inputsERKSt6vectorINS_6OutputINS_4NodeEEESaIS6_EE
libopenvino.so.2420:_ZNK2ov2op2v09Parameter21is_relevant_to_shapesEv
libopenvino.so.2420:_ZNK2ov2op2v09ReorgYolo21clone_with_new_inputsERKSt6vectorINS_6OutputINS_4NodeEEESaIS6_EE
libopenvino.so.2420:_ZNK2ov2op2v09Unsqueeze12has_evaluateEv
libopenvino.so.2420:_ZNK2ov2op2v09Unsqueeze14evaluate_lowerERSt6vectorINS_6TensorESaIS4_EE
libopenvino.so.2420:_ZNK2ov2op2v09Unsqueeze14evaluate_upperERSt6vectorINS_6TensorESaIS4_EE
libopenvino.so.2420:_ZNK2ov2op2v09Unsqueeze15evaluate_symbolERSt6vectorIS3_ISt10shared_ptrINS_6SymbolEESaIS6_EESaIS8_EE
libopenvino.so.2420:_ZNK2ov2op2v09Unsqueeze21clone_with_new_inputsERKSt6vectorINS_6OutputINS_4NodeEEESaIS6_EE
libopenvino.so.2420:_ZNK2ov2op2v09Unsqueeze8evaluateERSt6vectorINS_6TensorESaIS4_EERKS6_
libopenvino.so.2420:_ZNK2ov2op2v110GatherTree21clone_with_new_inputsERKSt6vectorINS_6OutputINS_4NodeEEESaIS6_EE
libopenvino.so.2420:_ZNK2ov2op2v110LogicalAnd12has_evaluateEv
libopenvino.so.2420:_ZNK2ov2op2v110LogicalAnd21clone_with_new_inputsERKSt6vectorINS_6OutputINS_4NodeEEESaIS6_EE
libopenvino.so.2420:_ZNK2ov2op2v110LogicalAnd8evaluateERSt6vectorINS_6TensorESaIS4_EERKS6_
libopenvino.so.2420:_ZNK2ov2op2v110LogicalNot12has_evaluateEv
libopenvino.so.2420:_ZNK2ov2op2v110LogicalNot21clone_with_new_inputsERKSt6vectorINS_6OutputINS_4NodeEEESaIS6_EE
libopenvino.so.2420:_ZNK2ov2op2v110LogicalNot8evaluateERSt6vectorINS_6TensorESaIS4_EERKS6_
libopenvino.so.2420:_ZNK2ov2op2v110LogicalXor12has_evaluateEv
libopenvino.so.2420:_ZNK2ov2op2v110LogicalXor21clone_with_new_inputsERKSt6vectorINS_6OutputINS_4NodeEEESaIS6_EE
libopenvino.so.2420:_ZNK2ov2op2v110LogicalXor8evaluateERSt6vectorINS_6TensorESaIS4_EERKS6_
libopenvino.so.2420:_ZNK2ov2op2v110ReduceMean12has_evaluateEv
libopenvino.so.2420:_ZNK2ov2op2v110ReduceMean21clone_with_new_inputsERKSt6vectorINS_6OutputINS_4NodeEEESaIS6_EE
libopenvino.so.2420:_ZNK2ov2op2v110ReduceMean8evaluateERSt6vectorINS_6TensorESaIS4_EERKS6_
libopenvino.so.2420:_ZNK2ov2op2v110ReduceProd12has_evaluateEv
libopenvino.so.2420:_ZNK2ov2op2v110ReduceProd14evaluate_lowerERSt6vectorINS_6TensorESaIS4_EE
libopenvino.so.2420:_ZNK2ov2op2v110ReduceProd14evaluate_upperERSt6vectorINS_6TensorESaIS4_EE
libopenvino.so.2420:_ZNK2ov2op2v110ReduceProd21clone_with_new_inputsERKSt6vectorINS_6OutputINS_4NodeEEESaIS6_EE
libopenvino.so.2420:_ZNK2ov2op2v110ReduceProd8evaluateERSt6vectorINS_6TensorESaIS4_EERKS6_
libopenvino.so.2420:_ZNK2ov2op2v111ConvertLike21clone_with_new_inputsERKSt6vectorINS_6OutputINS_4NodeEEESaIS6_EE
libopenvino.so.2420:_ZNK2ov2op2v111Convolution21clone_with_new_inputsERKSt6vectorINS_6OutputINS_4NodeEEESaIS6_EE
libopenvino.so.2420:_ZNK2ov2op2v112BatchToSpace12has_evaluateEv
libopenvino.so.2420:_ZNK2ov2op2v112BatchToSpace21clone_with_new_inputsERKSt6vectorINS_6OutputINS_4NodeEEESaIS6_EE
libopenvino.so.2420:_ZNK2ov2op2v112BatchToSpace8evaluateERSt6vectorINS_6TensorESaIS4_EERKS6_
libopenvino.so.2420:_ZNK2ov2op2v112GreaterEqual12has_evaluateEv
libopenvino.so.2420:_ZNK2ov2op2v112GreaterEqual21clone_with_new_inputsERKSt6vectorINS_6OutputINS_4NodeEEESaIS6_EE
libopenvino.so.2420:_ZNK2ov2op2v112GreaterEqual8evaluateERSt6vectorINS_6TensorESaIS4_EERKS6_
libopenvino.so.2420:_ZNK2ov2op2v112SpaceToBatch12has_evaluateEv
libopenvino.so.2420:_ZNK2ov2op2v112SpaceToBatch21clone_with_new_inputsERKSt6vectorINS_6OutputINS_4NodeEEESaIS6_EE
libopenvino.so.2420:_ZNK2ov2op2v112SpaceToBatch8evaluateERSt6vectorINS_6TensorESaIS4_EERKS6_
libopenvino.so.2420:_ZNK2ov2op2v112StridedSlice12has_evaluateEv
libopenvino.so.2420:_ZNK2ov2op2v112StridedSlice14evaluate_lowerERSt6vectorINS_6TensorESaIS4_EE
libopenvino.so.2420:_ZNK2ov2op2v112StridedSlice14evaluate_upperERSt6vectorINS_6TensorESaIS4_EE
libopenvino.so.2420:_ZNK2ov2op2v112StridedSlice15evaluate_symbolERSt6vectorIS3_ISt10shared_ptrINS_6SymbolEESaIS6_EESaIS8_EE
libopenvino.so.2420:_ZNK2ov2op2v112StridedSlice21clone_with_new_inputsERKSt6vectorINS_6OutputINS_4NodeEEESaIS6_EE
libopenvino.so.2420:_ZNK2ov2op2v112StridedSlice24convert_mask_to_axis_setERKSt6vectorIlSaIlEE
libopenvino.so.2420:_ZNK2ov2op2v112StridedSlice32indices_input_has_and_set_boundsEmRKSt6vectorIlSaIlEE
libopenvino.so.2420:_ZNK2ov2op2v112StridedSlice8evaluateERSt6vectorINS_6TensorESaIS4_EERKS6_
libopenvino.so.2420:_ZNK2ov2op2v113VariadicSplit12has_evaluateEv
libopenvino.so.2420:_ZNK2ov2op2v113VariadicSplit14evaluate_lowerERSt6vectorINS_6TensorESaIS4_EE
libopenvino.so.2420:_ZNK2ov2op2v113VariadicSplit14evaluate_upperERSt6vectorINS_6TensorESaIS4_EE
libopenvino.so.2420:_ZNK2ov2op2v113VariadicSplit15evaluate_symbolERSt6vectorIS3_ISt10shared_ptrINS_6SymbolEESaIS6_EESaIS8_EE
libopenvino.so.2420:_ZNK2ov2op2v113VariadicSplit21clone_with_new_inputsERKSt6vectorINS_6OutputINS_4NodeEEESaIS6_EE
libopenvino.so.2420:_ZNK2ov2op2v113VariadicSplit8evaluateERSt6vectorINS_6TensorESaIS4_EERKS6_
libopenvino.so.2420:_ZNK2ov2op2v115ReduceLogicalOr12has_evaluateEv
libopenvino.so.2420:_ZNK2ov2op2v115ReduceLogicalOr21clone_with_new_inputsERKSt6vectorINS_6OutputINS_4NodeEEESaIS6_EE
libopenvino.so.2420:_ZNK2ov2op2v115ReduceLogicalOr8evaluateERSt6vectorINS_6TensorESaIS4_EERKS6_
libopenvino.so.2420:_ZNK2ov2op2v116GroupConvolution21clone_with_new_inputsERKSt6vectorINS_6OutputINS_4NodeEEESaIS6_EE
libopenvino.so.2420:_ZNK2ov2op2v116ReduceLogicalAnd12has_evaluateEv
libopenvino.so.2420:_ZNK2ov2op2v116ReduceLogicalAnd21clone_with_new_inputsERKSt6vectorINS_6OutputINS_4NodeEEESaIS6_EE
libopenvino.so.2420:_ZNK2ov2op2v116ReduceLogicalAnd8evaluateERSt6vectorINS_6TensorESaIS4_EERKS6_
libopenvino.so.2420:_ZNK2ov2op2v117BinaryConvolution16mode_from_stringERKNSt7__cxx1112basic_stringIcSt11char_traitsIcESaIcEEE
libopenvino.so.2420:_ZNK2ov2op2v117BinaryConvolution21clone_with_new_inputsERKSt6vectorINS_6OutputINS_4NodeEEESaIS6_EE
libopenvino.so.2420:_ZNK2ov2op2v117NonMaxSuppression21clone_with_new_inputsERKSt6vectorINS_6OutputINS_4NodeEEESaIS6_EE
libopenvino.so.2420:_ZNK2ov2op2v117NonMaxSuppression27max_boxes_output_from_inputEv
libopenvino.so.2420:_ZNK2ov2op2v121DeformableConvolution21clone_with_new_inputsERKSt6vectorINS_6OutputINS_4NodeEEESaIS6_EE
libopenvino.so.2420:_ZNK2ov2op2v122DeformablePSROIPooling21clone_with_new_inputsERKSt6vectorINS_6OutputINS_4NodeEEESaIS6_EE
libopenvino.so.2420:_ZNK2ov2op2v123ConvolutionBackpropData10is_dynamicEv
libopenvino.so.2420:_ZNK2ov2op2v123ConvolutionBackpropData16get_output_shapeEv
libopenvino.so.2420:_ZNK2ov2op2v123ConvolutionBackpropData21clone_with_new_inputsERKSt6vectorINS_6OutputINS_4NodeEEESaIS6_EE
libopenvino.so.2420:_ZNK2ov2op2v128GroupConvolutionBackpropData10is_dynamicEv
libopenvino.so.2420:_ZNK2ov2op2v128GroupConvolutionBackpropData21clone_with_new_inputsERKSt6vectorINS_6OutputINS_4NodeEEESaIS6_EE
libopenvino.so.2420:_ZNK2ov2op2v128GroupConvolutionBackpropData28get_convolution_output_shapeEv
libopenvino.so.2420:_ZNK2ov2op2v13Add12has_evaluateEv
libopenvino.so.2420:_ZNK2ov2op2v13Add21clone_with_new_inputsERKSt6vectorINS_6OutputINS_4NodeEEESaIS6_EE
libopenvino.so.2420:_ZNK2ov2op2v13Add8evaluateERSt6vectorINS_6TensorESaIS4_EERKS6_
libopenvino.so.2420:_ZNK2ov2op2v13Mod12has_evaluateEv
libopenvino.so.2420:_ZNK2ov2op2v13Mod14evaluate_lowerERSt6vectorINS_6TensorESaIS4_EE
libopenvino.so.2420:_ZNK2ov2op2v13Mod14evaluate_upperERSt6vectorINS_6TensorESaIS4_EE
libopenvino.so.2420:_ZNK2ov2op2v13Mod21clone_with_new_inputsERKSt6vectorINS_6OutputINS_4NodeEEESaIS6_EE
libopenvino.so.2420:_ZNK2ov2op2v13Mod8evaluateERSt6vectorINS_6TensorESaIS4_EERKS6_
libopenvino.so.2420:_ZNK2ov2op2v13Pad12has_evaluateEv
libopenvino.so.2420:_ZNK2ov2op2v13Pad21clone_with_new_inputsERKSt6vectorINS_6OutputINS_4NodeEEESaIS6_EE
libopenvino.so.2420:_ZNK2ov2op2v13Pad8evaluateERSt6vectorINS_6TensorESaIS4_EERKS6_
libopenvino.so.2420:_ZNK2ov2op2v14Less12has_evaluateEv
libopenvino.so.2420:_ZNK2ov2op2v14Less21clone_with_new_inputsERKSt6vectorINS_6OutputINS_4NodeEEESaIS6_EE
libopenvino.so.2420:_ZNK2ov2op2v14Less8evaluateERSt6vectorINS_6TensorESaIS4_EERKS6_
libopenvino.so.2420:_ZNK2ov2op2v14TopK12has_evaluateEv
libopenvino.so.2420:_ZNK2ov2op2v14TopK12k_type_checkERKNS_7element4TypeE
libopenvino.so.2420:_ZNK2ov2op2v14TopK21clone_with_new_inputsERKSt6vectorINS_6OutputINS_4NodeEEESaIS6_EE
libopenvino.so.2420:_ZNK2ov2op2v14TopK8evaluateERSt6vectorINS_6TensorESaIS4_EERKS6_
libopenvino.so.2420:_ZNK2ov2op2v15Equal12has_evaluateEv
libopenvino.so.2420:_ZNK2ov2op2v15Equal14evaluate_lowerERSt6vectorINS_6TensorESaIS4_EE
libopenvino.so.2420:_ZNK2ov2op2v15Equal14evaluate_upperERSt6vectorINS_6TensorESaIS4_EE
libopenvino.so.2420:_ZNK2ov2op2v15Equal21clone_with_new_inputsERKSt6vectorINS_6OutputINS_4NodeEEESaIS6_EE
libopenvino.so.2420:_ZNK2ov2op2v15Equal8evaluateERSt6vectorINS_6TensorESaIS4_EERKS6_
libopenvino.so.2420:_ZNK2ov2op2v15Power12has_evaluateEv
libopenvino.so.2420:_ZNK2ov2op2v15Power21clone_with_new_inputsERKSt6vectorINS_6OutputINS_4NodeEEESaIS6_EE
libopenvino.so.2420:_ZNK2ov2op2v15Power8evaluateERSt6vectorINS_6TensorESaIS4_EERKS6_
libopenvino.so.2420:_ZNK2ov2op2v15Split12has_evaluateEv
libopenvino.so.2420:_ZNK2ov2op2v15Split14evaluate_lowerERSt6vectorINS_6TensorESaIS4_EE
libopenvino.so.2420:_ZNK2ov2op2v15Split14evaluate_upperERSt6vectorINS_6TensorESaIS4_EE
libopenvino.so.2420:_ZNK2ov2op2v15Split15evaluate_symbolERSt6vectorIS3_ISt10shared_ptrINS_6SymbolEESaIS6_EESaIS8_EE
libopenvino.so.2420:_ZNK2ov2op2v15Split21clone_with_new_inputsERKSt6vectorINS_6OutputINS_4NodeEEESaIS6_EE
libopenvino.so.2420:_ZNK2ov2op2v15Split8evaluateERSt6vectorINS_6TensorESaIS4_EERKS6_
libopenvino.so.2420:_ZNK2ov2op2v16Divide12has_evaluateEv
libopenvino.so.2420:_ZNK2ov2op2v16Divide14evaluate_lowerERSt6vectorINS_6TensorESaIS4_EE
libopenvino.so.2420:_ZNK2ov2op2v16Divide14evaluate_upperERSt6vectorINS_6TensorESaIS4_EE
libopenvino.so.2420:_ZNK2ov2op2v16Divide21clone_with_new_inputsERKSt6vectorINS_6OutputINS_4NodeEEESaIS6_EE
libopenvino.so.2420:_ZNK2ov2op2v16Divide8evaluateERSt6vectorINS_6TensorESaIS4_EERKS6_
libopenvino.so.2420:_ZNK2ov2op2v16Gather21clone_with_new_inputsERKSt6vectorINS_6OutputINS_4NodeEEESaIS6_EE
libopenvino.so.2420:_ZNK2ov2op2v16Gather8get_axisEv
libopenvino.so.2420:_ZNK2ov2op2v16OneHot12has_evaluateEv
libopenvino.so.2420:_ZNK2ov2op2v16OneHot21clone_with_new_inputsERKSt6vectorINS_6OutputINS_4NodeEEESaIS6_EE
libopenvino.so.2420:_ZNK2ov2op2v16OneHot8evaluateERSt6vectorINS_6TensorESaIS4_EERKS6_
libopenvino.so.2420:_ZNK2ov2op2v16Select12has_evaluateEv
libopenvino.so.2420:_ZNK2ov2op2v16Select14evaluate_lowerERSt6vectorINS_6TensorESaIS4_EE
libopenvino.so.2420:_ZNK2ov2op2v16Select14evaluate_upperERSt6vectorINS_6TensorESaIS4_EE
libopenvino.so.2420:_ZNK2ov2op2v16Select21clone_with_new_inputsERKSt6vectorINS_6OutputINS_4NodeEEESaIS6_EE
libopenvino.so.2420:_ZNK2ov2op2v16Select8evaluateERSt6vectorINS_6TensorESaIS4_EERKS6_
libopenvino.so.2420:_ZNK2ov2op2v17AvgPool21clone_with_new_inputsERKSt6vectorINS_6OutputINS_4NodeEEESaIS6_EE
libopenvino.so.2420:_ZNK2ov2op2v17Greater12has_evaluateEv
libopenvino.so.2420:_ZNK2ov2op2v17Greater21clone_with_new_inputsERKSt6vectorINS_6OutputINS_4NodeEEESaIS6_EE
libopenvino.so.2420:_ZNK2ov2op2v17Greater8evaluateERSt6vectorINS_6TensorESaIS4_EERKS6_
libopenvino.so.2420:_ZNK2ov2op2v17MaxPool12has_evaluateEv
libopenvino.so.2420:_ZNK2ov2op2v17MaxPool21clone_with_new_inputsERKSt6vectorINS_6OutputINS_4NodeEEESaIS6_EE
libopenvino.so.2420:_ZNK2ov2op2v17MaxPool8evaluateERSt6vectorINS_6TensorESaIS4_EERKS6_
libopenvino.so.2420:_ZNK2ov2op2v17Maximum12has_evaluateEv
libopenvino.so.2420:_ZNK2ov2op2v17Maximum21clone_with_new_inputsERKSt6vectorINS_6OutputINS_4NodeEEESaIS6_EE
libopenvino.so.2420:_ZNK2ov2op2v17Maximum8evaluateERSt6vectorINS_6TensorESaIS4_EERKS6_
libopenvino.so.2420:_ZNK2ov2op2v17Minimum12has_evaluateEv
libopenvino.so.2420:_ZNK2ov2op2v17Minimum21clone_with_new_inputsERKSt6vectorINS_6OutputINS_4NodeEEESaIS6_EE
libopenvino.so.2420:_ZNK2ov2op2v17Minimum8evaluateERSt6vectorINS_6TensorESaIS4_EERKS6_
libopenvino.so.2420:_ZNK2ov2op2v17Reshape12has_evaluateEv
libopenvino.so.2420:_ZNK2ov2op2v17Reshape14evaluate_lowerERSt6vectorINS_6TensorESaIS4_EE
libopenvino.so.2420:_ZNK2ov2op2v17Reshape14evaluate_upperERSt6vectorINS_6TensorESaIS4_EE
libopenvino.so.2420:_ZNK2ov2op2v17Reshape15evaluate_symbolERSt6vectorIS3_ISt10shared_ptrINS_6SymbolEESaIS6_EESaIS8_EE
libopenvino.so.2420:_ZNK2ov2op2v17Reshape16evaluate_reshapeERSt6vectorINS_6TensorESaIS4_EERKS6_
libopenvino.so.2420:_ZNK2ov2op2v17Reshape21clone_with_new_inputsERKSt6vectorINS_6OutputINS_4NodeEEESaIS6_EE
libopenvino.so.2420:_ZNK2ov2op2v17Reshape8evaluateERSt6vectorINS_6TensorESaIS4_EERKS6_
libopenvino.so.2420:_ZNK2ov2op2v17Reverse12has_evaluateEv
libopenvino.so.2420:_ZNK2ov2op2v17Reverse16mode_from_stringERKNSt7__cxx1112basic_stringIcSt11char_traitsIcESaIcEEE
libopenvino.so.2420:_ZNK2ov2op2v17Reverse21clone_with_new_inputsERKSt6vectorINS_6OutputINS_4NodeEEESaIS6_EE
libopenvino.so.2420:_ZNK2ov2op2v17Reverse8evaluateERSt6vectorINS_6TensorESaIS4_EERKS6_
libopenvino.so.2420:_ZNK2ov2op2v17Softmax12has_evaluateEv
libopenvino.so.2420:_ZNK2ov2op2v17Softmax21clone_with_new_inputsERKSt6vectorINS_6OutputINS_4NodeEEESaIS6_EE
libopenvino.so.2420:_ZNK2ov2op2v17Softmax8evaluateERSt6vectorINS_6TensorESaIS4_EERKS6_
libopenvino.so.2420:_ZNK2ov2op2v18FloorMod12has_evaluateEv
libopenvino.so.2420:_ZNK2ov2op2v18FloorMod21clone_with_new_inputsERKSt6vectorINS_6OutputINS_4NodeEEESaIS6_EE
libopenvino.so.2420:_ZNK2ov2op2v18FloorMod8evaluateERSt6vectorINS_6TensorESaIS4_EERKS6_
libopenvino.so.2420:_ZNK2ov2op2v18Multiply12has_evaluateEv
libopenvino.so.2420:_ZNK2ov2op2v18Multiply21clone_with_new_inputsERKSt6vectorINS_6OutputINS_4NodeEEESaIS6_EE
libopenvino.so.2420:_ZNK2ov2op2v18Multiply8evaluateERSt6vectorINS_6TensorESaIS4_EERKS6_
libopenvino.so.2420:_ZNK2ov2op2v18NotEqual12has_evaluateEv
libopenvino.so.2420:_ZNK2ov2op2v18NotEqual21clone_with_new_inputsERKSt6vectorINS_6OutputINS_4NodeEEESaIS6_EE
libopenvino.so.2420:_ZNK2ov2op2v18NotEqual8evaluateERSt6vectorINS_6TensorESaIS4_EERKS6_
libopenvino.so.2420:_ZNK2ov2op2v18Subtract12has_evaluateEv
libopenvino.so.2420:_ZNK2ov2op2v18Subtract21clone_with_new_inputsERKSt6vectorINS_6OutputINS_4NodeEEESaIS6_EE
libopenvino.so.2420:_ZNK2ov2op2v18Subtract8evaluateERSt6vectorINS_6TensorESaIS4_EERKS6_
libopenvino.so.2420:_ZNK2ov2op2v19Broadcast12has_evaluateEv
libopenvino.so.2420:_ZNK2ov2op2v19Broadcast21clone_with_new_inputsERKSt6vectorINS_6OutputINS_4NodeEEESaIS6_EE
libopenvino.so.2420:_ZNK2ov2op2v19Broadcast8evaluateERSt6vectorINS_6TensorESaIS4_EERKS6_
libopenvino.so.2420:_ZNK2ov2op2v19LessEqual12has_evaluateEv
libopenvino.so.2420:_ZNK2ov2op2v19LessEqual21clone_with_new_inputsERKSt6vectorINS_6OutputINS_4NodeEEESaIS6_EE
libopenvino.so.2420:_ZNK2ov2op2v19LessEqual8evaluateERSt6vectorINS_6TensorESaIS4_EERKS6_
libopenvino.so.2420:_ZNK2ov2op2v19LogicalOr12has_evaluateEv
libopenvino.so.2420:_ZNK2ov2op2v19LogicalOr21clone_with_new_inputsERKSt6vectorINS_6OutputINS_4NodeEEESaIS6_EE
libopenvino.so.2420:_ZNK2ov2op2v19LogicalOr8evaluateERSt6vectorINS_6TensorESaIS4_EERKS6_
libopenvino.so.2420:_ZNK2ov2op2v19ReduceMax12has_evaluateEv
libopenvino.so.2420:_ZNK2ov2op2v19ReduceMax14evaluate_lowerERSt6vectorINS_6TensorESaIS4_EE
libopenvino.so.2420:_ZNK2ov2op2v19ReduceMax14evaluate_upperERSt6vectorINS_6TensorESaIS4_EE
libopenvino.so.2420:_ZNK2ov2op2v19ReduceMax21clone_with_new_inputsERKSt6vectorINS_6OutputINS_4NodeEEESaIS6_EE
libopenvino.so.2420:_ZNK2ov2op2v19ReduceMax8evaluateERSt6vectorINS_6TensorESaIS4_EERKS6_
libopenvino.so.2420:_ZNK2ov2op2v19ReduceMin12has_evaluateEv
libopenvino.so.2420:_ZNK2ov2op2v19ReduceMin14evaluate_lowerERSt6vectorINS_6TensorESaIS4_EE
libopenvino.so.2420:_ZNK2ov2op2v19ReduceMin14evaluate_upperERSt6vectorINS_6TensorESaIS4_EE
libopenvino.so.2420:_ZNK2ov2op2v19ReduceMin21clone_with_new_inputsERKSt6vectorINS_6OutputINS_4NodeEEESaIS6_EE
libopenvino.so.2420:_ZNK2ov2op2v19ReduceMin8evaluateERSt6vectorINS_6TensorESaIS4_EERKS6_
libopenvino.so.2420:_ZNK2ov2op2v19ReduceSum12has_evaluateEv
libopenvino.so.2420:_ZNK2ov2op2v19ReduceSum21clone_with_new_inputsERKSt6vectorINS_6OutputINS_4NodeEEESaIS6_EE
libopenvino.so.2420:_ZNK2ov2op2v19ReduceSum8evaluateERSt6vectorINS_6TensorESaIS4_EERKS6_
libopenvino.so.2420:_ZNK2ov2op2v19Transpose12has_evaluateEv
libopenvino.so.2420:_ZNK2ov2op2v19Transpose14evaluate_lowerERSt6vectorINS_6TensorESaIS4_EE
libopenvino.so.2420:_ZNK2ov2op2v19Transpose14evaluate_upperERSt6vectorINS_6TensorESaIS4_EE
libopenvino.so.2420:_ZNK2ov2op2v19Transpose15evaluate_symbolERSt6vectorIS3_ISt10shared_ptrINS_6SymbolEESaIS6_EESaIS8_EE
libopenvino.so.2420:_ZNK2ov2op2v19Transpose21clone_with_new_inputsERKSt6vectorINS_6OutputINS_4NodeEEESaIS6_EE
libopenvino.so.2420:_ZNK2ov2op2v19Transpose8evaluateERSt6vectorINS_6TensorESaIS4_EERKS6_
libopenvino.so.2420:_ZNK2ov2op2v313ScatterUpdate12has_evaluateEv
libopenvino.so.2420:_ZNK2ov2op2v313ScatterUpdate14evaluate_lowerERSt6vectorINS_6TensorESaIS4_EE
libopenvino.so.2420:_ZNK2ov2op2v313ScatterUpdate14evaluate_upperERSt6vectorINS_6TensorESaIS4_EE
libopenvino.so.2420:_ZNK2ov2op2v313ScatterUpdate15evaluate_symbolERSt6vectorIS3_ISt10shared_ptrINS_6SymbolEESaIS6_EESaIS8_EE
libopenvino.so.2420:_ZNK2ov2op2v313ScatterUpdate21clone_with_new_inputsERKSt6vectorINS_6OutputINS_4NodeEEESaIS6_EE
libopenvino.so.2420:_ZNK2ov2op2v313ScatterUpdate8evaluateERSt6vectorINS_6TensorESaIS4_EERKS6_
libopenvino.so.2420:_ZNK2ov2op2v315ScatterNDUpdate12has_evaluateEv
libopenvino.so.2420:_ZNK2ov2op2v315ScatterNDUpdate14evaluate_lowerERSt6vectorINS_6TensorESaIS4_EE
libopenvino.so.2420:_ZNK2ov2op2v315ScatterNDUpdate14evaluate_upperERSt6vectorINS_6TensorESaIS4_EE
libopenvino.so.2420:_ZNK2ov2op2v315ScatterNDUpdate15evaluate_symbolERSt6vectorIS3_ISt10shared_ptrINS_6SymbolEESaIS6_EESaIS8_EE
libopenvino.so.2420:_ZNK2ov2op2v315ScatterNDUpdate21clone_with_new_inputsERKSt6vectorINS_6OutputINS_4NodeEEESaIS6_EE
libopenvino.so.2420:_ZNK2ov2op2v315ScatterNDUpdate8evaluateERSt6vectorINS_6TensorESaIS4_EERKS6_
libopenvino.so.2420:_ZNK2ov2op2v317NonMaxSuppression21clone_with_new_inputsERKSt6vectorINS_6OutputINS_4NodeEEESaIS6_EE
libopenvino.so.2420:_ZNK2ov2op2v317NonMaxSuppression27max_boxes_output_from_inputEv
libopenvino.so.2420:_ZNK2ov2op2v319ExtractImagePatches21clone_with_new_inputsERKSt6vectorINS_6OutputINS_4NodeEEESaIS6_EE
libopenvino.so.2420:_ZNK2ov2op2v320EmbeddingSegmentsSum21clone_with_new_inputsERKSt6vectorINS_6OutputINS_4NodeEEESaIS6_EE
libopenvino.so.2420:_ZNK2ov2op2v321EmbeddingBagPackedSum21clone_with_new_inputsERKSt6vectorINS_6OutputINS_4NodeEEESaIS6_EE
libopenvino.so.2420:_ZNK2ov2op2v321ScatterElementsUpdate21clone_with_new_inputsERKSt6vectorINS_6OutputINS_4NodeEEESaIS6_EE
libopenvino.so.2420:_ZNK2ov2op2v321ScatterElementsUpdate8evaluateERSt6vectorINS_6TensorESaIS4_EERKS6_
libopenvino.so.2420:_ZNK2ov2op2v322EmbeddingBagOffsetsSum21clone_with_new_inputsERKSt6vectorINS_6OutputINS_4NodeEEESaIS6_EE
libopenvino.so.2420:_ZNK2ov2op2v34TopK12has_evaluateEv
libopenvino.so.2420:_ZNK2ov2op2v34TopK21clone_with_new_inputsERKSt6vectorINS_6OutputINS_4NodeEEESaIS6_EE
libopenvino.so.2420:_ZNK2ov2op2v34TopK8evaluateERSt6vectorINS_6TensorESaIS4_EERKS6_
libopenvino.so.2420:_ZNK2ov2op2v35Acosh12has_evaluateEv
libopenvino.so.2420:_ZNK2ov2op2v35Acosh21clone_with_new_inputsERKSt6vectorINS_6OutputINS_4NodeEEESaIS6_EE
libopenvino.so.2420:_ZNK2ov2op2v35Acosh8evaluateERSt6vectorINS_6TensorESaIS4_EERKS6_
libopenvino.so.2420:_ZNK2ov2op2v35Asinh12has_evaluateEv
libopenvino.so.2420:_ZNK2ov2op2v35Asinh21clone_with_new_inputsERKSt6vectorINS_6OutputINS_4NodeEEESaIS6_EE
libopenvino.so.2420:_ZNK2ov2op2v35Asinh8evaluateERSt6vectorINS_6TensorESaIS4_EERKS6_
libopenvino.so.2420:_ZNK2ov2op2v35Atanh12has_evaluateEv
libopenvino.so.2420:_ZNK2ov2op2v35Atanh21clone_with_new_inputsERKSt6vectorINS_6OutputINS_4NodeEEESaIS6_EE
libopenvino.so.2420:_ZNK2ov2op2v35Atanh8evaluateERSt6vectorINS_6TensorESaIS4_EERKS6_
libopenvino.so.2420:_ZNK2ov2op2v36Assign21clone_with_new_inputsERKSt6vectorINS_6OutputINS_4NodeEEESaIS6_EE
libopenvino.so.2420:_ZNK2ov2op2v37GRUCell21clone_with_new_inputsERKSt6vectorINS_6OutputINS_4NodeEEESaIS6_EE
libopenvino.so.2420:_ZNK2ov2op2v37NonZero12has_evaluateEv
libopenvino.so.2420:_ZNK2ov2op2v37NonZero21clone_with_new_inputsERKSt6vectorINS_6OutputINS_4NodeEEESaIS6_EE
libopenvino.so.2420:_ZNK2ov2op2v37NonZero8evaluateERSt6vectorINS_6TensorESaIS4_EERKS6_
libopenvino.so.2420:_ZNK2ov2op2v37ShapeOf12has_evaluateEv
libopenvino.so.2420:_ZNK2ov2op2v37ShapeOf14evaluate_lowerERSt6vectorINS_6TensorESaIS4_EE
libopenvino.so.2420:_ZNK2ov2op2v37ShapeOf14evaluate_upperERSt6vectorINS_6TensorESaIS4_EE
libopenvino.so.2420:_ZNK2ov2op2v37ShapeOf15evaluate_symbolERSt6vectorIS3_ISt10shared_ptrINS_6SymbolEESaIS6_EESaIS8_EE
libopenvino.so.2420:_ZNK2ov2op2v37ShapeOf21clone_with_new_inputsERKSt6vectorINS_6OutputINS_4NodeEEESaIS6_EE
libopenvino.so.2420:_ZNK2ov2op2v37ShapeOf8evaluateERSt6vectorINS_6TensorESaIS4_EERKS6_
libopenvino.so.2420:_ZNK2ov2op2v38ROIAlign12has_evaluateEv
libopenvino.so.2420:_ZNK2ov2op2v38ROIAlign21clone_with_new_inputsERKSt6vectorINS_6OutputINS_4NodeEEESaIS6_EE
libopenvino.so.2420:_ZNK2ov2op2v38ROIAlign8evaluateERSt6vectorINS_6TensorESaIS4_EERKS6_
libopenvino.so.2420:_ZNK2ov2op2v39Broadcast12has_evaluateEv
libopenvino.so.2420:_ZNK2ov2op2v39Broadcast18broadcast_evaluateERSt6vectorINS_6TensorESaIS4_EERKS6_
libopenvino.so.2420:_ZNK2ov2op2v39Broadcast18get_broadcast_axesEv
libopenvino.so.2420:_ZNK2ov2op2v39Broadcast21clone_with_new_inputsERKSt6vectorINS_6OutputINS_4NodeEEESaIS6_EE
libopenvino.so.2420:_ZNK2ov2op2v39Broadcast8evaluateERSt6vectorINS_6TensorESaIS4_EERKS6_
libopenvino.so.2420:_ZNK2ov2op2v39Bucketize21clone_with_new_inputsERKSt6vectorINS_6OutputINS_4NodeEEESaIS6_EE
libopenvino.so.2420:_ZNK2ov2op2v39ReadValue21clone_with_new_inputsERKSt6vectorINS_6OutputINS_4NodeEEESaIS6_EE
libopenvino.so.2420:_ZNK2ov2op2v411Interpolate12has_evaluateEv
libopenvino.so.2420:_ZNK2ov2op2v411Interpolate20evaluate_interpolateERSt6vectorINS_6TensorESaIS4_EERKS6_
libopenvino.so.2420:_ZNK2ov2op2v411Interpolate21clone_with_new_inputsERKSt6vectorINS_6OutputINS_4NodeEEESaIS6_EE
libopenvino.so.2420:_ZNK2ov2op2v411Interpolate8evaluateERSt6vectorINS_6TensorESaIS4_EERKS6_
libopenvino.so.2420:_ZNK2ov2op2v417NonMaxSuppression21clone_with_new_inputsERKSt6vectorINS_6OutputINS_4NodeEEESaIS6_EE
libopenvino.so.2420:_ZNK2ov2op2v44Mish12has_evaluateEv
libopenvino.so.2420:_ZNK2ov2op2v44Mish21clone_with_new_inputsERKSt6vectorINS_6OutputINS_4NodeEEESaIS6_EE
libopenvino.so.2420:_ZNK2ov2op2v44Mish8evaluateERSt6vectorINS_6TensorESaIS4_EERKS6_
libopenvino.so.2420:_ZNK2ov2op2v45Range12has_evaluateEv
libopenvino.so.2420:_ZNK2ov2op2v45Range21clone_with_new_inputsERKSt6vectorINS_6OutputINS_4NodeEEESaIS6_EE
libopenvino.so.2420:_ZNK2ov2op2v45Range8evaluateERSt6vectorINS_6TensorESaIS4_EERKS6_
libopenvino.so.2420:_ZNK2ov2op2v45Swish12has_evaluateEv
libopenvino.so.2420:_ZNK2ov2op2v45Swish21clone_with_new_inputsERKSt6vectorINS_6OutputINS_4NodeEEESaIS6_EE
libopenvino.so.2420:_ZNK2ov2op2v45Swish8evaluateERSt6vectorINS_6TensorESaIS4_EERKS6_
libopenvino.so.2420:_ZNK2ov2op2v46HSwish12has_evaluateEv
libopenvino.so.2420:_ZNK2ov2op2v46HSwish21clone_with_new_inputsERKSt6vectorINS_6OutputINS_4NodeEEESaIS6_EE
libopenvino.so.2420:_ZNK2ov2op2v46HSwish8evaluateERSt6vectorINS_6TensorESaIS4_EERKS6_
libopenvino.so.2420:_ZNK2ov2op2v47CTCLoss21clone_with_new_inputsERKSt6vectorINS_6OutputINS_4NodeEEESaIS6_EE
libopenvino.so.2420:_ZNK2ov2op2v48LSTMCell21clone_with_new_inputsERKSt6vectorINS_6OutputINS_4NodeEEESaIS6_EE
libopenvino.so.2420:_ZNK2ov2op2v48LSTMCell22get_default_bias_inputEv
libopenvino.so.2420:_ZNK2ov2op2v48Proposal21clone_with_new_inputsERKSt6vectorINS_6OutputINS_4NodeEEESaIS6_EE
libopenvino.so.2420:_ZNK2ov2op2v48ReduceL112has_evaluateEv
libopenvino.so.2420:_ZNK2ov2op2v48ReduceL121clone_with_new_inputsERKSt6vectorINS_6OutputINS_4NodeEEESaIS6_EE
libopenvino.so.2420:_ZNK2ov2op2v48ReduceL18evaluateERSt6vectorINS_6TensorESaIS4_EERKS6_
libopenvino.so.2420:_ZNK2ov2op2v48ReduceL212has_evaluateEv
libopenvino.so.2420:_ZNK2ov2op2v48ReduceL221clone_with_new_inputsERKSt6vectorINS_6OutputINS_4NodeEEESaIS6_EE
libopenvino.so.2420:_ZNK2ov2op2v48ReduceL28evaluateERSt6vectorINS_6TensorESaIS4_EERKS6_
libopenvino.so.2420:_ZNK2ov2op2v48SoftPlus12has_evaluateEv
libopenvino.so.2420:_ZNK2ov2op2v48SoftPlus21clone_with_new_inputsERKSt6vectorINS_6OutputINS_4NodeEEESaIS6_EE
libopenvino.so.2420:_ZNK2ov2op2v48SoftPlus8evaluateERSt6vectorINS_6TensorESaIS4_EERKS6_
libopenvino.so.2420:_ZNK2ov2op2v510LogSoftmax21clone_with_new_inputsERKSt6vectorINS_6OutputINS_4NodeEEESaIS6_EE
libopenvino.so.2420:_ZNK2ov2op2v511GRUSequence21clone_with_new_inputsERKSt6vectorINS_6OutputINS_4NodeEEESaIS6_EE
libopenvino.so.2420:_ZNK2ov2op2v511RNNSequence21clone_with_new_inputsERKSt6vectorINS_6OutputINS_4NodeEEESaIS6_EE
libopenvino.so.2420:_ZNK2ov2op2v512LSTMSequence21clone_with_new_inputsERKSt6vectorINS_6OutputINS_4NodeEEESaIS6_EE
libopenvino.so.2420:_ZNK2ov2op2v517NonMaxSuppression21clone_with_new_inputsERKSt6vectorINS_6OutputINS_4NodeEEESaIS6_EE
libopenvino.so.2420:_ZNK2ov2op2v517NonMaxSuppression24iou_threshold_from_inputEv
libopenvino.so.2420:_ZNK2ov2op2v517NonMaxSuppression25soft_nms_sigma_from_inputEv
libopenvino.so.2420:_ZNK2ov2op2v517NonMaxSuppression26score_threshold_from_inputEv
libopenvino.so.2420:_ZNK2ov2op2v517NonMaxSuppression27max_boxes_output_from_inputEv
libopenvino.so.2420:_ZNK2ov2op2v517NonMaxSuppression38is_soft_nms_sigma_constant_and_defaultEv
libopenvino.so.2420:_ZNK2ov2op2v518BatchNormInference21clone_with_new_inputsERKSt6vectorINS_6OutputINS_4NodeEEESaIS6_EE
libopenvino.so.2420:_ZNK2ov2op2v54Loop12has_evaluateEv
libopenvino.so.2420:_ZNK2ov2op2v54Loop21clone_with_new_inputsERKSt6vectorINS_6OutputINS_4NodeEEESaIS6_EE
libopenvino.so.2420:_ZNK2ov2op2v54Loop8clone_toERS2_RKSt6vectorINS_6OutputINS_4NodeEEESaIS7_EE
libopenvino.so.2420:_ZNK2ov2op2v54Loop8evaluateERSt6vectorINS_6TensorESaIS4_EERKS6_
libopenvino.so.2420:_ZNK2ov2op2v54Loop8evaluateERSt6vectorINS_6TensorESaIS4_EERKS6_RKSt3mapINSt7__cxx1112basic_stringIcSt11char_traitsIcESaIcEEENS_3AnyESt4lessISG_ESaISt4pairIKSG_SH_EEE
libopenvino.so.2420:_ZNK2ov2op2v55Round12has_evaluateEv
libopenvino.so.2420:_ZNK2ov2op2v55Round21clone_with_new_inputsERKSt6vectorINS_6OutputINS_4NodeEEESaIS6_EE
libopenvino.so.2420:_ZNK2ov2op2v55Round8evaluateERSt6vectorINS_6TensorESaIS4_EERKS6_
libopenvino.so.2420:_ZNK2ov2op2v58GatherND21clone_with_new_inputsERKSt6vectorINS_6OutputINS_4NodeEEESaIS6_EE
libopenvino.so.2420:_ZNK2ov2op2v58HSigmoid12has_evaluateEv
libopenvino.so.2420:_ZNK2ov2op2v58HSigmoid21clone_with_new_inputsERKSt6vectorINS_6OutputINS_4NodeEEESaIS6_EE
libopenvino.so.2420:_ZNK2ov2op2v58HSigmoid8evaluateERSt6vectorINS_6TensorESaIS4_EERKS6_
libopenvino.so.2420:_ZNK2ov2op2v614GatherElements21clone_with_new_inputsERKSt6vectorINS_6OutputINS_4NodeEEESaIS6_EE
libopenvino.so.2420:_ZNK2ov2op2v622CTCGreedyDecoderSeqLen21clone_with_new_inputsERKSt6vectorINS_6OutputINS_4NodeEEESaIS6_EE
libopenvino.so.2420:_ZNK2ov2op2v629ExperimentalDetectronTopKROIs21clone_with_new_inputsERKSt6vectorINS_6OutputINS_4NodeEEESaIS6_EE
libopenvino.so.2420:_ZNK2ov2op2v636ExperimentalDetectronDetectionOutput21clone_with_new_inputsERKSt6vectorINS_6OutputINS_4NodeEEESaIS6_EE
libopenvino.so.2420:_ZNK2ov2op2v639ExperimentalDetectronPriorGridGenerator21clone_with_new_inputsERKSt6vectorINS_6OutputINS_4NodeEEESaIS6_EE
libopenvino.so.2420:_ZNK2ov2op2v63MVN12has_evaluateEv
libopenvino.so.2420:_ZNK2ov2op2v63MVN21clone_with_new_inputsERKSt6vectorINS_6OutputINS_4NodeEEESaIS6_EE
libopenvino.so.2420:_ZNK2ov2op2v63MVN8evaluateERSt6vectorINS_6TensorESaIS4_EERKS6_
libopenvino.so.2420:_ZNK2ov2op2v640ExperimentalDetectronROIFeatureExtractor21clone_with_new_inputsERKSt6vectorINS_6OutputINS_4NodeEEESaIS6_EE
libopenvino.so.2420:_ZNK2ov2op2v649ExperimentalDetectronGenerateProposalsSingleImage21clone_with_new_inputsERKSt6vectorINS_6OutputINS_4NodeEEESaIS6_EE
libopenvino.so.2420:_ZNK2ov2op2v66Assign12has_evaluateEv
libopenvino.so.2420:_ZNK2ov2op2v66Assign21clone_with_new_inputsERKSt6vectorINS_6OutputINS_4NodeEEESaIS6_EE
libopenvino.so.2420:_ZNK2ov2op2v66Assign8evaluateERSt6vectorINS_6TensorESaIS4_EERKS6_RKSt3mapINSt7__cxx1112basic_stringIcSt11char_traitsIcESaIcEEENS_3AnyESt4lessISG_ESaISt4pairIKSG_SH_EEE
libopenvino.so.2420:_ZNK2ov2op2v69ReadValue12has_evaluateEv
libopenvino.so.2420:_ZNK2ov2op2v69ReadValue21clone_with_new_inputsERKSt6vectorINS_6OutputINS_4NodeEEESaIS6_EE
libopenvino.so.2420:_ZNK2ov2op2v69ReadValue8evaluateERSt6vectorINS_6TensorESaIS4_EERKS6_RKSt3mapINSt7__cxx1112basic_stringIcSt11char_traitsIcESaIcEEENS_3AnyESt4lessISG_ESaISt4pairIKSG_SH_EEE
libopenvino.so.2420:_ZNK2ov2op2v73DFT21clone_with_new_inputsERKSt6vectorINS_6OutputINS_4NodeEEESaIS6_EE
libopenvino.so.2420:_ZNK2ov2op2v74Gelu12has_evaluateEv
libopenvino.so.2420:_ZNK2ov2op2v74Gelu21clone_with_new_inputsERKSt6vectorINS_6OutputINS_4NodeEEESaIS6_EE
libopenvino.so.2420:_ZNK2ov2op2v74Gelu22get_approximation_modeEv
libopenvino.so.2420:_ZNK2ov2op2v74Gelu8evaluateERSt6vectorINS_6TensorESaIS4_EERKS6_
libopenvino.so.2420:_ZNK2ov2op2v74IDFT21clone_with_new_inputsERKSt6vectorINS_6OutputINS_4NodeEEESaIS6_EE
libopenvino.so.2420:_ZNK2ov2op2v74Roll21clone_with_new_inputsERKSt6vectorINS_6OutputINS_4NodeEEESaIS6_EE
libopenvino.so.2420:_ZNK2ov2op2v76Einsum21clone_with_new_inputsERKSt6vectorINS_6OutputINS_4NodeEEESaIS6_EE
libopenvino.so.2420:_ZNK2ov2op2v76Gather14get_batch_dimsEv
libopenvino.so.2420:_ZNK2ov2op2v76Gather21clone_with_new_inputsERKSt6vectorINS_6OutputINS_4NodeEEESaIS6_EE
libopenvino.so.2420:_ZNK2ov2op2v813MulticlassNms21clone_with_new_inputsERKSt6vectorINS_6OutputINS_4NodeEEESaIS6_EE
libopenvino.so.2420:_ZNK2ov2op2v813RandomUniform12has_evaluateEv
libopenvino.so.2420:_ZNK2ov2op2v813RandomUniform21clone_with_new_inputsERKSt6vectorINS_6OutputINS_4NodeEEESaIS6_EE
libopenvino.so.2420:_ZNK2ov2op2v813RandomUniform8evaluateERSt6vectorINS_6TensorESaIS4_EERKS6_
libopenvino.so.2420:_ZNK2ov2op2v815AdaptiveAvgPool21clone_with_new_inputsERKSt6vectorINS_6OutputINS_4NodeEEESaIS6_EE
libopenvino.so.2420:_ZNK2ov2op2v815AdaptiveMaxPool21clone_with_new_inputsERKSt6vectorINS_6OutputINS_4NodeEEESaIS6_EE
libopenvino.so.2420:_ZNK2ov2op2v815DetectionOutput21clone_with_new_inputsERKSt6vectorINS_6OutputINS_4NodeEEESaIS6_EE
libopenvino.so.2420:_ZNK2ov2op2v821DeformableConvolution21clone_with_new_inputsERKSt6vectorINS_6OutputINS_4NodeEEESaIS6_EE
libopenvino.so.2420:_ZNK2ov2op2v82If21clone_with_new_inputsERKSt6vectorINS_6OutputINS_4NodeEEESaIS6_EE
libopenvino.so.2420:_ZNK2ov2op2v85Slice12has_evaluateEv
libopenvino.so.2420:_ZNK2ov2op2v85Slice14evaluate_lowerERSt6vectorINS_6TensorESaIS4_EE
libopenvino.so.2420:_ZNK2ov2op2v85Slice14evaluate_upperERSt6vectorINS_6TensorESaIS4_EE
libopenvino.so.2420:_ZNK2ov2op2v85Slice15evaluate_symbolERSt6vectorIS3_ISt10shared_ptrINS_6SymbolEESaIS6_EESaIS8_EE
libopenvino.so.2420:_ZNK2ov2op2v85Slice21clone_with_new_inputsERKSt6vectorINS_6OutputINS_4NodeEEESaIS6_EE
libopenvino.so.2420:_ZNK2ov2op2v85Slice22get_default_const_axesERKNS_6OutputINS_4NodeEEE
libopenvino.so.2420:_ZNK2ov2op2v85Slice8evaluateERSt6vectorINS_6TensorESaIS4_EERKS6_
libopenvino.so.2420:_ZNK2ov2op2v86Gather14get_batch_dimsEv
libopenvino.so.2420:_ZNK2ov2op2v86Gather21clone_with_new_inputsERKSt6vectorINS_6OutputINS_4NodeEEESaIS6_EE
libopenvino.so.2420:_ZNK2ov2op2v87MaxPool12has_evaluateEv
libopenvino.so.2420:_ZNK2ov2op2v87MaxPool13get_dilationsEv
libopenvino.so.2420:_ZNK2ov2op2v87MaxPool21clone_with_new_inputsERKSt6vectorINS_6OutputINS_4NodeEEESaIS6_EE
libopenvino.so.2420:_ZNK2ov2op2v87MaxPool22get_index_element_typeEv
libopenvino.so.2420:_ZNK2ov2op2v87MaxPool8evaluateERSt6vectorINS_6TensorESaIS4_EERKS6_
libopenvino.so.2420:_ZNK2ov2op2v87MaxPool8get_axisEv
libopenvino.so.2420:_ZNK2ov2op2v87Softmax12has_evaluateEv
libopenvino.so.2420:_ZNK2ov2op2v87Softmax21clone_with_new_inputsERKSt6vectorINS_6OutputINS_4NodeEEESaIS6_EE
libopenvino.so.2420:_ZNK2ov2op2v87Softmax8evaluateERSt6vectorINS_6TensorESaIS4_EERKS6_
libopenvino.so.2420:_ZNK2ov2op2v88GatherND21clone_with_new_inputsERKSt6vectorINS_6OutputINS_4NodeEEESaIS6_EE
libopenvino.so.2420:_ZNK2ov2op2v88PriorBox12has_evaluateEv
libopenvino.so.2420:_ZNK2ov2op2v88PriorBox21clone_with_new_inputsERKSt6vectorINS_6OutputINS_4NodeEEESaIS6_EE
libopenvino.so.2420:_ZNK2ov2op2v88PriorBox8evaluateERSt6vectorINS_6TensorESaIS4_EERKS6_
libopenvino.so.2420:_ZNK2ov2op2v89I420toBGR21clone_with_new_inputsERKSt6vectorINS_6OutputINS_4NodeEEESaIS6_EE
libopenvino.so.2420:_ZNK2ov2op2v89I420toRGB21clone_with_new_inputsERKSt6vectorINS_6OutputINS_4NodeEEESaIS6_EE
libopenvino.so.2420:_ZNK2ov2op2v89MatrixNms21clone_with_new_inputsERKSt6vectorINS_6OutputINS_4NodeEEESaIS6_EE
libopenvino.so.2420:_ZNK2ov2op2v89NV12toBGR21clone_with_new_inputsERKSt6vectorINS_6OutputINS_4NodeEEESaIS6_EE
libopenvino.so.2420:_ZNK2ov2op2v89NV12toRGB21clone_with_new_inputsERKSt6vectorINS_6OutputINS_4NodeEEESaIS6_EE
libopenvino.so.2420:_ZNK2ov2op2v910GridSample12has_evaluateEv
libopenvino.so.2420:_ZNK2ov2op2v910GridSample21clone_with_new_inputsERKSt6vectorINS_6OutputINS_4NodeEEESaIS6_EE
libopenvino.so.2420:_ZNK2ov2op2v910GridSample8evaluateERSt6vectorINS_6TensorESaIS4_EERKS6_
libopenvino.so.2420:_ZNK2ov2op2v913MulticlassNms21clone_with_new_inputsERKSt6vectorINS_6OutputINS_4NodeEEESaIS6_EE
libopenvino.so.2420:_ZNK2ov2op2v917GenerateProposals21clone_with_new_inputsERKSt6vectorINS_6OutputINS_4NodeEEESaIS6_EE
libopenvino.so.2420:_ZNK2ov2op2v917NonMaxSuppression21clone_with_new_inputsERKSt6vectorINS_6OutputINS_4NodeEEESaIS6_EE
libopenvino.so.2420:_ZNK2ov2op2v917NonMaxSuppression24iou_threshold_from_inputEv
libopenvino.so.2420:_ZNK2ov2op2v917NonMaxSuppression25soft_nms_sigma_from_inputEv
libopenvino.so.2420:_ZNK2ov2op2v917NonMaxSuppression26score_threshold_from_inputEv
libopenvino.so.2420:_ZNK2ov2op2v917NonMaxSuppression27max_boxes_output_from_inputEv
libopenvino.so.2420:_ZNK2ov2op2v917NonMaxSuppression38is_soft_nms_sigma_constant_and_defaultEv
libopenvino.so.2420:_ZNK2ov2op2v93Eye12has_evaluateEv
libopenvino.so.2420:_ZNK2ov2op2v93Eye21clone_with_new_inputsERKSt6vectorINS_6OutputINS_4NodeEEESaIS6_EE
libopenvino.so.2420:_ZNK2ov2op2v93Eye8evaluateERSt6vectorINS_6TensorESaIS4_EERKS6_
libopenvino.so.2420:_ZNK2ov2op2v94RDFT21clone_with_new_inputsERKSt6vectorINS_6OutputINS_4NodeEEESaIS6_EE
libopenvino.so.2420:_ZNK2ov2op2v95IRDFT21clone_with_new_inputsERKSt6vectorINS_6OutputINS_4NodeEEESaIS6_EE
libopenvino.so.2420:_ZNK2ov2op2v98ROIAlign21clone_with_new_inputsERKSt6vectorINS_6OutputINS_4NodeEEESaIS6_EE
libopenvino.so.2420:_ZNK2ov2op2v98SoftSign12has_evaluateEv
libopenvino.so.2420:_ZNK2ov2op2v98SoftSign21clone_with_new_inputsERKSt6vectorINS_6OutputINS_4NodeEEESaIS6_EE
libopenvino.so.2420:_ZNK2ov2op2v98SoftSign8evaluateERSt6vectorINS_6TensorESaIS4_EERKS6_RKSt3mapINSt7__cxx1112basic_stringIcSt11char_traitsIcESaIcEEENS_3AnyESt4lessISG_ESaISt4pairIKSG_SH_EEE
libopenvino.so.2420:_ZNK2ov2op3v105IsInf21clone_with_new_inputsERKSt6vectorINS_6OutputINS_4NodeEEESaIS6_EE
libopenvino.so.2420:_ZNK2ov2op3v105IsNaN21clone_with_new_inputsERKSt6vectorINS_6OutputINS_4NodeEEESaIS6_EE
libopenvino.so.2420:_ZNK2ov2op3v106Unique21clone_with_new_inputsERKSt6vectorINS_6OutputINS_4NodeEEESaIS6_EE
libopenvino.so.2420:_ZNK2ov2op3v108IsFinite21clone_with_new_inputsERKSt6vectorINS_6OutputINS_4NodeEEESaIS6_EE
libopenvino.so.2420:_ZNK2ov2op3v1111Interpolate21clone_with_new_inputsERKSt6vectorINS_6OutputINS_4NodeEEESaIS6_EE
libopenvino.so.2420:_ZNK2ov2op3v114TopK12has_evaluateEv
libopenvino.so.2420:_ZNK2ov2op3v114TopK21clone_with_new_inputsERKSt6vectorINS_6OutputINS_4NodeEEESaIS6_EE
libopenvino.so.2420:_ZNK2ov2op3v114TopK8evaluateERSt6vectorINS_6TensorESaIS4_EERKS6_
libopenvino.so.2420:_ZNK2ov2op3v1218GroupNormalization21clone_with_new_inputsERKSt6vectorINS_6OutputINS_4NodeEEESaIS6_EE
libopenvino.so.2420:_ZNK2ov2op3v1221ScatterElementsUpdate12has_evaluateEv
libopenvino.so.2420:_ZNK2ov2op3v1221ScatterElementsUpdate21clone_with_new_inputsERKSt6vectorINS_6OutputINS_4NodeEEESaIS6_EE
libopenvino.so.2420:_ZNK2ov2op3v1221ScatterElementsUpdate8evaluateERSt6vectorINS_6TensorESaIS4_EERKS6_
libopenvino.so.2420:_ZNK2ov2op3v123Pad12has_evaluateEv
libopenvino.so.2420:_ZNK2ov2op3v123Pad21clone_with_new_inputsERKSt6vectorINS_6OutputINS_4NodeEEESaIS6_EE
libopenvino.so.2420:_ZNK2ov2op3v123Pad8evaluateERSt6vectorINS_6TensorESaIS4_EERKS6_
libopenvino.so.2420:_ZNK2ov2op3v1310BitwiseAnd21clone_with_new_inputsERKSt6vectorINS_6OutputINS_4NodeEEESaIS6_EE
libopenvino.so.2420:_ZNK2ov2op3v1310BitwiseNot21clone_with_new_inputsERKSt6vectorINS_6OutputINS_4NodeEEESaIS6_EE
libopenvino.so.2420:_ZNK2ov2op3v1310BitwiseXor21clone_with_new_inputsERKSt6vectorINS_6OutputINS_4NodeEEESaIS6_EE
libopenvino.so.2420:_ZNK2ov2op3v1310NMSRotated13get_clockwiseEv
libopenvino.so.2420:_ZNK2ov2op3v1310NMSRotated20get_output_type_attrEv
libopenvino.so.2420:_ZNK2ov2op3v1310NMSRotated21clone_with_new_inputsERKSt6vectorINS_6OutputINS_4NodeEEESaIS6_EE
libopenvino.so.2420:_ZNK2ov2op3v1310NMSRotated26get_sort_result_descendingEv
libopenvino.so.2420:_ZNK2ov2op3v1311FakeConvert12has_evaluateEv
libopenvino.so.2420:_ZNK2ov2op3v1311FakeConvert20get_destination_typeB5cxx11Ev
libopenvino.so.2420:_ZNK2ov2op3v1311FakeConvert21clone_with_new_inputsERKSt6vectorINS_6OutputINS_4NodeEEESaIS6_EE
libopenvino.so.2420:_ZNK2ov2op3v1311FakeConvert25validate_destination_typeEv
libopenvino.so.2420:_ZNK2ov2op3v1311FakeConvert28get_destination_element_typeEv
libopenvino.so.2420:_ZNK2ov2op3v1311FakeConvert8evaluateERSt6vectorINS_6TensorESaIS4_EERKS6_
libopenvino.so.2420:_ZNK2ov2op3v1311Multinomial11get_op_seedEv
libopenvino.so.2420:_ZNK2ov2op3v1311Multinomial13get_log_probsEv
libopenvino.so.2420:_ZNK2ov2op3v1311Multinomial15get_global_seedEv
libopenvino.so.2420:_ZNK2ov2op3v1311Multinomial16get_convert_typeEv
libopenvino.so.2420:_ZNK2ov2op3v1311Multinomial20get_with_replacementEv
libopenvino.so.2420:_ZNK2ov2op3v1311Multinomial21clone_with_new_inputsERKSt6vectorINS_6OutputINS_4NodeEEESaIS6_EE
libopenvino.so.2420:_ZNK2ov2op3v1325ScaledDotProductAttention21clone_with_new_inputsERKSt6vectorINS_6OutputINS_4NodeEEESaIS6_EE
libopenvino.so.2420:_ZNK2ov2op3v139BitwiseOr21clone_with_new_inputsERKSt6vectorINS_6OutputINS_4NodeEEESaIS6_EE
libopenvino.so.2420:_ZNK2ov2op3v1419ConvertPromoteTypes18get_promote_unsafeEv
libopenvino.so.2420:_ZNK2ov2op3v1419ConvertPromoteTypes21clone_with_new_inputsERKSt6vectorINS_6OutputINS_4NodeEEESaIS6_EE
libopenvino.so.2420:_ZNK2ov2op3v1419ConvertPromoteTypes28get_pytorch_scalar_promotionEv
libopenvino.so.2420:_ZNK2ov2op3v1419ConvertPromoteTypes32get_u64_integer_promotion_targetEv
libopenvino.so.2420:_ZNK2ov2op3v147AvgPool21clone_with_new_inputsERKSt6vectorINS_6OutputINS_4NodeEEESaIS6_EE
libopenvino.so.2420:_ZNK2ov2op3v147Inverse11get_adjointEv
libopenvino.so.2420:_ZNK2ov2op3v147Inverse21clone_with_new_inputsERKSt6vectorINS_6OutputINS_4NodeEEESaIS6_EE
libopenvino.so.2420:_ZNK2ov2op3v147MaxPool12has_evaluateEv
libopenvino.so.2420:_ZNK2ov2op3v147MaxPool13get_dilationsEv
libopenvino.so.2420:_ZNK2ov2op3v147MaxPool21clone_with_new_inputsERKSt6vectorINS_6OutputINS_4NodeEEESaIS6_EE
libopenvino.so.2420:_ZNK2ov2op3v147MaxPool22get_index_element_typeEv
libopenvino.so.2420:_ZNK2ov2op3v147MaxPool8evaluateERSt6vectorINS_6TensorESaIS4_EERKS6_
libopenvino.so.2420:_ZNK2ov2op3v147MaxPool8get_axisEv
libopenvino.so.2420:_ZNK2ov2op3v1515ROIAlignRotated21clone_with_new_inputsERKSt6vectorINS_6OutputINS_4NodeEEESaIS6_EE
libopenvino.so.2420:_ZNK2ov2op3v1515ScatterNDUpdate12has_evaluateEv
libopenvino.so.2420:_ZNK2ov2op3v1515ScatterNDUpdate13get_reductionEv
libopenvino.so.2420:_ZNK2ov2op3v1515ScatterNDUpdate14evaluate_lowerERSt6vectorINS_6TensorESaIS4_EE
libopenvino.so.2420:_ZNK2ov2op3v1515ScatterNDUpdate14evaluate_upperERSt6vectorINS_6TensorESaIS4_EE
libopenvino.so.2420:_ZNK2ov2op3v1515ScatterNDUpdate15evaluate_symbolERSt6vectorIS3_ISt10shared_ptrINS_6SymbolEESaIS6_EESaIS8_EE
libopenvino.so.2420:_ZNK2ov2op3v1515ScatterNDUpdate21clone_with_new_inputsERKSt6vectorINS_6OutputINS_4NodeEEESaIS6_EE
libopenvino.so.2420:_ZNK2ov2op3v1515ScatterNDUpdate8evaluateERSt6vectorINS_6TensorESaIS4_EERKS6_
libopenvino.so.2420:_ZNK2ov2op3v1518EmbeddingBagPacked21clone_with_new_inputsERKSt6vectorINS_6OutputINS_4NodeEEESaIS6_EE
libopenvino.so.2420:_ZNK2ov2op3v1519EmbeddingBagOffsets21clone_with_new_inputsERKSt6vectorINS_6OutputINS_4NodeEEESaIS6_EE
libopenvino.so.2420:_ZNK2ov2op3v156Col2Im11get_stridesEv
libopenvino.so.2420:_ZNK2ov2op3v156Col2Im12get_pads_endEv
libopenvino.so.2420:_ZNK2ov2op3v156Col2Im13get_dilationsEv
libopenvino.so.2420:_ZNK2ov2op3v156Col2Im14get_pads_beginEv
libopenvino.so.2420:_ZNK2ov2op3v156Col2Im21clone_with_new_inputsERKSt6vectorINS_6OutputINS_4NodeEEESaIS6_EE
libopenvino.so.2420:_ZNK2ov2op4util10GatherBase12has_evaluateEv
libopenvino.so.2420:_ZNK2ov2op4util10GatherBase14evaluate_lowerERSt6vectorINS_6TensorESaIS4_EE
libopenvino.so.2420:_ZNK2ov2op4util10GatherBase14evaluate_upperERSt6vectorINS_6TensorESaIS4_EE
libopenvino.so.2420:_ZNK2ov2op4util10GatherBase14get_batch_dimsEv
libopenvino.so.2420:_ZNK2ov2op4util10GatherBase15evaluate_symbolERSt6vectorIS3_ISt10shared_ptrINS_6SymbolEESaIS6_EESaIS8_EE
libopenvino.so.2420:_ZNK2ov2op4util10GatherBase8evaluateERSt6vectorINS_6TensorESaIS4_EERKS6_
libopenvino.so.2420:_ZNK2ov2op4util10GatherBase8get_axisEv
libopenvino.so.2420:_ZNK2ov2op4util11AvgPoolBase10get_kernelEv
libopenvino.so.2420:_ZNK2ov2op4util11AvgPoolBase11get_stridesEv
libopenvino.so.2420:_ZNK2ov2op4util11AvgPoolBase12get_auto_padEv
libopenvino.so.2420:_ZNK2ov2op4util11AvgPoolBase12get_pads_endEv
libopenvino.so.2420:_ZNK2ov2op4util11AvgPoolBase14get_pads_beginEv
libopenvino.so.2420:_ZNK2ov2op4util11AvgPoolBase15get_exclude_padEv
libopenvino.so.2420:_ZNK2ov2op4util11AvgPoolBase17get_rounding_typeEv
libopenvino.so.2420:_ZNK2ov2op4util11RNNCellBase23get_activation_functionEm
libopenvino.so.2420:_ZNK2ov2op4util11RNNCellBase4clipERKNS_6OutputINS_4NodeEEE
libopenvino.so.2420:_ZNK2ov2op4util13BroadcastBase14evaluate_lowerERSt6vectorINS_6TensorESaIS4_EE
libopenvino.so.2420:_ZNK2ov2op4util13BroadcastBase14evaluate_upperERSt6vectorINS_6TensorESaIS4_EE
libopenvino.so.2420:_ZNK2ov2op4util13BroadcastBase16get_target_shapeERKNS_6TensorE
libopenvino.so.2420:_ZNK2ov2op4util13BroadcastBase18evaluate_broadcastERKNS_6TensorERS3_RKNS_7AxisSetE
libopenvino.so.2420:_ZNK2ov2op4util13BroadcastBase18evaluate_broadcastERKNS_6TensorERS3_RKSt4pairIbNS_7AxisSetEERKNS_5ShapeE
libopenvino.so.2420:_ZNK2ov2op4util13BroadcastBase18get_broadcast_axesEv
libopenvino.so.2420:_ZNK2ov2op4util13BroadcastBase21get_result_shape_pdpdERKNS_12PartialShapeES5_RKNS0_17BroadcastModeSpecE
libopenvino.so.2420:_ZNK2ov2op4util13BroadcastBase26validate_target_shape_noneERKNS_12PartialShapeERKNS_10AxisVectorES5_
libopenvino.so.2420:_ZNK2ov2op4util13BroadcastBase27validate_target_shape_numpyERKNS_12PartialShapeES5_
libopenvino.so.2420:_ZNK2ov2op4util13BroadcastBase8evaluateERSt6vectorINS_6TensorESaIS4_EERKS6_
libopenvino.so.2420:_ZNK2ov2op4util13FrameworkNode21clone_with_new_inputsERKSt6vectorINS_6OutputINS_4NodeEEESaIS6_EE
libopenvino.so.2420:_ZNK2ov2op4util13FrameworkNode8clone_toERS2_
libopenvino.so.2420:_ZNK2ov2op4util13ReductionBase18get_reduction_axesEv
libopenvino.so.2420:_ZNK2ov2op4util13ReductionBase23reduction_axes_constantEv
libopenvino.so.2420:_ZNK2ov2op4util13VariableValue9get_resetEv
libopenvino.so.2420:_ZNK2ov2op4util13VariableValue9get_stateEv
libopenvino.so.2420:_ZNK2ov2op4util14IndexReduction18get_reduction_axisEv
libopenvino.so.2420:_ZNK2ov2op4util14IndexReduction22get_index_element_typeEv
libopenvino.so.2420:_ZNK2ov2op4util15InterpolateBase26validate_axes_element_typeERKNS_7element4TypeE
libopenvino.so.2420:_ZNK2ov2op4util15InterpolateBase27validate_sizes_element_typeERKNS_7element4TypeE
libopenvino.so.2420:_ZNK2ov2op4util15InterpolateBase28validate_scales_element_typeERKNS_7element4TypeE
libopenvino.so.2420:_ZNK2ov2op4util15MultiSubGraphOp21BodyOutputDescription4copyEv
libopenvino.so.2420:_ZNK2ov2op4util15MultiSubGraphOp21SliceInputDescription4copyEv
libopenvino.so.2420:_ZNK2ov2op4util15MultiSubGraphOp22MergedInputDescription4copyEv
libopenvino.so.2420:_ZNK2ov2op4util15MultiSubGraphOp23ConcatOutputDescription4copyEv
libopenvino.so.2420:_ZNK2ov2op4util15MultiSubGraphOp25InvariantInputDescription4copyEv
libopenvino.so.2420:_ZNK2ov2op4util18ActivationFunctionclERKSt10shared_ptrINS_4NodeEE
libopenvino.so.2420:_ZNK2ov2op4util20ConvertColorI420Base17is_type_supportedERKNS_7element4TypeE
libopenvino.so.2420:_ZNK2ov2op4util20ConvertColorNV12Base17is_type_supportedERKNS_7element4TypeE
libopenvino.so.2420:_ZNK2ov2op4util24BinaryElementwiseBitwise9get_autobEv
libopenvino.so.2420:_ZNK2ov2op4util25ScatterElementsUpdateBase12has_evaluateEv
libopenvino.so.2420:_ZNK2ov2op4util25ScatterElementsUpdateBase14evaluate_lowerERSt6vectorINS_6TensorESaIS4_EE
libopenvino.so.2420:_ZNK2ov2op4util25ScatterElementsUpdateBase14evaluate_upperERSt6vectorINS_6TensorESaIS4_EE
libopenvino.so.2420:_ZNK2ov2op4util25ScatterElementsUpdateBase15evaluate_symbolERSt6vectorIS3_ISt10shared_ptrINS_6SymbolEESaIS6_EESaIS8_EE
libopenvino.so.2420:_ZNK2ov2op4util25ScatterElementsUpdateBase19get_normalized_axisERKSt6vectorINS_6TensorESaIS4_EE
libopenvino.so.2420:_ZNK2ov2op4util25ScatterElementsUpdateBase37is_supported_index_input_element_typeEv
libopenvino.so.2420:_ZNK2ov2op4util27BinaryElementwiseArithmetic14evaluate_lowerERSt6vectorINS_6TensorESaIS4_EE
libopenvino.so.2420:_ZNK2ov2op4util27BinaryElementwiseArithmetic14evaluate_upperERSt6vectorINS_6TensorESaIS4_EE
libopenvino.so.2420:_ZNK2ov2op4util7PadBase12evaluate_padERSt6vectorINS_6TensorESaIS4_EERKS6_
libopenvino.so.2420:_ZNK2ov2op4util7PadBase12get_pads_endEv
libopenvino.so.2420:_ZNK2ov2op4util7PadBase14evaluate_lowerERSt6vectorINS_6TensorESaIS4_EE
libopenvino.so.2420:_ZNK2ov2op4util7PadBase14evaluate_upperERSt6vectorINS_6TensorESaIS4_EE
libopenvino.so.2420:_ZNK2ov2op4util7PadBase14get_pads_beginEv
libopenvino.so.2420:_ZNK2ov2op4util7PadBase15evaluate_symbolERSt6vectorIS3_ISt10shared_ptrINS_6SymbolEESaIS6_EESaIS8_EE
libopenvino.so.2420:_ZNK2ov2op4util8TopKBase12k_type_checkERKNS_7element4TypeE
libopenvino.so.2420:_ZNK2ov2op4util8TopKBase25read_k_from_constant_nodeERKSt10shared_ptrINS_4NodeEERKNS_7element4TypeE
libopenvino.so.2420:_ZNK2ov2op4util8TopKBase5get_kEv
libopenvino.so.2420:_ZNK2ov2op4util8TopKBase8get_axisEv
libopenvino.so.2420:_ZNK2ov2op4util9SlicePlaneqERKS2_
libopenvino.so.2420:_ZNK2ov2op4util9SlicePlanneERKS2_
libopenvino.so.2420:_ZNK2ov2op8internal13AUGRUSequence21clone_with_new_inputsERKSt6vectorINS_6OutputINS_4NodeEEESaIS6_EE
libopenvino.so.2420:_ZNK2ov2op8internal16GatherCompressed21clone_with_new_inputsERKSt6vectorINS_6OutputINS_4NodeEEESaIS6_EE
libopenvino.so.2420:_ZNK2ov2op8internal23MulticlassNmsIEInternal21clone_with_new_inputsERKSt6vectorINS_6OutputINS_4NodeEEESaIS6_EE
libopenvino.so.2420:_ZNK2ov2op8internal27GenerateProposalsIEInternal21clone_with_new_inputsERKSt6vectorINS_6OutputINS_4NodeEEESaIS6_EE
libopenvino.so.2420:_ZNK2ov2op8internal27NonMaxSuppressionIEInternal21clone_with_new_inputsERKSt6vectorINS_6OutputINS_4NodeEEESaIS6_EE
libopenvino.so.2420:_ZNK2ov2op8internal27NonMaxSuppressionIEInternal27max_boxes_output_from_inputEv
libopenvino.so.2420:_ZNK2ov2op8internal3RMS21clone_with_new_inputsERKSt6vectorINS_6OutputINS_4NodeEEESaIS6_EE
libopenvino.so.2420:_ZNK2ov2op8internal3RPE21clone_with_new_inputsERKSt6vectorINS_6OutputINS_4NodeEEESaIS6_EE
libopenvino.so.2420:_ZNK2ov2op8internal3RPE8get_axisEv
libopenvino.so.2420:_ZNK2ov2op8internal7RMSNorm11get_epsilonEv
libopenvino.so.2420:_ZNK2ov2op8internal7RMSNorm16get_compute_typeEv
libopenvino.so.2420:_ZNK2ov2op8internal7RMSNorm21clone_with_new_inputsERKSt6vectorINS_6OutputINS_4NodeEEESaIS6_EE
libopenvino.so.2420:_ZNK2ov2op8internal9AUGRUCell21clone_with_new_inputsERKSt6vectorINS_6OutputINS_4NodeEEESaIS6_EE
libopenvino.so.2420:_ZNK2ov30QuantizationAlignmentAttribute9to_stringB5cxx11Ev
libopenvino.so.2420:_ZNK2ov32QuantizationGranularityAttribute10is_skippedEv
libopenvino.so.2420:_ZNK2ov32QuantizationGranularityAttribute9to_stringB5cxx11Ev
libopenvino.so.2420:_ZNK2ov34AvgPoolPrecisionPreservedAttribute10is_skippedEv
libopenvino.so.2420:_ZNK2ov34AvgPoolPrecisionPreservedAttribute9to_stringB5cxx11Ev
libopenvino.so.2420:_ZNK2ov3Any10impl_checkEv
libopenvino.so.2420:_ZNK2ov3Any4Base10type_checkERKSt9type_info
libopenvino.so.2420:_ZNK2ov3Any4Base11is_copyableEv
libopenvino.so.2420:_ZNK2ov3Any4Base16visit_attributesERNS_16AttributeVisitorE
libopenvino.so.2420:_ZNK2ov3Any4Base20as_runtime_attributeEv
libopenvino.so.2420:_ZNK2ov3Any4Base2isERKSt9type_info
libopenvino.so.2420:_ZNK2ov3Any4Base7read_toERS1_
libopenvino.so.2420:_ZNK2ov3Any4Base9to_stringB5cxx11Ev
libopenvino.so.2420:_ZNK2ov3Any5emptyEv
libopenvino.so.2420:_ZNK2ov3Any5printERSo
libopenvino.so.2420:_ZNK2ov3Any9addressofEv
libopenvino.so.2420:_ZNK2ov3Any9type_infoEv
libopenvino.so.2420:_ZNK2ov3AnyeqERKDn
libopenvino.so.2420:_ZNK2ov3AnyeqERKS0_
libopenvino.so.2420:_ZNK2ov3AnyneERKS0_
libopenvino.so.2420:_ZNK2ov4Core10read_modelERKNSt7__cxx1112basic_stringIcSt11char_traitsIcESaIcEEERKNS_6TensorE
libopenvino.so.2420:_ZNK2ov4Core10read_modelERKNSt7__cxx1112basic_stringIcSt11char_traitsIcESaIcEEES8_
libopenvino.so.2420:_ZNK2ov4Core10read_modelERKNSt7__cxx1112basic_stringIwSt11char_traitsIwESaIwEEES8_
libopenvino.so.2420:_ZNK2ov4Core11query_modelERKSt10shared_ptrIKNS_5ModelEERKNSt7__cxx1112basic_stringIcSt11char_traitsIcESaIcEEERKSt3mapISC_NS_3AnyESt4lessISC_ESaISt4pairISD_SG_EEE
libopenvino.so.2420:_ZNK2ov4Core12get_propertyERKNSt7__cxx1112basic_stringIcSt11char_traitsIcESaIcEEES8_
libopenvino.so.2420:_ZNK2ov4Core12get_propertyERKNSt7__cxx1112basic_stringIcSt11char_traitsIcESaIcEEES8_RKSt3mapIS6_NS_3AnyESt4lessIS6_ESaISt4pairIS7_SA_EEE
libopenvino.so.2420:_ZNK2ov4Core12get_versionsERKNSt7__cxx1112basic_stringIcSt11char_traitsIcESaIcEEE
libopenvino.so.2420:_ZNK2ov4Core21get_available_devicesB5cxx11Ev
libopenvino.so.2420:_ZNK2ov4Node10is_dynamicEv
libopenvino.so.2420:_ZNK2ov4Node11descriptionB5cxx11Ev
libopenvino.so.2420:_ZNK2ov4Node11input_valueEm
libopenvino.so.2420:_ZNK2ov4Node12has_evaluateEv
libopenvino.so.2420:_ZNK2ov4Node12input_valuesEv
libopenvino.so.2420:_ZNK2ov4Node13has_same_typeESt10shared_ptrIKS0_E
libopenvino.so.2420:_ZNK2ov4Node14evaluate_lowerERSt6vectorINS_6TensorESaIS2_EE
libopenvino.so.2420:_ZNK2ov4Node14evaluate_upperERSt6vectorINS_6TensorESaIS2_EE
libopenvino.so.2420:_ZNK2ov4Node14get_input_sizeEv
libopenvino.so.2420:_ZNK2ov4Node15evaluate_symbolERSt6vectorIS1_ISt10shared_ptrINS_6SymbolEESaIS4_EESaIS6_EE
libopenvino.so.2420:_ZNK2ov4Node15get_input_shapeEm
libopenvino.so.2420:_ZNK2ov4Node15get_output_sizeEv
libopenvino.so.2420:_ZNK2ov4Node16get_element_typeEv
libopenvino.so.2420:_ZNK2ov4Node16get_input_tensorEm
libopenvino.so.2420:_ZNK2ov4Node16get_output_shapeEm
libopenvino.so.2420:_ZNK2ov4Node16no_default_indexEv
libopenvino.so.2420:_ZNK2ov4Node17get_friendly_nameB5cxx11Ev
libopenvino.so.2420:_ZNK2ov4Node17get_output_tensorEm
libopenvino.so.2420:_ZNK2ov4Node17write_descriptionERSoj
libopenvino.so.2420:_ZNK2ov4Node18get_default_outputEv
libopenvino.so.2420:_ZNK2ov4Node18get_input_node_ptrEm
libopenvino.so.2420:_ZNK2ov4Node20copy_with_new_inputsERKSt6vectorINS_6OutputIS0_EESaIS3_EE
libopenvino.so.2420:_ZNK2ov4Node20copy_with_new_inputsERKSt6vectorINS_6OutputIS0_EESaIS3_EERKS1_ISt10shared_ptrIS0_ESaIS9_EE
libopenvino.so.2420:_ZNK2ov4Node22get_control_dependentsEv
libopenvino.so.2420:_ZNK2ov4Node22get_input_element_typeEm
libopenvino.so.2420:_ZNK2ov4Node22is_const_fold_disabledEv
libopenvino.so.2420:_ZNK2ov4Node23get_input_partial_shapeEm
libopenvino.so.2420:_ZNK2ov4Node23get_input_source_outputEm
libopenvino.so.2420:_ZNK2ov4Node23get_output_element_typeEm
libopenvino.so.2420:_ZNK2ov4Node24get_control_dependenciesEv
libopenvino.so.2420:_ZNK2ov4Node24get_default_output_indexEv
libopenvino.so.2420:_ZNK2ov4Node24get_output_partial_shapeEm
libopenvino.so.2420:_ZNK2ov4Node24get_output_target_inputsEm
libopenvino.so.2420:_ZNK2ov4Node25get_input_node_shared_ptrEm
libopenvino.so.2420:_ZNK2ov4Node5inputEm
libopenvino.so.2420:_ZNK2ov4Node6inputsEv
libopenvino.so.2420:_ZNK2ov4Node6outputEm
libopenvino.so.2420:_ZNK2ov4Node7outputsEv
libopenvino.so.2420:_ZNK2ov4Node8evaluateERSt6vectorINS_6TensorESaIS2_EERKS4_
libopenvino.so.2420:_ZNK2ov4Node8evaluateERSt6vectorINS_6TensorESaIS2_EERKS4_RKSt3mapINSt7__cxx1112basic_stringIcSt11char_traitsIcESaIcEEENS_3AnyESt4lessISE_ESaISt4pairIKSE_SF_EEE
libopenvino.so.2420:_ZNK2ov4Node8get_nameB5cxx11Ev
libopenvino.so.2420:_ZNK2ov4Node9get_autobEv
libopenvino.so.2420:_ZNK2ov4Node9get_shapeEv
libopenvino.so.2420:_ZNK2ov4Node9get_usersEb
libopenvino.so.2420:_ZNK2ov4pass10PassConfig12get_callbackERKNS_16DiscreteTypeInfoE
libopenvino.so.2420:_ZNK2ov4pass13VisualizeTree6renderEv
libopenvino.so.2420:_ZNK2ov4pass13low_precision16MoveFakeQuantize16canBeTransformedERKNS1_21TransformationContextESt10shared_ptrINS_4NodeEE
libopenvino.so.2420:_ZNK2ov4pass13low_precision16MoveFakeQuantize20isPrecisionPreservedESt10shared_ptrINS_4NodeEE
libopenvino.so.2420:_ZNK2ov4pass13low_precision17AddTransformation16canBeTransformedERKNS1_21TransformationContextESt10shared_ptrINS_4NodeEE
libopenvino.so.2420:_ZNK2ov4pass13low_precision17MVNTransformation16canBeTransformedERKNS1_21TransformationContextESt10shared_ptrINS_4NodeEE
libopenvino.so.2420:_ZNK2ov4pass13low_precision17MVNTransformation20isPrecisionPreservedESt10shared_ptrINS_4NodeEE
libopenvino.so.2420:_ZNK2ov4pass13low_precision17PadTransformation16canBeTransformedERKNS1_21TransformationContextESt10shared_ptrINS_4NodeEE
libopenvino.so.2420:_ZNK2ov4pass13low_precision17PadTransformation20isPrecisionPreservedESt10shared_ptrINS_4NodeEE
libopenvino.so.2420:_ZNK2ov4pass13low_precision18ReluTransformation16canBeTransformedERKNS1_21TransformationContextESt10shared_ptrINS_4NodeEE
libopenvino.so.2420:_ZNK2ov4pass13low_precision18ReluTransformation20isPrecisionPreservedESt10shared_ptrINS_4NodeEE
libopenvino.so.2420:_ZNK2ov4pass13low_precision19ClampTransformation16canBeTransformedERKNS1_21TransformationContextESt10shared_ptrINS_4NodeEE
libopenvino.so.2420:_ZNK2ov4pass13low_precision19ClampTransformation20isPrecisionPreservedESt10shared_ptrINS_4NodeEE
libopenvino.so.2420:_ZNK2ov4pass13low_precision19LayerTransformation11isQuantizedERKSt10shared_ptrIKNS_4NodeEERKSt6vectorINS_7element4TypeESaISB_EE
libopenvino.so.2420:_ZNK2ov4pass13low_precision19LayerTransformation12updateOutputERNS1_21TransformationContextESt10shared_ptrINS_4NodeEENSt7__cxx1112basic_stringIcSt11char_traitsIcESaIcEEE
libopenvino.so.2420:_ZNK2ov4pass13low_precision19LayerTransformation12updateOutputERNS1_21TransformationContextESt10shared_ptrINS_4NodeEES7_
libopenvino.so.2420:_ZNK2ov4pass13low_precision19LayerTransformation16canBeTransformedERKNS1_21TransformationContextESt10shared_ptrINS_4NodeEE
libopenvino.so.2420:_ZNK2ov4pass13low_precision19LayerTransformation20canSubtractBeHandledERKSt10shared_ptrINS_4NodeEERKNS1_26FakeQuantizeDequantizationE
libopenvino.so.2420:_ZNK2ov4pass13low_precision19LayerTransformation23moveDequantizationAfterERNS1_21TransformationContextERKSt10shared_ptrINS_4NodeEERKNS1_26FakeQuantizeDequantizationEbb
libopenvino.so.2420:_ZNK2ov4pass13low_precision19LayerTransformation24moveDequantizationBeforeERNS1_21TransformationContextERKSt10shared_ptrINS_4NodeEERKNS1_26FakeQuantizeDequantizationEb
libopenvino.so.2420:_ZNK2ov4pass13low_precision19LayerTransformation32canBeTransformedSpatialDimensionERKNS1_21TransformationContextESt10shared_ptrINS_4NodeEE
libopenvino.so.2420:_ZNK2ov4pass13low_precision19PReluTransformation16canBeTransformedERKNS1_21TransformationContextESt10shared_ptrINS_4NodeEE
libopenvino.so.2420:_ZNK2ov4pass13low_precision19PReluTransformation20isPrecisionPreservedESt10shared_ptrINS_4NodeEE
libopenvino.so.2420:_ZNK2ov4pass13low_precision19QuantizationDetails16getInputLowValueEm
libopenvino.so.2420:_ZNK2ov4pass13low_precision19QuantizationDetails17getInputHighValueEm
libopenvino.so.2420:_ZNK2ov4pass13low_precision19QuantizationDetails17getOutputLowValueEm
libopenvino.so.2420:_ZNK2ov4pass13low_precision19QuantizationDetails17hasNegativeOutputEv
libopenvino.so.2420:_ZNK2ov4pass13low_precision19QuantizationDetails18getOutputHighValueEm
libopenvino.so.2420:_ZNK2ov4pass13low_precision19QuantizationDetails5emptyEv
libopenvino.so.2420:_ZNK2ov4pass13low_precision19QuantizationDetails8maxInputEm
libopenvino.so.2420:_ZNK2ov4pass13low_precision19QuantizationDetails9maxOutputEm
libopenvino.so.2420:_ZNK2ov4pass13low_precision19SplitTransformation13updateOutputsERNS1_21TransformationContextESt6vectorISt10shared_ptrINS_4NodeEESaIS8_EES8_
libopenvino.so.2420:_ZNK2ov4pass13low_precision19SplitTransformation16canBeTransformedERKNS1_21TransformationContextESt10shared_ptrINS_4NodeEE
libopenvino.so.2420:_ZNK2ov4pass13low_precision19SplitTransformation20isPrecisionPreservedESt10shared_ptrINS_4NodeEE
libopenvino.so.2420:_ZNK2ov4pass13low_precision20ConcatTransformation16canBeTransformedERKNS1_21TransformationContextESt10shared_ptrINS_4NodeEE
libopenvino.so.2420:_ZNK2ov4pass13low_precision20ConcatTransformation20isPrecisionPreservedESt10shared_ptrINS_4NodeEE
libopenvino.so.2420:_ZNK2ov4pass13low_precision20GatherTransformation16canBeTransformedERKNS1_21TransformationContextESt10shared_ptrINS_4NodeEE
libopenvino.so.2420:_ZNK2ov4pass13low_precision20GatherTransformation20isPrecisionPreservedESt10shared_ptrINS_4NodeEE
libopenvino.so.2420:_ZNK2ov4pass13low_precision20MatMulTransformation16canBeTransformedERKNS1_21TransformationContextESt10shared_ptrINS_4NodeEE
libopenvino.so.2420:_ZNK2ov4pass13low_precision20MatMulTransformation20isPrecisionPreservedESt10shared_ptrINS_4NodeEE
libopenvino.so.2420:_ZNK2ov4pass13low_precision21AvgPoolTransformation16canBeTransformedERKNS1_21TransformationContextESt10shared_ptrINS_4NodeEE
libopenvino.so.2420:_ZNK2ov4pass13low_precision21AvgPoolTransformation20isPrecisionPreservedESt10shared_ptrINS_4NodeEE
libopenvino.so.2420:_ZNK2ov4pass13low_precision21CleanupTransformation16canBeTransformedERKNS1_21TransformationContextESt10shared_ptrINS_4NodeEE
libopenvino.so.2420:_ZNK2ov4pass13low_precision21ConvertTransformation20isPrecisionPreservedESt10shared_ptrINS_4NodeEE
libopenvino.so.2420:_ZNK2ov4pass13low_precision21MaxPoolTransformation16canBeTransformedERKNS1_21TransformationContextESt10shared_ptrINS_4NodeEE
libopenvino.so.2420:_ZNK2ov4pass13low_precision21MaxPoolTransformation20isPrecisionPreservedESt10shared_ptrINS_4NodeEE
libopenvino.so.2420:_ZNK2ov4pass13low_precision21ReshapeTransformation16canBeTransformedERKNS1_21TransformationContextESt10shared_ptrINS_4NodeEE
libopenvino.so.2420:_ZNK2ov4pass13low_precision21ReshapeTransformation20isPrecisionPreservedESt10shared_ptrINS_4NodeEE
libopenvino.so.2420:_ZNK2ov4pass13low_precision21SqueezeTransformation16canBeTransformedERKNS1_21TransformationContextESt10shared_ptrINS_4NodeEE
libopenvino.so.2420:_ZNK2ov4pass13low_precision21SqueezeTransformation20isPrecisionPreservedESt10shared_ptrINS_4NodeEE
libopenvino.so.2420:_ZNK2ov4pass13low_precision22MultiplyTransformation16getInputChannelsESt10shared_ptrINS_4NodeEE
libopenvino.so.2420:_ZNK2ov4pass13low_precision23ReduceMaxTransformation16canBeTransformedERKNS1_21TransformationContextESt10shared_ptrINS_4NodeEE
libopenvino.so.2420:_ZNK2ov4pass13low_precision23ReduceMaxTransformation18getUpdatePrecisionERKSt10shared_ptrINS_4NodeEE
libopenvino.so.2420:_ZNK2ov4pass13low_precision23ReduceMaxTransformation20isPrecisionPreservedESt10shared_ptrINS_4NodeEE
libopenvino.so.2420:_ZNK2ov4pass13low_precision23ReduceMinTransformation16canBeTransformedERKNS1_21TransformationContextESt10shared_ptrINS_4NodeEE
libopenvino.so.2420:_ZNK2ov4pass13low_precision23ReduceMinTransformation18getUpdatePrecisionERKSt10shared_ptrINS_4NodeEE
libopenvino.so.2420:_ZNK2ov4pass13low_precision23ReduceMinTransformation20isPrecisionPreservedESt10shared_ptrINS_4NodeEE
libopenvino.so.2420:_ZNK2ov4pass13low_precision23ReduceSumTransformation16canBeTransformedERKNS1_21TransformationContextESt10shared_ptrINS_4NodeEE
libopenvino.so.2420:_ZNK2ov4pass13low_precision23ReduceSumTransformation18getUpdatePrecisionERKSt10shared_ptrINS_4NodeEE
libopenvino.so.2420:_ZNK2ov4pass13low_precision23ReduceSumTransformation20isPrecisionPreservedESt10shared_ptrINS_4NodeEE
libopenvino.so.2420:_ZNK2ov4pass13low_precision23ReduceSumTransformation26changeDequantizationValuesERKSt10shared_ptrINS_4NodeEERNS1_26FakeQuantizeDequantizationE
libopenvino.so.2420:_ZNK2ov4pass13low_precision23TransposeTransformation16canBeTransformedERKNS1_21TransformationContextESt10shared_ptrINS_4NodeEE
libopenvino.so.2420:_ZNK2ov4pass13low_precision23TransposeTransformation20isPrecisionPreservedESt10shared_ptrINS_4NodeEE
libopenvino.so.2420:_ZNK2ov4pass13low_precision23UnsqueezeTransformation16canBeTransformedERKNS1_21TransformationContextESt10shared_ptrINS_4NodeEE
libopenvino.so.2420:_ZNK2ov4pass13low_precision23UnsqueezeTransformation20isPrecisionPreservedESt10shared_ptrINS_4NodeEE
libopenvino.so.2420:_ZNK2ov4pass13low_precision24ReduceBaseTransformation16canBeTransformedERKNS1_21TransformationContextESt10shared_ptrINS_4NodeEE
libopenvino.so.2420:_ZNK2ov4pass13low_precision24ReduceBaseTransformation18getUpdatePrecisionERKSt10shared_ptrINS_4NodeEE
libopenvino.so.2420:_ZNK2ov4pass13low_precision24ReduceBaseTransformation26changeDequantizationValuesERKSt10shared_ptrINS_4NodeEERNS1_26FakeQuantizeDequantizationE
libopenvino.so.2420:_ZNK2ov4pass13low_precision24ReduceMeanTransformation16canBeTransformedERKNS1_21TransformationContextESt10shared_ptrINS_4NodeEE
libopenvino.so.2420:_ZNK2ov4pass13low_precision24ReduceMeanTransformation18getUpdatePrecisionERKSt10shared_ptrINS_4NodeEE
libopenvino.so.2420:_ZNK2ov4pass13low_precision24ReduceMeanTransformation20isPrecisionPreservedESt10shared_ptrINS_4NodeEE
libopenvino.so.2420:_ZNK2ov4pass13low_precision25ConvolutionTransformation11isQuantizedERKSt10shared_ptrIKNS_4NodeEERKSt6vectorINS_7element4TypeESaISB_EE
libopenvino.so.2420:_ZNK2ov4pass13low_precision25ConvolutionTransformation16getInputChannelsESt10shared_ptrINS_4NodeEE
libopenvino.so.2420:_ZNK2ov4pass13low_precision25EltwiseBaseTransformation11getNotEmptyERKSt10shared_ptrINS_4NodeEE
libopenvino.so.2420:_ZNK2ov4pass13low_precision25EltwiseBaseTransformation16canBeTransformedERKNS1_21TransformationContextESt10shared_ptrINS_4NodeEE
libopenvino.so.2420:_ZNK2ov4pass13low_precision25EltwiseBaseTransformation20isPrecisionPreservedESt10shared_ptrINS_4NodeEE
libopenvino.so.2420:_ZNK2ov4pass13low_precision25EltwiseBaseTransformation22getMultiplyConstBranchERKSt10shared_ptrINS_4NodeEE
libopenvino.so.2420:_ZNK2ov4pass13low_precision25FoldConvertTransformation16canBeTransformedERKNS1_21TransformationContextESt10shared_ptrINS_4NodeEE
libopenvino.so.2420:_ZNK2ov4pass13low_precision25FoldConvertTransformation20isPrecisionPreservedESt10shared_ptrINS_4NodeEE
libopenvino.so.2420:_ZNK2ov4pass13low_precision25FuseConvertTransformation16canBeTransformedERKNS1_21TransformationContextESt10shared_ptrINS_4NodeEE
libopenvino.so.2420:_ZNK2ov4pass13low_precision25FuseConvertTransformation20isPrecisionPreservedESt10shared_ptrINS_4NodeEE
libopenvino.so.2420:_ZNK2ov4pass13low_precision25InterpolateTransformation16canBeTransformedERKNS1_21TransformationContextESt10shared_ptrINS_4NodeEE
libopenvino.so.2420:_ZNK2ov4pass13low_precision25InterpolateTransformation20isPrecisionPreservedESt10shared_ptrINS_4NodeEE
libopenvino.so.2420:_ZNK2ov4pass13low_precision25NormalizeL2Transformation16canBeTransformedERKNS1_21TransformationContextESt10shared_ptrINS_4NodeEE
libopenvino.so.2420:_ZNK2ov4pass13low_precision25NormalizeL2Transformation20isPrecisionPreservedESt10shared_ptrINS_4NodeEE
libopenvino.so.2420:_ZNK2ov4pass13low_precision26BatchToSpaceTransformation16canBeTransformedERKNS1_21TransformationContextESt10shared_ptrINS_4NodeEE
libopenvino.so.2420:_ZNK2ov4pass13low_precision26BatchToSpaceTransformation20isPrecisionPreservedESt10shared_ptrINS_4NodeEE
libopenvino.so.2420:_ZNK2ov4pass13low_precision26DepthToSpaceTransformation16canBeTransformedERKNS1_21TransformationContextESt10shared_ptrINS_4NodeEE
libopenvino.so.2420:_ZNK2ov4pass13low_precision26FakeQuantizeDequantization11isPerTensorEv
libopenvino.so.2420:_ZNK2ov4pass13low_precision26FakeQuantizeDequantization14isLowPrecisionEv
libopenvino.so.2420:_ZNK2ov4pass13low_precision26FakeQuantizeDequantization16checkElementwiseERKSt10shared_ptrINS_4NodeEE
libopenvino.so.2420:_ZNK2ov4pass13low_precision26FakeQuantizeDequantization16copyWithNewInputERKSt10shared_ptrINS_4NodeEE
libopenvino.so.2420:_ZNK2ov4pass13low_precision26FakeQuantizeDequantization25multiplyHasZeroOrDenormalEv
libopenvino.so.2420:_ZNK2ov4pass13low_precision26FakeQuantizeDequantization5emptyEv
libopenvino.so.2420:_ZNK2ov4pass13low_precision26FakeQuantizeDequantization8isSharedEv
libopenvino.so.2420:_ZNK2ov4pass13low_precision26FakeQuantizeTransformation20isPrecisionPreservedESt10shared_ptrINS_4NodeEE
libopenvino.so.2420:_ZNK2ov4pass13low_precision26SpaceToBatchTransformation16canBeTransformedERKNS1_21TransformationContextESt10shared_ptrINS_4NodeEE
libopenvino.so.2420:_ZNK2ov4pass13low_precision26SpaceToBatchTransformation20isPrecisionPreservedESt10shared_ptrINS_4NodeEE
libopenvino.so.2420:_ZNK2ov4pass13low_precision26StridedSliceTransformation16canBeTransformedERKNS1_21TransformationContextESt10shared_ptrINS_4NodeEE
libopenvino.so.2420:_ZNK2ov4pass13low_precision26StridedSliceTransformation20isPrecisionPreservedESt10shared_ptrINS_4NodeEE
libopenvino.so.2420:_ZNK2ov4pass13low_precision27RecurrentCellTransformation16canBeTransformedERKNS1_21TransformationContextESt10shared_ptrINS_4NodeEE
libopenvino.so.2420:_ZNK2ov4pass13low_precision27RecurrentCellTransformation20isPrecisionPreservedESt10shared_ptrINS_4NodeEE
libopenvino.so.2420:_ZNK2ov4pass13low_precision29MultiplyPartialTransformation16canBeTransformedERKNS1_21TransformationContextESt10shared_ptrINS_4NodeEE
libopenvino.so.2420:_ZNK2ov4pass13low_precision29ShuffleChannelsTransformation16canBeTransformedERKNS1_21TransformationContextESt10shared_ptrINS_4NodeEE
libopenvino.so.2420:_ZNK2ov4pass13low_precision29ShuffleChannelsTransformation20isPrecisionPreservedESt10shared_ptrINS_4NodeEE
libopenvino.so.2420:_ZNK2ov4pass13low_precision29TransparentBaseTransformation16canBeTransformedERKNS1_21TransformationContextESt10shared_ptrINS_4NodeEE
libopenvino.so.2420:_ZNK2ov4pass13low_precision29TransparentBaseTransformation20isPrecisionPreservedESt10shared_ptrINS_4NodeEE
libopenvino.so.2420:_ZNK2ov4pass13low_precision29WeightableLayerTransformation16canBeTransformedERKNS1_21TransformationContextESt10shared_ptrINS_4NodeEE
libopenvino.so.2420:_ZNK2ov4pass13low_precision29WeightableLayerTransformation20isPrecisionPreservedESt10shared_ptrINS_4NodeEE
libopenvino.so.2420:_ZNK2ov4pass13low_precision29WeightableLayerTransformation27canConvolutionBeTransformedERKNS1_21TransformationContextESt10shared_ptrINS_4NodeEERKSt6vectorINS_7element4TypeESaISB_EE
libopenvino.so.2420:_ZNK2ov4pass13low_precision29WeightableLayerTransformation35decomposeFakeQuantizeForWeightsPathERKSt10shared_ptrINS_4NodeEEm
libopenvino.so.2420:_ZNK2ov4pass13low_precision30FoldFakeQuantizeTransformation16canBeTransformedERKNS1_21TransformationContextESt10shared_ptrINS_4NodeEE
libopenvino.so.2420:_ZNK2ov4pass13low_precision30FoldFakeQuantizeTransformation16isConstantOutputESt10shared_ptrINS_4NodeEE
libopenvino.so.2420:_ZNK2ov4pass13low_precision30FoldFakeQuantizeTransformation20isPrecisionPreservedESt10shared_ptrINS_4NodeEE
libopenvino.so.2420:_ZNK2ov4pass13low_precision30GroupConvolutionTransformation11isQuantizedERKSt10shared_ptrIKNS_4NodeEERKSt6vectorINS_7element4TypeESaISB_EE
libopenvino.so.2420:_ZNK2ov4pass13low_precision30GroupConvolutionTransformation16getInputChannelsESt10shared_ptrINS_4NodeEE
libopenvino.so.2420:_ZNK2ov4pass13low_precision32AssignAndReadValueTransformation16canBeTransformedERKNS1_21TransformationContextESt10shared_ptrINS_4NodeEE
libopenvino.so.2420:_ZNK2ov4pass13low_precision32AssignAndReadValueTransformation20isPrecisionPreservedESt10shared_ptrINS_4NodeEE
libopenvino.so.2420:_ZNK2ov4pass13low_precision35EliminateFakeQuantizeTransformation16canBeTransformedERKNS1_21TransformationContextESt10shared_ptrINS_4NodeEE
libopenvino.so.2420:_ZNK2ov4pass13low_precision35EliminateFakeQuantizeTransformation20isPrecisionPreservedESt10shared_ptrINS_4NodeEE
libopenvino.so.2420:_ZNK2ov4pass13low_precision37ConvolutionBackpropDataTransformation11isQuantizedERKSt10shared_ptrIKNS_4NodeEERKSt6vectorINS_7element4TypeESaISB_EE
libopenvino.so.2420:_ZNK2ov4pass13low_precision37ConvolutionBackpropDataTransformation16canBeTransformedERKNS1_21TransformationContextESt10shared_ptrINS_4NodeEE
libopenvino.so.2420:_ZNK2ov4pass13low_precision37ConvolutionBackpropDataTransformation16getInputChannelsESt10shared_ptrINS_4NodeEE
libopenvino.so.2420:_ZNK2ov4pass13low_precision39FakeQuantizeDecompositionTransformation20isPrecisionPreservedESt10shared_ptrINS_4NodeEE
libopenvino.so.2420:_ZNK2ov4pass13low_precision40FuseMultiplyToFakeQuantizeTransformation20isPrecisionPreservedESt10shared_ptrINS_4NodeEE
libopenvino.so.2420:_ZNK2ov4pass13low_precision40FuseSubtractToFakeQuantizeTransformation20isPrecisionPreservedESt10shared_ptrINS_4NodeEE
libopenvino.so.2420:_ZNK2ov4pass13low_precision40MultiplyToGroupConvolutionTransformation11isQuantizedERKSt10shared_ptrIKNS_4NodeEERKSt6vectorINS_7element4TypeESaISB_EE
libopenvino.so.2420:_ZNK2ov4pass13low_precision40MultiplyToGroupConvolutionTransformation12getGroupSizeEv
libopenvino.so.2420:_ZNK2ov4pass13low_precision40MultiplyToGroupConvolutionTransformation16canBeTransformedERKNS1_21TransformationContextESt10shared_ptrINS_4NodeEE
libopenvino.so.2420:_ZNK2ov4pass13low_precision40MultiplyToGroupConvolutionTransformation20isPrecisionPreservedESt10shared_ptrINS_4NodeEE
libopenvino.so.2420:_ZNK2ov4pass13low_precision43FuseElementwiseToFakeQuantizeTransformation16canBeTransformedERKNS1_21TransformationContextESt10shared_ptrINS_4NodeEE
libopenvino.so.2420:_ZNK2ov4pass7pattern2op7Pattern13get_predicateEv
libopenvino.so.2420:_ZNK2ov4pass7pattern2op8Optional18get_optional_typesEv
libopenvino.so.2420:_ZNK2ov4pass7pattern2op8WrapType16get_wrapped_typeEv
libopenvino.so.2420:_ZNK2ov4pass7pattern2op8WrapType17get_wrapped_typesEv
libopenvino.so.2420:_ZNK2ov4pass7pattern7Matcher15get_pattern_mapEv
libopenvino.so.2420:_ZNK2ov4pass8PassBase12get_propertyERKNS_8EnumMaskINS0_12PassPropertyEEE
libopenvino.so.2420:_ZNK2ov4pass8PassBase8get_nameB5cxx11Ev
libopenvino.so.2420:_ZNK2ov4util4ReadINS_3AnyEvEclERSiRS2_
libopenvino.so.2420:_ZNK2ov4util4ReadISt3mapINSt7__cxx1112basic_stringIcSt11char_traitsIcESaIcEEENS_3AnyESt4lessIS8_ESaISt4pairIKS8_S9_EEEvEclERSiRSG_
libopenvino.so.2420:_ZNK2ov4util4ReadISt5tupleIJjjEEvEclERSiRS3_
libopenvino.so.2420:_ZNK2ov4util4ReadISt5tupleIJjjjEEvEclERSiRS3_
libopenvino.so.2420:_ZNK2ov4util4ReadIbvEclERSiRb
libopenvino.so.2420:_ZNK2ov4util4ReadIdvEclERSiRd
libopenvino.so.2420:_ZNK2ov4util4ReadIevEclERSiRe
libopenvino.so.2420:_ZNK2ov4util4ReadIfvEclERSiRf
libopenvino.so.2420:_ZNK2ov4util4ReadIivEclERSiRi
libopenvino.so.2420:_ZNK2ov4util4ReadIjvEclERSiRj
libopenvino.so.2420:_ZNK2ov4util4ReadIlvEclERSiRl
libopenvino.so.2420:_ZNK2ov4util4ReadImvEclERSiRm
libopenvino.so.2420:_ZNK2ov4util4ReadIxvEclERSiRx
libopenvino.so.2420:_ZNK2ov4util4ReadIyvEclERSiRy
libopenvino.so.2420:_ZNK2ov4util5WriteINS_3AnyEEclERSoRKS2_
libopenvino.so.2420:_ZNK2ov4util5WriteISt5tupleIJjjEEEclERSoRKS3_
libopenvino.so.2420:_ZNK2ov4util5WriteISt5tupleIJjjjEEEclERSoRKS3_
libopenvino.so.2420:_ZNK2ov4util5WriteIbEclERSoRKb
libopenvino.so.2420:_ZNK2ov5InputIKNS_4NodeEE10get_tensorEv
libopenvino.so.2420:_ZNK2ov5InputIKNS_4NodeEE11get_rt_infoB5cxx11Ev
libopenvino.so.2420:_ZNK2ov5InputIKNS_4NodeEE14get_tensor_ptrEv
libopenvino.so.2420:_ZNK2ov5InputIKNS_4NodeEE16get_element_typeEv
libopenvino.so.2420:_ZNK2ov5InputIKNS_4NodeEE17get_partial_shapeEv
libopenvino.so.2420:_ZNK2ov5InputIKNS_4NodeEE17get_source_outputEv
libopenvino.so.2420:_ZNK2ov5InputIKNS_4NodeEE25get_is_relevant_to_shapesEv
libopenvino.so.2420:_ZNK2ov5InputIKNS_4NodeEE25get_is_relevant_to_valuesEv
libopenvino.so.2420:_ZNK2ov5InputIKNS_4NodeEE8get_nodeEv
libopenvino.so.2420:_ZNK2ov5InputIKNS_4NodeEE9get_indexEv
libopenvino.so.2420:_ZNK2ov5InputIKNS_4NodeEE9get_shapeEv
libopenvino.so.2420:_ZNK2ov5InputIKNS_4NodeEEeqERKS3_
libopenvino.so.2420:_ZNK2ov5InputIKNS_4NodeEEgeERKS3_
libopenvino.so.2420:_ZNK2ov5InputIKNS_4NodeEEgtERKS3_
libopenvino.so.2420:_ZNK2ov5InputIKNS_4NodeEEleERKS3_
libopenvino.so.2420:_ZNK2ov5InputIKNS_4NodeEEltERKS3_
libopenvino.so.2420:_ZNK2ov5InputIKNS_4NodeEEneERKS3_
libopenvino.so.2420:_ZNK2ov5InputINS_4NodeEE10get_tensorEv
libopenvino.so.2420:_ZNK2ov5InputINS_4NodeEE11get_rt_infoB5cxx11Ev
libopenvino.so.2420:_ZNK2ov5InputINS_4NodeEE14get_tensor_ptrEv
libopenvino.so.2420:_ZNK2ov5InputINS_4NodeEE16get_element_typeEv
libopenvino.so.2420:_ZNK2ov5InputINS_4NodeEE17get_partial_shapeEv
libopenvino.so.2420:_ZNK2ov5InputINS_4NodeEE17get_source_outputEv
libopenvino.so.2420:_ZNK2ov5InputINS_4NodeEE21replace_source_outputERKNS_6OutputIS1_EE
libopenvino.so.2420:_ZNK2ov5InputINS_4NodeEE25get_is_relevant_to_shapesEv
libopenvino.so.2420:_ZNK2ov5InputINS_4NodeEE25get_is_relevant_to_valuesEv
libopenvino.so.2420:_ZNK2ov5InputINS_4NodeEE8get_nodeEv
libopenvino.so.2420:_ZNK2ov5InputINS_4NodeEE9get_indexEv
libopenvino.so.2420:_ZNK2ov5InputINS_4NodeEE9get_shapeEv
libopenvino.so.2420:_ZNK2ov5InputINS_4NodeEEeqERKS2_
libopenvino.so.2420:_ZNK2ov5InputINS_4NodeEEgeERKS2_
libopenvino.so.2420:_ZNK2ov5InputINS_4NodeEEgtERKS2_
libopenvino.so.2420:_ZNK2ov5InputINS_4NodeEEleERKS2_
libopenvino.so.2420:_ZNK2ov5InputINS_4NodeEEltERKS2_
libopenvino.so.2420:_ZNK2ov5InputINS_4NodeEEneERKS2_
libopenvino.so.2420:_ZNK2ov5Model10get_resultEv
libopenvino.so.2420:_ZNK2ov5Model10is_dynamicEv
libopenvino.so.2420:_ZNK2ov5Model11get_rt_infoERKSt3mapINSt7__cxx1112basic_stringIcSt11char_traitsIcESaIcEEENS_3AnyESt4lessIS7_ESaISt4pairIKS7_S8_EEERKN9__gnu_cxx17__normal_iteratorIPSC_St6vectorIS7_SaIS7_EEEESQ_
libopenvino.so.2420:_ZNK2ov5Model11has_rt_infoERKSt3mapINSt7__cxx1112basic_stringIcSt11char_traitsIcESaIcEEENS_3AnyESt4lessIS7_ESaISt4pairIKS7_S8_EEERKN9__gnu_cxx17__normal_iteratorIPSC_St6vectorIS7_SaIS7_EEEESQ_
libopenvino.so.2420:_ZNK2ov5Model11has_rt_infoERKSt6vectorINSt7__cxx1112basic_stringIcSt11char_traitsIcESaIcEEESaIS7_EE
libopenvino.so.2420:_ZNK2ov5Model13get_output_opEm
libopenvino.so.2420:_ZNK2ov5Model14get_graph_sizeEv
libopenvino.so.2420:_ZNK2ov5Model15get_ordered_opsEv
libopenvino.so.2420:_ZNK2ov5Model15get_output_sizeEv
libopenvino.so.2420:_ZNK2ov5Model16get_output_shapeEm
libopenvino.so.2420:_ZNK2ov5Model16get_result_indexERKNS_6OutputIKNS_4NodeEEE
libopenvino.so.2420:_ZNK2ov5Model16get_result_indexERKNS_6OutputINS_4NodeEEE
libopenvino.so.2420:_ZNK2ov5Model17get_friendly_nameB5cxx11Ev
libopenvino.so.2420:_ZNK2ov5Model17get_map_from_attrB5cxx11ERKNS_3AnyE
libopenvino.so.2420:_ZNK2ov5Model17get_map_from_attrB5cxx11ERNS_3AnyE
libopenvino.so.2420:_ZNK2ov5Model17map_unordered_opsESt8functionIFvPNS_4NodeEEE
libopenvino.so.2420:_ZNK2ov5Model18get_variable_by_idERKNSt7__cxx1112basic_stringIcSt11char_traitsIcESaIcEEE
libopenvino.so.2420:_ZNK2ov5Model19get_parameter_indexERKSt10shared_ptrINS_2op2v09ParameterEE
libopenvino.so.2420:_ZNK2ov5Model23get_output_element_typeEm
libopenvino.so.2420:_ZNK2ov5Model24get_output_partial_shapeEm
libopenvino.so.2420:_ZNK2ov5Model30validate_nodes_and_infer_typesEv
libopenvino.so.2420:_ZNK2ov5Model5cloneEv
libopenvino.so.2420:_ZNK2ov5Model5inputERKNSt7__cxx1112basic_stringIcSt11char_traitsIcESaIcEEE
libopenvino.so.2420:_ZNK2ov5Model5inputEm
libopenvino.so.2420:_ZNK2ov5Model5inputEv
libopenvino.so.2420:_ZNK2ov5Model6inputsEv
libopenvino.so.2420:_ZNK2ov5Model6outputERKNSt7__cxx1112basic_stringIcSt11char_traitsIcESaIcEEE
libopenvino.so.2420:_ZNK2ov5Model6outputEm
libopenvino.so.2420:_ZNK2ov5Model6outputEv
libopenvino.so.2420:_ZNK2ov5Model7get_opsEv
libopenvino.so.2420:_ZNK2ov5Model7outputsEv
libopenvino.so.2420:_ZNK2ov5Model8evaluateERSt6vectorINS_6TensorESaIS2_EERKS4_
libopenvino.so.2420:_ZNK2ov5Model8evaluateERSt6vectorINS_6TensorESaIS2_EERKS4_RSt3mapINSt7__cxx1112basic_stringIcSt11char_traitsIcESaIcEEENS_3AnyESt4lessISE_ESaISt4pairIKSE_SF_EEE
libopenvino.so.2420:_ZNK2ov5Model8get_attrERKNS_3AnyE
libopenvino.so.2420:_ZNK2ov5Model8get_attrERNS_3AnyE
libopenvino.so.2420:_ZNK2ov5Model8get_nameB5cxx11Ev
libopenvino.so.2420:_ZNK2ov5OpSet13contains_typeERKNS_16DiscreteTypeInfoE
libopenvino.so.2420:_ZNK2ov5OpSet13contains_typeERKNSt7__cxx1112basic_stringIcSt11char_traitsIcESaIcEEE
libopenvino.so.2420:_ZNK2ov5OpSet14get_types_infoEv
libopenvino.so.2420:_ZNK2ov5OpSet16contains_op_typeEPKNS_4NodeE
libopenvino.so.2420:_ZNK2ov5OpSet17get_type_info_setEv
libopenvino.so.2420:_ZNK2ov5OpSet18create_insensitiveERKNSt7__cxx1112basic_stringIcSt11char_traitsIcESaIcEEE
libopenvino.so.2420:_ZNK2ov5OpSet25contains_type_insensitiveERKNSt7__cxx1112basic_stringIcSt11char_traitsIcESaIcEEE
libopenvino.so.2420:_ZNK2ov5OpSet4sizeEv
libopenvino.so.2420:_ZNK2ov5OpSet6createERKNSt7__cxx1112basic_stringIcSt11char_traitsIcESaIcEEE
libopenvino.so.2420:_ZNK2ov5Shape2atEl
libopenvino.so.2420:_ZNK2ov5Shape9to_stringB5cxx11Ev
libopenvino.so.2420:_ZNK2ov5ShapeixEl
libopenvino.so.2420:_ZNK2ov6Layout17get_index_by_nameERKNSt7__cxx1112basic_stringIcSt11char_traitsIcESaIcEEE
libopenvino.so.2420:_ZNK2ov6Layout8has_nameERKNSt7__cxx1112basic_stringIcSt11char_traitsIcESaIcEEE
libopenvino.so.2420:_ZNK2ov6Layout9to_stringB5cxx11Ev
libopenvino.so.2420:_ZNK2ov6LayouteqERKS0_
libopenvino.so.2420:_ZNK2ov6LayoutneERKS0_
libopenvino.so.2420:_ZNK2ov6OutputIKNS_4NodeEE10get_tensorEv
libopenvino.so.2420:_ZNK2ov6OutputIKNS_4NodeEE11get_rt_infoB5cxx11Ev
libopenvino.so.2420:_ZNK2ov6OutputIKNS_4NodeEE12get_any_nameB5cxx11Ev
libopenvino.so.2420:_ZNK2ov6OutputIKNS_4NodeEE14get_tensor_ptrEv
libopenvino.so.2420:_ZNK2ov6OutputIKNS_4NodeEE16get_element_typeEv
libopenvino.so.2420:_ZNK2ov6OutputIKNS_4NodeEE17get_partial_shapeEv
libopenvino.so.2420:_ZNK2ov6OutputIKNS_4NodeEE17get_target_inputsEv
libopenvino.so.2420:_ZNK2ov6OutputIKNS_4NodeEE19get_node_shared_ptrEv
libopenvino.so.2420:_ZNK2ov6OutputIKNS_4NodeEE8get_nodeEv
libopenvino.so.2420:_ZNK2ov6OutputIKNS_4NodeEE9get_indexEv
libopenvino.so.2420:_ZNK2ov6OutputIKNS_4NodeEE9get_namesB5cxx11Ev
libopenvino.so.2420:_ZNK2ov6OutputIKNS_4NodeEE9get_shapeEv
libopenvino.so.2420:_ZNK2ov6OutputIKNS_4NodeEEeqERKS3_
libopenvino.so.2420:_ZNK2ov6OutputIKNS_4NodeEEgeERKS3_
libopenvino.so.2420:_ZNK2ov6OutputIKNS_4NodeEEgtERKS3_
libopenvino.so.2420:_ZNK2ov6OutputIKNS_4NodeEEleERKS3_
libopenvino.so.2420:_ZNK2ov6OutputIKNS_4NodeEEltERKS3_
libopenvino.so.2420:_ZNK2ov6OutputIKNS_4NodeEEneERKS3_
libopenvino.so.2420:_ZNK2ov6OutputINS_4NodeEE10get_tensorEv
libopenvino.so.2420:_ZNK2ov6OutputINS_4NodeEE11get_rt_infoB5cxx11Ev
libopenvino.so.2420:_ZNK2ov6OutputINS_4NodeEE12get_any_nameB5cxx11Ev
libopenvino.so.2420:_ZNK2ov6OutputINS_4NodeEE14get_tensor_ptrEv
libopenvino.so.2420:_ZNK2ov6OutputINS_4NodeEE16get_element_typeEv
libopenvino.so.2420:_ZNK2ov6OutputINS_4NodeEE17get_partial_shapeEv
libopenvino.so.2420:_ZNK2ov6OutputINS_4NodeEE17get_target_inputsEv
libopenvino.so.2420:_ZNK2ov6OutputINS_4NodeEE19get_node_shared_ptrEv
libopenvino.so.2420:_ZNK2ov6OutputINS_4NodeEE19remove_target_inputERKNS_5InputIS1_EE
libopenvino.so.2420:_ZNK2ov6OutputINS_4NodeEE8get_nodeEv
libopenvino.so.2420:_ZNK2ov6OutputINS_4NodeEE9get_indexEv
libopenvino.so.2420:_ZNK2ov6OutputINS_4NodeEE9get_namesB5cxx11Ev
libopenvino.so.2420:_ZNK2ov6OutputINS_4NodeEE9get_shapeEv
libopenvino.so.2420:_ZNK2ov6OutputINS_4NodeEEcvNS0_IKS1_EEEv
libopenvino.so.2420:_ZNK2ov6OutputINS_4NodeEEeqERKS2_
libopenvino.so.2420:_ZNK2ov6OutputINS_4NodeEEgeERKS2_
libopenvino.so.2420:_ZNK2ov6OutputINS_4NodeEEgtERKS2_
libopenvino.so.2420:_ZNK2ov6OutputINS_4NodeEEleERKS2_
libopenvino.so.2420:_ZNK2ov6OutputINS_4NodeEEltERKS2_
libopenvino.so.2420:_ZNK2ov6OutputINS_4NodeEEneERKS2_
libopenvino.so.2420:_ZNK2ov6Tensor11get_stridesEv
libopenvino.so.2420:_ZNK2ov6Tensor13get_byte_sizeEv
libopenvino.so.2420:_ZNK2ov6Tensor13is_continuousEv
libopenvino.so.2420:_ZNK2ov6Tensor16get_element_typeEv
libopenvino.so.2420:_ZNK2ov6Tensor4dataERKNS_7element4TypeE
libopenvino.so.2420:_ZNK2ov6Tensor7copy_toES0_
libopenvino.so.2420:_ZNK2ov6Tensor8get_sizeEv
libopenvino.so.2420:_ZNK2ov6Tensor9get_shapeEv
libopenvino.so.2420:_ZNK2ov6TensorcvbEv
libopenvino.so.2420:_ZNK2ov6TensorntEv
libopenvino.so.2420:_ZNK2ov6detail11SOExtension13shared_objectEv
libopenvino.so.2420:_ZNK2ov6detail11SOExtension9extensionEv
libopenvino.so.2420:_ZNK2ov7AxisSet9to_vectorEv
libopenvino.so.2420:_ZNK2ov7IPlugin11get_versionEv
libopenvino.so.2420:_ZNK2ov7IPlugin13compile_modelERKNSt7__cxx1112basic_stringIcSt11char_traitsIcESaIcEEERKSt3mapIS6_NS_3AnyESt4lessIS6_ESaISt4pairIS7_SA_EEE
libopenvino.so.2420:_ZNK2ov7IPlugin15get_device_nameB5cxx11Ev
libopenvino.so.2420:_ZNK2ov7IPlugin20get_executor_managerEv
libopenvino.so.2420:_ZNK2ov7IPlugin8get_coreEv
libopenvino.so.2420:_ZNK2ov7ITensor13get_byte_sizeEv
libopenvino.so.2420:_ZNK2ov7ITensor13is_continuousEv
libopenvino.so.2420:_ZNK2ov7ITensor7copy_toERKSt10shared_ptrIS0_E
libopenvino.so.2420:_ZNK2ov7ITensor8get_sizeEv
libopenvino.so.2420:_ZNK2ov7element4Type10compatibleERKS1_
libopenvino.so.2420:_ZNK2ov7element4Type12is_quantizedEv
libopenvino.so.2420:_ZNK2ov7element4Type13c_type_stringB5cxx11Ev
libopenvino.so.2420:_ZNK2ov7element4Type13get_type_nameB5cxx11Ev
libopenvino.so.2420:_ZNK2ov7element4Type18is_integral_numberEv
libopenvino.so.2420:_ZNK2ov7element4Type4hashEv
libopenvino.so.2420:_ZNK2ov7element4Type4sizeEv
libopenvino.so.2420:_ZNK2ov7element4Type7is_realEv
libopenvino.so.2420:_ZNK2ov7element4Type8bitwidthEv
libopenvino.so.2420:_ZNK2ov7element4Type9is_signedEv
libopenvino.so.2420:_ZNK2ov7element4Type9is_staticEv
libopenvino.so.2420:_ZNK2ov7element4Type9to_stringB5cxx11Ev
libopenvino.so.2420:_ZNK2ov7float164sizeEv
libopenvino.so.2420:_ZNK2ov7float167to_bitsEv
libopenvino.so.2420:_ZNK2ov7float169to_stringB5cxx11Ev
libopenvino.so.2420:_ZNK2ov7float16cvfEv
libopenvino.so.2420:_ZNK2ov8Interval8containsERKS0_
libopenvino.so.2420:_ZNK2ov8IntervalanERKS0_
libopenvino.so.2420:_ZNK2ov8IntervaleqERKS0_
libopenvino.so.2420:_ZNK2ov8IntervalmiERKS0_
libopenvino.so.2420:_ZNK2ov8IntervalmlERKS0_
libopenvino.so.2420:_ZNK2ov8IntervalneERKS0_
libopenvino.so.2420:_ZNK2ov8IntervalplERKS0_
libopenvino.so.2420:_ZNK2ov8bfloat164sizeEv
libopenvino.so.2420:_ZNK2ov8bfloat167to_bitsEv
libopenvino.so.2420:_ZNK2ov8bfloat169to_stringB5cxx11Ev
libopenvino.so.2420:_ZNK2ov8bfloat16cvfEv
libopenvino.so.2420:_ZNK2ov8frontend10InputModel10get_inputsEv
libopenvino.so.2420:_ZNK2ov8frontend10InputModel11get_outputsEv
libopenvino.so.2420:_ZNK2ov8frontend10InputModel16get_element_typeERKSt10shared_ptrINS0_5PlaceEE
libopenvino.so.2420:_ZNK2ov8frontend10InputModel17get_partial_shapeERKSt10shared_ptrINS0_5PlaceEE
libopenvino.so.2420:_ZNK2ov8frontend10InputModel24get_place_by_tensor_nameERKNSt7__cxx1112basic_stringIcSt11char_traitsIcESaIcEEE
libopenvino.so.2420:_ZNK2ov8frontend10InputModel27get_place_by_operation_nameERKNSt7__cxx1112basic_stringIcSt11char_traitsIcESaIcEEE
libopenvino.so.2420:_ZNK2ov8frontend25ProgressReporterExtension15report_progressEfjj
libopenvino.so.2420:_ZNK2ov8frontend30DecoderTransformationExtension13register_passERNS_4pass7ManagerE
libopenvino.so.2420:_ZNK2ov8frontend5Place13is_equal_dataERKSt10shared_ptrIS1_E
libopenvino.so.2420:_ZNK2ov8frontend5Place14get_input_portERKNSt7__cxx1112basic_stringIcSt11char_traitsIcESaIcEEE
libopenvino.so.2420:_ZNK2ov8frontend5Place14get_input_portERKNSt7__cxx1112basic_stringIcSt11char_traitsIcESaIcEEEi
libopenvino.so.2420:_ZNK2ov8frontend5Place14get_input_portEi
libopenvino.so.2420:_ZNK2ov8frontend5Place14get_input_portEv
libopenvino.so.2420:_ZNK2ov8frontend5Place15get_output_portERKNSt7__cxx1112basic_stringIcSt11char_traitsIcESaIcEEE
libopenvino.so.2420:_ZNK2ov8frontend5Place15get_output_portERKNSt7__cxx1112basic_stringIcSt11char_traitsIcESaIcEEEi
libopenvino.so.2420:_ZNK2ov8frontend5Place15get_output_portEi
libopenvino.so.2420:_ZNK2ov8frontend5Place15get_output_portEv
libopenvino.so.2420:_ZNK2ov8frontend5Place17get_source_tensorERKNSt7__cxx1112basic_stringIcSt11char_traitsIcESaIcEEE
libopenvino.so.2420:_ZNK2ov8frontend5Place17get_source_tensorERKNSt7__cxx1112basic_stringIcSt11char_traitsIcESaIcEEEi
libopenvino.so.2420:_ZNK2ov8frontend5Place17get_source_tensorEi
libopenvino.so.2420:_ZNK2ov8frontend5Place17get_source_tensorEv
libopenvino.so.2420:_ZNK2ov8frontend5Place17get_target_tensorERKNSt7__cxx1112basic_stringIcSt11char_traitsIcESaIcEEE
libopenvino.so.2420:_ZNK2ov8frontend5Place17get_target_tensorERKNSt7__cxx1112basic_stringIcSt11char_traitsIcESaIcEEEi
libopenvino.so.2420:_ZNK2ov8frontend5Place17get_target_tensorEi
libopenvino.so.2420:_ZNK2ov8frontend5Place17get_target_tensorEv
libopenvino.so.2420:_ZNK2ov8frontend5Place18get_producing_portEv
libopenvino.so.2420:_ZNK2ov8frontend5Place19get_consuming_portsEv
libopenvino.so.2420:_ZNK2ov8frontend5Place23get_producing_operationERKNSt7__cxx1112basic_stringIcSt11char_traitsIcESaIcEEE
libopenvino.so.2420:_ZNK2ov8frontend5Place23get_producing_operationERKNSt7__cxx1112basic_stringIcSt11char_traitsIcESaIcEEEi
libopenvino.so.2420:_ZNK2ov8frontend5Place23get_producing_operationEi
libopenvino.so.2420:_ZNK2ov8frontend5Place23get_producing_operationEv
libopenvino.so.2420:_ZNK2ov8frontend5Place24get_consuming_operationsERKNSt7__cxx1112basic_stringIcSt11char_traitsIcESaIcEEE
libopenvino.so.2420:_ZNK2ov8frontend5Place24get_consuming_operationsERKNSt7__cxx1112basic_stringIcSt11char_traitsIcESaIcEEEi
libopenvino.so.2420:_ZNK2ov8frontend5Place24get_consuming_operationsEi
libopenvino.so.2420:_ZNK2ov8frontend5Place24get_consuming_operationsEv
libopenvino.so.2420:_ZNK2ov8frontend5Place8is_equalERKSt10shared_ptrIS1_E
libopenvino.so.2420:_ZNK2ov8frontend5Place8is_inputEv
libopenvino.so.2420:_ZNK2ov8frontend5Place9get_namesB5cxx11Ev
libopenvino.so.2420:_ZNK2ov8frontend5Place9is_outputEv
libopenvino.so.2420:_ZNK2ov8frontend8FrontEnd14supported_implERKSt6vectorINS_3AnyESaIS3_EE
libopenvino.so.2420:_ZNK2ov8frontend8FrontEnd17convert_partiallyERKSt10shared_ptrINS0_10InputModelEE
libopenvino.so.2420:_ZNK2ov8frontend8FrontEnd6decodeERKSt10shared_ptrINS0_10InputModelEE
libopenvino.so.2420:_ZNK2ov8frontend8FrontEnd7convertERKSt10shared_ptrINS0_10InputModelEE
libopenvino.so.2420:_ZNK2ov8frontend8FrontEnd7convertERKSt10shared_ptrINS_5ModelEE
libopenvino.so.2420:_ZNK2ov8frontend8FrontEnd8get_nameB5cxx11Ev
libopenvino.so.2420:_ZNK2ov8frontend8FrontEnd9load_implERKSt6vectorINS_3AnyESaIS3_EE
libopenvino.so.2420:_ZNK2ov8frontend8FrontEnd9normalizeERKSt10shared_ptrINS_5ModelEE
libopenvino.so.2420:_ZNK2ov9AllocatorcvbEv
libopenvino.so.2420:_ZNK2ov9AllocatoreqERKS0_
libopenvino.so.2420:_ZNK2ov9AllocatorntEv
libopenvino.so.2420:_ZNK2ov9Dimension10compatibleERKS0_
libopenvino.so.2420:_ZNK2ov9Dimension10get_lengthEv
libopenvino.so.2420:_ZNK2ov9Dimension10get_symbolEv
libopenvino.so.2420:_ZNK2ov9Dimension10has_symbolEv
libopenvino.so.2420:_ZNK2ov9Dimension11same_schemeERKS0_
libopenvino.so.2420:_ZNK2ov9Dimension14get_max_lengthEv
libopenvino.so.2420:_ZNK2ov9Dimension14get_min_lengthEv
libopenvino.so.2420:_ZNK2ov9Dimension7refinesERKS0_
libopenvino.so.2420:_ZNK2ov9Dimension7relaxesERKS0_
libopenvino.so.2420:_ZNK2ov9Dimension9to_stringB5cxx11Ev
libopenvino.so.2420:_ZNK2ov9DimensionanERKS0_
libopenvino.so.2420:_ZNK2ov9DimensiondvEl
libopenvino.so.2420:_ZNK2ov9DimensionmiERKS0_
libopenvino.so.2420:_ZNK2ov9DimensionmlERKS0_
libopenvino.so.2420:_ZNK2ov9DimensionplERKS0_
libopenvino.so.2420:_ZNK2ov9threading16IStreamsExecutor6Config12get_propertyERKNSt7__cxx1112basic_stringIcSt11char_traitsIcESaIcEEE
libopenvino.so.2420:_ZNKSt4hashIN2ov16DiscreteTypeInfoEEclERKS1_
libopenvino.so.2420:_ZSt5isnanN2ov7float16E
libopenvino.so.2420:_ZTv0_n24_N2ov9threading16IStreamsExecutorD0Ev
libopenvino.so.2420:_ZTv0_n24_N2ov9threading16IStreamsExecutorD1Ev
libopenvino.so.2420:_ZTv0_n24_N2ov9threading18CPUStreamsExecutorD0Ev
libopenvino.so.2420:_ZTv0_n24_N2ov9threading18CPUStreamsExecutorD1Ev
libopenvino.so.2420:_ZTv0_n32_N2ov9threading18CPUStreamsExecutor3runESt8functionIFvvEE
libopenvino.so.2420:_ZZNSt9once_flag18_Prepare_executionC4IZSt9call_onceIMN2ov10ViewTensorEKFvvEJPKS4_EEvRS_OT_DpOT0_EUlvE_EERSA_ENUlvE_4_FUNEv
libopenvino.so.2420:_ZZNSt9once_flag18_Prepare_executionC4IZSt9call_onceIMNSt13__future_base13_State_baseV2EFvPSt8functionIFSt10unique_ptrINS3_12_Result_baseENS7_8_DeleterEEvEEPbEJPS4_SC_SD_EEvRS_OT_DpOT0_EUlvE_EERSI_ENUlvE_4_FUNEv
libopenvino.so.2420:get_openvino_version
libopenvino_c.so.2420:ov_available_devices_free
libopenvino_c.so.2420:ov_compiled_model_create_infer_request
libopenvino_c.so.2420:ov_compiled_model_export_model
libopenvino_c.so.2420:ov_compiled_model_free
libopenvino_c.so.2420:ov_compiled_model_get_context
libopenvino_c.so.2420:ov_compiled_model_get_property
libopenvino_c.so.2420:ov_compiled_model_get_runtime_model
libopenvino_c.so.2420:ov_compiled_model_input
libopenvino_c.so.2420:ov_compiled_model_input_by_index
libopenvino_c.so.2420:ov_compiled_model_input_by_name
libopenvino_c.so.2420:ov_compiled_model_inputs_size
libopenvino_c.so.2420:ov_compiled_model_output
libopenvino_c.so.2420:ov_compiled_model_output_by_index
libopenvino_c.so.2420:ov_compiled_model_output_by_name
libopenvino_c.so.2420:ov_compiled_model_outputs_size
libopenvino_c.so.2420:ov_compiled_model_set_property
libopenvino_c.so.2420:ov_const_port_get_shape
libopenvino_c.so.2420:ov_core_compile_model
libopenvino_c.so.2420:ov_core_compile_model_from_file
libopenvino_c.so.2420:ov_core_compile_model_from_file_unicode
libopenvino_c.so.2420:ov_core_compile_model_with_context
libopenvino_c.so.2420:ov_core_create
libopenvino_c.so.2420:ov_core_create_context
libopenvino_c.so.2420:ov_core_create_with_config
libopenvino_c.so.2420:ov_core_create_with_config_unicode
libopenvino_c.so.2420:ov_core_free
libopenvino_c.so.2420:ov_core_get_available_devices
libopenvino_c.so.2420:ov_core_get_default_context
libopenvino_c.so.2420:ov_core_get_property
libopenvino_c.so.2420:ov_core_get_versions_by_device_name
libopenvino_c.so.2420:ov_core_import_model
libopenvino_c.so.2420:ov_core_read_model
libopenvino_c.so.2420:ov_core_read_model_from_memory_buffer
libopenvino_c.so.2420:ov_core_read_model_unicode
libopenvino_c.so.2420:ov_core_set_property
libopenvino_c.so.2420:ov_core_versions_free
libopenvino_c.so.2420:ov_dimension_is_dynamic
libopenvino_c.so.2420:ov_free
libopenvino_c.so.2420:ov_get_error_info
libopenvino_c.so.2420:ov_get_last_err_msg
libopenvino_c.so.2420:ov_get_openvino_version
libopenvino_c.so.2420:ov_infer_request_cancel
libopenvino_c.so.2420:ov_infer_request_free
libopenvino_c.so.2420:ov_infer_request_get_input_tensor
libopenvino_c.so.2420:ov_infer_request_get_input_tensor_by_index
libopenvino_c.so.2420:ov_infer_request_get_output_tensor
libopenvino_c.so.2420:ov_infer_request_get_output_tensor_by_index
libopenvino_c.so.2420:ov_infer_request_get_profiling_info
libopenvino_c.so.2420:ov_infer_request_get_tensor
libopenvino_c.so.2420:ov_infer_request_get_tensor_by_const_port
libopenvino_c.so.2420:ov_infer_request_get_tensor_by_port
libopenvino_c.so.2420:ov_infer_request_infer
libopenvino_c.so.2420:ov_infer_request_set_callback
libopenvino_c.so.2420:ov_infer_request_set_input_tensor
libopenvino_c.so.2420:ov_infer_request_set_input_tensor_by_index
libopenvino_c.so.2420:ov_infer_request_set_output_tensor
libopenvino_c.so.2420:ov_infer_request_set_output_tensor_by_index
libopenvino_c.so.2420:ov_infer_request_set_tensor
libopenvino_c.so.2420:ov_infer_request_set_tensor_by_const_port
libopenvino_c.so.2420:ov_infer_request_set_tensor_by_port
libopenvino_c.so.2420:ov_infer_request_start_async
libopenvino_c.so.2420:ov_infer_request_wait
libopenvino_c.so.2420:ov_infer_request_wait_for
libopenvino_c.so.2420:ov_layout_create
libopenvino_c.so.2420:ov_layout_free
libopenvino_c.so.2420:ov_layout_to_string
libopenvino_c.so.2420:ov_model_const_input
libopenvino_c.so.2420:ov_model_const_input_by_index
libopenvino_c.so.2420:ov_model_const_input_by_name
libopenvino_c.so.2420:ov_model_const_output
libopenvino_c.so.2420:ov_model_const_output_by_index
libopenvino_c.so.2420:ov_model_const_output_by_name
libopenvino_c.so.2420:ov_model_free
libopenvino_c.so.2420:ov_model_get_friendly_name
libopenvino_c.so.2420:ov_model_input
libopenvino_c.so.2420:ov_model_input_by_index
libopenvino_c.so.2420:ov_model_input_by_name
libopenvino_c.so.2420:ov_model_inputs_size
libopenvino_c.so.2420:ov_model_is_dynamic
libopenvino_c.so.2420:ov_model_output
libopenvino_c.so.2420:ov_model_output_by_index
libopenvino_c.so.2420:ov_model_output_by_name
libopenvino_c.so.2420:ov_model_outputs_size
libopenvino_c.so.2420:ov_model_reshape
libopenvino_c.so.2420:ov_model_reshape_by_port_indexes
libopenvino_c.so.2420:ov_model_reshape_by_ports
libopenvino_c.so.2420:ov_model_reshape_input_by_name
libopenvino_c.so.2420:ov_model_reshape_single_input
libopenvino_c.so.2420:ov_output_const_port_free
libopenvino_c.so.2420:ov_output_port_free
libopenvino_c.so.2420:ov_partial_shape_create
libopenvino_c.so.2420:ov_partial_shape_create_dynamic
libopenvino_c.so.2420:ov_partial_shape_create_static
libopenvino_c.so.2420:ov_partial_shape_free
libopenvino_c.so.2420:ov_partial_shape_is_dynamic
libopenvino_c.so.2420:ov_partial_shape_to_shape
libopenvino_c.so.2420:ov_partial_shape_to_string
libopenvino_c.so.2420:ov_port_get_any_name
libopenvino_c.so.2420:ov_port_get_element_type
libopenvino_c.so.2420:ov_port_get_partial_shape
libopenvino_c.so.2420:ov_port_get_shape
libopenvino_c.so.2420:ov_preprocess_input_info_free
libopenvino_c.so.2420:ov_preprocess_input_info_get_model_info
libopenvino_c.so.2420:ov_preprocess_input_info_get_preprocess_steps
libopenvino_c.so.2420:ov_preprocess_input_info_get_tensor_info
libopenvino_c.so.2420:ov_preprocess_input_model_info_free
libopenvino_c.so.2420:ov_preprocess_input_model_info_set_layout
libopenvino_c.so.2420:ov_preprocess_input_tensor_info_free
libopenvino_c.so.2420:ov_preprocess_input_tensor_info_set_color_format
libopenvino_c.so.2420:ov_preprocess_input_tensor_info_set_color_format_with_subname
libopenvino_c.so.2420:ov_preprocess_input_tensor_info_set_element_type
libopenvino_c.so.2420:ov_preprocess_input_tensor_info_set_from
libopenvino_c.so.2420:ov_preprocess_input_tensor_info_set_layout
libopenvino_c.so.2420:ov_preprocess_input_tensor_info_set_memory_type
libopenvino_c.so.2420:ov_preprocess_input_tensor_info_set_spatial_static_shape
libopenvino_c.so.2420:ov_preprocess_output_info_free
libopenvino_c.so.2420:ov_preprocess_output_info_get_tensor_info
libopenvino_c.so.2420:ov_preprocess_output_set_element_type
libopenvino_c.so.2420:ov_preprocess_output_tensor_info_free
libopenvino_c.so.2420:ov_preprocess_prepostprocessor_build
libopenvino_c.so.2420:ov_preprocess_prepostprocessor_create
libopenvino_c.so.2420:ov_preprocess_prepostprocessor_free
libopenvino_c.so.2420:ov_preprocess_prepostprocessor_get_input_info
libopenvino_c.so.2420:ov_preprocess_prepostprocessor_get_input_info_by_index
libopenvino_c.so.2420:ov_preprocess_prepostprocessor_get_input_info_by_name
libopenvino_c.so.2420:ov_preprocess_prepostprocessor_get_output_info
libopenvino_c.so.2420:ov_preprocess_prepostprocessor_get_output_info_by_index
libopenvino_c.so.2420:ov_preprocess_prepostprocessor_get_output_info_by_name
libopenvino_c.so.2420:ov_preprocess_preprocess_steps_convert_color
libopenvino_c.so.2420:ov_preprocess_preprocess_steps_convert_element_type
libopenvino_c.so.2420:ov_preprocess_preprocess_steps_convert_layout
libopenvino_c.so.2420:ov_preprocess_preprocess_steps_crop
libopenvino_c.so.2420:ov_preprocess_preprocess_steps_free
libopenvino_c.so.2420:ov_preprocess_preprocess_steps_mean
libopenvino_c.so.2420:ov_preprocess_preprocess_steps_mean_multi_channels
libopenvino_c.so.2420:ov_preprocess_preprocess_steps_resize
libopenvino_c.so.2420:ov_preprocess_preprocess_steps_reverse_channels
libopenvino_c.so.2420:ov_preprocess_preprocess_steps_scale
libopenvino_c.so.2420:ov_preprocess_preprocess_steps_scale_multi_channels
libopenvino_c.so.2420:ov_profiling_info_list_free
libopenvino_c.so.2420:ov_rank_is_dynamic
libopenvino_c.so.2420:ov_remote_context_create_host_tensor
libopenvino_c.so.2420:ov_remote_context_create_tensor
libopenvino_c.so.2420:ov_remote_context_free
libopenvino_c.so.2420:ov_remote_context_get_device_name
libopenvino_c.so.2420:ov_remote_context_get_params
libopenvino_c.so.2420:ov_remote_tensor_get_device_name
libopenvino_c.so.2420:ov_remote_tensor_get_params
libopenvino_c.so.2420:ov_shape_create
libopenvino_c.so.2420:ov_shape_free
libopenvino_c.so.2420:ov_shape_to_partial_shape
libopenvino_c.so.2420:ov_shutdown
libopenvino_c.so.2420:ov_tensor_create
libopenvino_c.so.2420:ov_tensor_create_from_host_ptr
libopenvino_c.so.2420:ov_tensor_data
libopenvino_c.so.2420:ov_tensor_free
libopenvino_c.so.2420:ov_tensor_get_byte_size
libopenvino_c.so.2420:ov_tensor_get_element_type
libopenvino_c.so.2420:ov_tensor_get_shape
libopenvino_c.so.2420:ov_tensor_get_size
libopenvino_c.so.2420:ov_tensor_set_shape
libopenvino_c.so.2420:ov_version_free
libopenvino_ir_frontend.so.2420:_ZN2ov8frontend2ir8FrontEnd13add_extensionERKSt10shared_ptrINS_9ExtensionEE
libopenvino_ir_frontend.so.2420:_ZNK2ov8frontend2ir8FrontEnd14supported_implERKSt6vectorINS_3AnyESaIS4_EE
libopenvino_ir_frontend.so.2420:_ZNK2ov8frontend2ir8FrontEnd7convertERKSt10shared_ptrINS0_10InputModelEE
libopenvino_ir_frontend.so.2420:_ZNK2ov8frontend2ir8FrontEnd8get_nameB5cxx11Ev
libopenvino_ir_frontend.so.2420:_ZNK2ov8frontend2ir8FrontEnd9load_implERKSt6vectorINS_3AnyESaIS4_EE
libopenvino_ir_frontend.so.2420:_ZNK2ov8frontend2ir8FrontEnd9normalizeERKSt10shared_ptrINS_5ModelEE
libopenvino_ir_frontend.so.2420:_ZNSt8__detail8_ScannerIcE18_M_eat_escape_ecmaEv
libopenvino_ir_frontend.so.2420:_ZNSt8__detail8_ScannerIcE19_M_eat_escape_posixEv
libopenvino_ir_frontend.so.2420:_ZZNSt9once_flag18_Prepare_executionC4IZSt9call_onceIZNK14MetaDataParser5parseEvEUlvE_JEEvRS_OT_DpOT0_EUlvE_EERS6_ENUlvE_4_FUNEv
libopenvino_ir_frontend.so.2420:get_api_version
libopenvino_ir_frontend.so.2420:get_front_end_data
libopenvino_onnx_frontend.so.2420:_ZN2ov8frontend4onnx11NodeContextC1ERKNS1_4NodeE
libopenvino_onnx_frontend.so.2420:_ZN2ov8frontend4onnx11NodeContextC2ERKNS1_4NodeE
libopenvino_onnx_frontend.so.2420:_ZN2ov8frontend4onnx19ConversionExtensionD0Ev
libopenvino_onnx_frontend.so.2420:_ZN2ov8frontend4onnx19ConversionExtensionD1Ev
libopenvino_onnx_frontend.so.2420:_ZN2ov8frontend4onnx19ConversionExtensionD2Ev
libopenvino_onnx_frontend.so.2420:_ZN2ov8frontend4onnx8FrontEnd13add_extensionERKSt10shared_ptrINS_9ExtensionEE
libopenvino_onnx_frontend.so.2420:_ZNK2ov8frontend4onnx11NodeContext14get_input_sizeEv
libopenvino_onnx_frontend.so.2420:_ZNK2ov8frontend4onnx11NodeContext20get_attribute_as_anyERKNSt7__cxx1112basic_stringIcSt11char_traitsIcESaIcEEE
libopenvino_onnx_frontend.so.2420:_ZNK2ov8frontend4onnx11NodeContext33apply_additional_conversion_rulesERKNS_3AnyERKSt9type_info
libopenvino_onnx_frontend.so.2420:_ZNK2ov8frontend4onnx11NodeContext9get_inputEi
libopenvino_onnx_frontend.so.2420:_ZNK2ov8frontend4onnx8FrontEnd14supported_implERKSt6vectorINS_3AnyESaIS4_EE
libopenvino_onnx_frontend.so.2420:_ZNK2ov8frontend4onnx8FrontEnd17convert_partiallyERKSt10shared_ptrINS0_10InputModelEE
libopenvino_onnx_frontend.so.2420:_ZNK2ov8frontend4onnx8FrontEnd6decodeERKSt10shared_ptrINS0_10InputModelEE
libopenvino_onnx_frontend.so.2420:_ZNK2ov8frontend4onnx8FrontEnd7convertERKSt10shared_ptrINS0_10InputModelEE
libopenvino_onnx_frontend.so.2420:_ZNK2ov8frontend4onnx8FrontEnd7convertERKSt10shared_ptrINS_5ModelEE
libopenvino_onnx_frontend.so.2420:_ZNK2ov8frontend4onnx8FrontEnd8get_nameB5cxx11Ev
libopenvino_onnx_frontend.so.2420:_ZNK2ov8frontend4onnx8FrontEnd9load_implERKSt6vectorINS_3AnyESaIS4_EE
libopenvino_onnx_frontend.so.2420:_ZNK2ov8frontend4onnx8FrontEnd9normalizeERKSt10shared_ptrINS_5ModelEE
libopenvino_onnx_frontend.so.2420:get_api_version
libopenvino_onnx_frontend.so.2420:get_front_end_data
libopenvino_paddle_frontend.so.2420:_ZN2ov8frontend6paddle19ConversionExtensionD0Ev
libopenvino_paddle_frontend.so.2420:_ZN2ov8frontend6paddle19ConversionExtensionD1Ev
libopenvino_paddle_frontend.so.2420:_ZN2ov8frontend6paddle19ConversionExtensionD2Ev
libopenvino_paddle_frontend.so.2420:_ZN2ov8frontend6paddle8FrontEnd13add_extensionERKSt10shared_ptrINS_9ExtensionEE
libopenvino_paddle_frontend.so.2420:_ZN2ov8frontend6paddle8FrontEnd17convert_each_nodeERKSt10shared_ptrINS0_10InputModelEESt8functionIFSt3mapINSt7__cxx1112basic_stringIcSt11char_traitsIcESaIcEEESt6vectorINS_6OutputINS_4NodeEEESaISJ_EESt4lessISF_ESaISt4pairIKSF_SL_EEERKS9_ISF_SJ_SN_SaISO_ISP_SJ_EEERKS3_INS1_7OpPlaceEEEE
libopenvino_paddle_frontend.so.2420:_ZN2ov8frontend6paddle8FrontEnd27convert_each_node_recursiveERKSt10shared_ptrINS0_10InputModelEEiRKSt6vectorIS3_INS1_11TensorPlaceEESaISA_EESE_St8functionIFSt3mapINSt7__cxx1112basic_stringIcSt11char_traitsIcESaIcEEES8_INS_6OutputINS_4NodeEEESaISP_EESt4lessISM_ESaISt4pairIKSM_SR_EEERKSG_ISM_SP_ST_SaISU_ISV_SP_EEERKS3_INS1_7OpPlaceEEEE
libopenvino_paddle_frontend.so.2420:_ZN2ov8frontend6paddle8FrontEndC1Ev
libopenvino_paddle_frontend.so.2420:_ZN2ov8frontend6paddle8FrontEndC2Ev
libopenvino_paddle_frontend.so.2420:_ZNK2ov8frontend6paddle8FrontEnd14supported_implERKSt6vectorINS_3AnyESaIS4_EE
libopenvino_paddle_frontend.so.2420:_ZNK2ov8frontend6paddle8FrontEnd17convert_partiallyERKSt10shared_ptrINS0_10InputModelEE
libopenvino_paddle_frontend.so.2420:_ZNK2ov8frontend6paddle8FrontEnd21fuse_fakequantize_opsERKSt6vectorISt10shared_ptrINS_5ModelEESaIS6_EE
libopenvino_paddle_frontend.so.2420:_ZNK2ov8frontend6paddle8FrontEnd23try_remove_internal_opsERKSt6vectorISt10shared_ptrINS_5ModelEESaIS6_EE
libopenvino_paddle_frontend.so.2420:_ZNK2ov8frontend6paddle8FrontEnd6decodeERKSt10shared_ptrINS0_10InputModelEE
libopenvino_paddle_frontend.so.2420:_ZNK2ov8frontend6paddle8FrontEnd7convertERKSt10shared_ptrINS0_10InputModelEE
libopenvino_paddle_frontend.so.2420:_ZNK2ov8frontend6paddle8FrontEnd7convertERKSt10shared_ptrINS_5ModelEE
libopenvino_paddle_frontend.so.2420:_ZNK2ov8frontend6paddle8FrontEnd8get_nameB5cxx11Ev
libopenvino_paddle_frontend.so.2420:_ZNK2ov8frontend6paddle8FrontEnd9load_implERKSt6vectorINS_3AnyESaIS4_EE
libopenvino_paddle_frontend.so.2420:_ZNK2ov8frontend6paddle8FrontEnd9normalizeERKSt10shared_ptrINS_5ModelEE
libopenvino_paddle_frontend.so.2420:get_api_version
libopenvino_paddle_frontend.so.2420:get_front_end_data
libopenvino_pytorch_frontend.so.2420:_ZN2ov8frontend7pytorch19ConversionExtensionD0Ev
libopenvino_pytorch_frontend.so.2420:_ZN2ov8frontend7pytorch19ConversionExtensionD1Ev
libopenvino_pytorch_frontend.so.2420:_ZN2ov8frontend7pytorch19ConversionExtensionD2Ev
libopenvino_pytorch_frontend.so.2420:_ZN2ov8frontend7pytorch4pass17AtenIndexToSelectC1Ev
libopenvino_pytorch_frontend.so.2420:_ZN2ov8frontend7pytorch4pass17AtenIndexToSelectC2Ev
libopenvino_pytorch_frontend.so.2420:_ZN2ov8frontend7pytorch4pass20AtenIndexPutReplacerC1Ev
libopenvino_pytorch_frontend.so.2420:_ZN2ov8frontend7pytorch4pass20AtenIndexPutReplacerC2Ev
libopenvino_pytorch_frontend.so.2420:_ZN2ov8frontend7pytorch8FrontEnd13add_extensionERKSt10shared_ptrINS_9ExtensionEE
libopenvino_pytorch_frontend.so.2420:_ZN2ov8frontend7pytorch8FrontEndC1Ev
libopenvino_pytorch_frontend.so.2420:_ZN2ov8frontend7pytorch8FrontEndC2Ev
libopenvino_pytorch_frontend.so.2420:_ZNK2ov8frontend7pytorch8FrontEnd14supported_implERKSt6vectorINS_3AnyESaIS4_EE
libopenvino_pytorch_frontend.so.2420:_ZNK2ov8frontend7pytorch8FrontEnd17convert_partiallyERKSt10shared_ptrINS0_10InputModelEE
libopenvino_pytorch_frontend.so.2420:_ZNK2ov8frontend7pytorch8FrontEnd17get_supported_opsB5cxx11ERKSt10shared_ptrINS0_10InputModelEE
libopenvino_pytorch_frontend.so.2420:_ZNK2ov8frontend7pytorch8FrontEnd6decodeERKSt10shared_ptrINS0_10InputModelEE
libopenvino_pytorch_frontend.so.2420:_ZNK2ov8frontend7pytorch8FrontEnd7convertERKSt10shared_ptrINS0_10InputModelEE
libopenvino_pytorch_frontend.so.2420:_ZNK2ov8frontend7pytorch8FrontEnd7convertERKSt10shared_ptrINS_5ModelEE
libopenvino_pytorch_frontend.so.2420:_ZNK2ov8frontend7pytorch8FrontEnd9load_implERKSt6vectorINS_3AnyESaIS4_EE
libopenvino_pytorch_frontend.so.2420:_ZNK2ov8frontend7pytorch8FrontEnd9normalizeERKSt10shared_ptrINS_5ModelEE
libopenvino_pytorch_frontend.so.2420:get_api_version
libopenvino_pytorch_frontend.so.2420:get_front_end_data
libopenvino_tensorflow_frontend.so.2420:_ZN2ov8frontend10tensorflow19ConversionExtensionD0Ev
libopenvino_tensorflow_frontend.so.2420:_ZN2ov8frontend10tensorflow19ConversionExtensionD1Ev
libopenvino_tensorflow_frontend.so.2420:_ZN2ov8frontend10tensorflow19ConversionExtensionD2Ev
libopenvino_tensorflow_frontend.so.2420:_ZN2ov8frontend10tensorflow8FrontEnd13add_extensionERKSt10shared_ptrINS_9ExtensionEE
libopenvino_tensorflow_frontend.so.2420:_ZN2ov8frontend10tensorflow8FrontEndC1Ev
libopenvino_tensorflow_frontend.so.2420:_ZN2ov8frontend10tensorflow8FrontEndC2Ev
libopenvino_tensorflow_frontend.so.2420:_ZNK2ov8frontend10tensorflow8FrontEnd14supported_implERKSt6vectorINS_3AnyESaIS4_EE
libopenvino_tensorflow_frontend.so.2420:_ZNK2ov8frontend10tensorflow8FrontEnd17convert_partiallyERKSt10shared_ptrINS0_10InputModelEE
libopenvino_tensorflow_frontend.so.2420:_ZNK2ov8frontend10tensorflow8FrontEnd6decodeERKSt10shared_ptrINS0_10InputModelEE
libopenvino_tensorflow_frontend.so.2420:_ZNK2ov8frontend10tensorflow8FrontEnd7convertERKSt10shared_ptrINS0_10InputModelEE
libopenvino_tensorflow_frontend.so.2420:_ZNK2ov8frontend10tensorflow8FrontEnd7convertERKSt10shared_ptrINS_5ModelEE
libopenvino_tensorflow_frontend.so.2420:_ZNK2ov8frontend10tensorflow8FrontEnd9load_implERKSt6vectorINS_3AnyESaIS4_EE
libopenvino_tensorflow_frontend.so.2420:_ZNK2ov8frontend10tensorflow8FrontEnd9normalizeERKSt10shared_ptrINS_5ModelEE
libopenvino_tensorflow_frontend.so.2420:get_api_version
libopenvino_tensorflow_frontend.so.2420:get_front_end_data
libopenvino_tensorflow_lite_frontend.so.2420:_ZN2ov8frontend15tensorflow_lite19ConversionExtensionD0Ev
libopenvino_tensorflow_lite_frontend.so.2420:_ZN2ov8frontend15tensorflow_lite19ConversionExtensionD1Ev
libopenvino_tensorflow_lite_frontend.so.2420:_ZN2ov8frontend15tensorflow_lite19ConversionExtensionD2Ev
libopenvino_tensorflow_lite_frontend.so.2420:_ZN2ov8frontend15tensorflow_lite8FrontEnd13add_extensionERKSt10shared_ptrINS_9ExtensionEE
libopenvino_tensorflow_lite_frontend.so.2420:_ZN2ov8frontend15tensorflow_lite8FrontEndC1Ev
libopenvino_tensorflow_lite_frontend.so.2420:_ZN2ov8frontend15tensorflow_lite8FrontEndC2Ev
libopenvino_tensorflow_lite_frontend.so.2420:_ZNK2ov8frontend15tensorflow_lite8FrontEnd14supported_implERKSt6vectorINS_3AnyESaIS4_EE
libopenvino_tensorflow_lite_frontend.so.2420:_ZNK2ov8frontend15tensorflow_lite8FrontEnd15translate_graphERKSt10shared_ptrINS0_10InputModelEEbbRS3_INS_5ModelEE
libopenvino_tensorflow_lite_frontend.so.2420:_ZNK2ov8frontend15tensorflow_lite8FrontEnd17convert_partiallyERKSt10shared_ptrINS0_10InputModelEE
libopenvino_tensorflow_lite_frontend.so.2420:_ZNK2ov8frontend15tensorflow_lite8FrontEnd6decodeERKSt10shared_ptrINS0_10InputModelEE
libopenvino_tensorflow_lite_frontend.so.2420:_ZNK2ov8frontend15tensorflow_lite8FrontEnd7convertERKSt10shared_ptrINS0_10InputModelEE
libopenvino_tensorflow_lite_frontend.so.2420:_ZNK2ov8frontend15tensorflow_lite8FrontEnd7convertERKSt10shared_ptrINS_5ModelEE
libopenvino_tensorflow_lite_frontend.so.2420:_ZNK2ov8frontend15tensorflow_lite8FrontEnd9load_implERKSt6vectorINS_3AnyESaIS4_EE
libopenvino_tensorflow_lite_frontend.so.2420:_ZNK2ov8frontend15tensorflow_lite8FrontEnd9normalizeERKSt10shared_ptrINS_5ModelEE
libopenvino_tensorflow_lite_frontend.so.2420:get_api_version
libopenvino_tensorflow_lite_frontend.so.2420:get_front_end_data
